
main.elf:     file format elf64-little

DYNAMIC SYMBOL TABLE:
0000000000000000      DF *UND*	0000000000000000 __nnmusl_fini_dso
0000000000000000      DF *UND*	0000000000000000 __nnmusl_init_dso
0000000000000000  w   D  *UND*	0000000000000000 __rel_dyn_end
0000000000000000  w   D  *UND*	0000000000000000 __rel_dyn_start
0000000000000000  w   D  *UND*	0000000000000000 __rel_plt_end
0000000000000000  w   D  *UND*	0000000000000000 __rel_plt_start
0000000000000000      D  *UND*	0000000000000000 __nnDetailNintendoSdkNsoFile
0000000000000000      DO *UND*	0000000000000000 _ZSt7nothrow
0000000000000000      DF *UND*	0000000000000000 __cxa_guard_acquire
0000000000000000      DF *UND*	0000000000000000 __cxa_guard_release
0000000000000000      DF *UND*	0000000000000000 cosf
0000000000000000      DF *UND*	0000000000000000 memcpy
0000000000000000      DF *UND*	0000000000000000 sinf
0000000000000000      DF *UND*	0000000000000000 acosf
0000000000000000      DF *UND*	0000000000000000 sqrtf
0000000000000000      DF *UND*	0000000000000000 _ZN2nn2os11GetTlsValueENS0_7TlsSlotE
0000000000000000      DF *UND*	0000000000000000 _ZN2nn2os20GetCurrentCoreNumberEv
0000000000000000      DF *UND*	0000000000000000 memset
0000000000000000      DF *UND*	0000000000000000 _ZN2nn2os13GetSystemTickEv
0000000000000000      DF *UND*	0000000000000000 __cxa_pure_virtual
0000000000000000      DF *UND*	0000000000000000 asinf
0000000000000000      DF *UND*	0000000000000000 atan2f
0000000000000000      DF *UND*	0000000000000000 powf
0000000000000000      DF *UND*	0000000000000000 tanf
0000000000000000      DF *UND*	0000000000000000 strnlen
0000000000000000      DF *UND*	0000000000000000 quick_exit
0000000000000000      DF *UND*	0000000000000000 rand
0000000000000000      DF *UND*	0000000000000000 strcmp
0000000000000000      DF *UND*	0000000000000000 memcmp
0000000000000000      DF *UND*	0000000000000000 strlen
0000000000000000      DF *UND*	0000000000000000 exp2f
0000000000000000      DF *UND*	0000000000000000 pow
0000000000000000      DF *UND*	0000000000000000 _ZN2nn4time10InitializeEv
0000000000000000      DF *UND*	0000000000000000 _ZN2nn4time14GetSpanBetweenEPlRKNS0_20SteadyClockTimePointES4_
0000000000000000      DF *UND*	0000000000000000 _ZN2nn4time19StandardSteadyClock19GetCurrentTimePointEPNS0_20SteadyClockTimePointE
0000000000000000      DF *UND*	0000000000000000 _ZN2nn4time8FinalizeEv
0000000000000000      DF *UND*	0000000000000000 memmove
0000000000000000      DF *UND*	0000000000000000 atanf
0000000000000000      DF *UND*	0000000000000000 expf
0000000000000000      DF *UND*	0000000000000000 _ZN2nn3err40ShowUnacceptableAddOnContentVersionErrorEv
0000000000000000      DF *UND*	0000000000000000 _ZN2nn4diag18IsDebuggerAttachedEv
0000000000000000      DF *UND*	0000000000000000 _ZN2nn2oe10InitializeEv
0000000000000000      DF *UND*	0000000000000000 _ZN2nn2oe27SetPerformanceConfigurationENS0_15PerformanceModeEi
0000000000000000      DF *UND*	0000000000000000 _ZN2nn2os11GetHostArgcEv
0000000000000000      DF *UND*	0000000000000000 _ZN2nn2os11GetHostArgvEv
0000000000000000      DF *UND*	0000000000000000 _ZN2nn2os17SetMemoryHeapSizeEm
0000000000000000      DF *UND*	0000000000000000 _ZN2nn2os19AllocateMemoryBlockEPmm
0000000000000000      DF *UND*	0000000000000000 _ZN2nn2oe21TryPopLaunchParameterEPmPvm
0000000000000000      DF *UND*	0000000000000000 _ZN2nn2fs10DeleteFileEPKc
0000000000000000      DF *UND*	0000000000000000 _ZN2nn2fs26DeleteDirectoryRecursivelyEPKc
0000000000000000      DF *UND*	0000000000000000 _ZN2nn2oe31EnterExitRequestHandlingSectionEv
0000000000000000      DF *UND*	0000000000000000 _ZN2nn2oe31LeaveExitRequestHandlingSectionEv
0000000000000000      DF *UND*	0000000000000000 _ZN2nn4util12CompressGzipEPmPvmPKvmS2_m
0000000000000000      DF *UND*	0000000000000000 _ZN2nn4util14DecompressGzipEPvmPKvmS1_m
0000000000000000      DF *UND*	0000000000000000 _ZN2nn4util23GetGzipDecompressedSizeEPKvm
0000000000000000      DF *UND*	0000000000000000 sqrt
0000000000000000      DF *UND*	0000000000000000 _ZN2nn2oe24GetExpectedVolumeBalanceEPfS1_
0000000000000000      DF *UND*	0000000000000000 _ZN2nn2oe24SetExpectedVolumeBalanceEff
0000000000000000      DF *UND*	0000000000000000 _ZN2nn5swkbd10MakePresetEPNS0_14KeyboardConfigENS0_6PresetE
0000000000000000      DF *UND*	0000000000000000 _ZN2nn5swkbd12ShowKeyboardEPNS0_6StringERKNS0_15ShowKeyboardArgE
0000000000000000      DF *UND*	0000000000000000 _ZN2nn5swkbd25GetRequiredWorkBufferSizeEb
0000000000000000      DF *UND*	0000000000000000 _ZN2nn5swkbd27GetRequiredStringBufferSizeEv
0000000000000000      DF *UND*	0000000000000000 _ZN2nn5image11JpegDecoder12SetImageDataEPKvm
0000000000000000      DF *UND*	0000000000000000 _ZN2nn5image11JpegDecoder24SetResolutionDenominatorEi
0000000000000000      DF *UND*	0000000000000000 _ZN2nn5image11JpegDecoder6DecodeEPvmiS2_m
0000000000000000      DF *UND*	0000000000000000 _ZN2nn5image11JpegDecoder7AnalyzeEv
0000000000000000      DF *UND*	0000000000000000 _ZN2nn5image11JpegDecoderC1Ev
0000000000000000      DF *UND*	0000000000000000 _ZN2nn5image11JpegDecoderD1Ev
0000000000000000      DF *UND*	0000000000000000 _ZNK2nn5image11JpegDecoder20GetAnalyzedDimensionEv
0000000000000000      DF *UND*	0000000000000000 _ZNK2nn5image11JpegDecoder25GetAnalyzedWorkBufferSizeEv
0000000000000000      DF *UND*	0000000000000000 _ZN2nn5image11JpegEncoder10SetQualityEi
0000000000000000      DF *UND*	0000000000000000 _ZN2nn5image11JpegEncoder12SetPixelDataEPKvNS0_11PixelFormatERKNS0_9DimensionEi
0000000000000000      DF *UND*	0000000000000000 _ZN2nn5image11JpegEncoder6EncodeEPmPvmS3_mPNS0_11ExifBuilderE
0000000000000000      DF *UND*	0000000000000000 _ZN2nn5image11JpegEncoder7AnalyzeEv
0000000000000000      DF *UND*	0000000000000000 _ZN2nn5image11JpegEncoderC1Ev
0000000000000000      DF *UND*	0000000000000000 _ZN2nn5image11JpegEncoderD1Ev
0000000000000000      DF *UND*	0000000000000000 _ZNK2nn5image11JpegEncoder25GetAnalyzedWorkBufferSizeEv
0000000000000000      DF *UND*	0000000000000000 _ZN2nn2ec24ShowShopAddOnContentListENS_13ApplicationIdERKNS_7account10UserHandleE
0000000000000000      DF *UND*	0000000000000000 _ZN2nn2oe16GetOperationModeEv
0000000000000000      DF *UND*	0000000000000000 _ZN2nn2os15WaitSystemEventEPNS0_15SystemEventTypeE
0000000000000000      DF *UND*	0000000000000000 _ZN2nn2os18DestroySystemEventEPNS0_15SystemEventTypeE
0000000000000000      DF *UND*	0000000000000000 _ZN2nn4diag6detail9AbortImplEPKcS3_S3_i
0000000000000000      DF *UND*	0000000000000000 _ZN2nn4nifm10InitializeEv
0000000000000000      DF *UND*	0000000000000000 _ZN2nn4nifm18IsNetworkAvailableEv
0000000000000000      DF *UND*	0000000000000000 _ZN2nn4nifm20CancelNetworkRequestEv
0000000000000000      DF *UND*	0000000000000000 _ZN2nn4nifm20SubmitNetworkRequestEv
0000000000000000      DF *UND*	0000000000000000 _ZN2nn4nifm22IsNetworkRequestOnHoldEv
0000000000000000      DF *UND*	0000000000000000 _ZN2nn6socket10InitializeEPvmmi
0000000000000000      DF *UND*	0000000000000000 _ZN2nn6socket8FinalizeEv
0000000000000000      DF *UND*	0000000000000000 _ZN2nn7account12AsyncContext14GetSystemEventEPNS_2os11SystemEventE
0000000000000000      DF *UND*	0000000000000000 _ZN2nn7account12AsyncContext9GetResultEv
0000000000000000      DF *UND*	0000000000000000 _ZN2nn7account12AsyncContextC1Ev
0000000000000000      DF *UND*	0000000000000000 _ZN2nn7account12AsyncContextD1Ev
0000000000000000      DF *UND*	0000000000000000 _ZN2nn7account26GetNetworkServiceAccountIdEPNS0_23NetworkServiceAccountIdERKNS0_10UserHandleE
0000000000000000      DF *UND*	0000000000000000 _ZN2nn7account32IsNetworkServiceAccountAvailableEPbRKNS0_10UserHandleE
0000000000000000      DF *UND*	0000000000000000 _ZN2nn7account37LoadNetworkServiceAccountIdTokenCacheEPmPcmRKNS0_10UserHandleE
0000000000000000      DF *UND*	0000000000000000 _ZN2nn7account44EnsureNetworkServiceAccountIdTokenCacheAsyncEPNS0_12AsyncContextERKNS0_10UserHandleE
0000000000000000      DF *UND*	0000000000000000 _ZNKSt3__120__vector_base_commonILb1EE20__throw_length_errorEv
0000000000000000      DF *UND*	0000000000000000 _ZN2nn4util28GetCountryFromIso31661Alpha2EPNS0_7CountryEPKcm
0000000000000000      DF *UND*	0000000000000000 _ZN2nn7account25CachedNintendoAccountInfoC1Ev
0000000000000000      DF *UND*	0000000000000000 _ZN2nn7account29LoadCachedNintendoAccountInfoEPNS0_25CachedNintendoAccountInfoERKNS0_10UserHandleEPvm
0000000000000000      DF *UND*	0000000000000000 _ZNK2nn7account25CachedNintendoAccountInfo10GetCountryEPm
0000000000000000      DF *UND*	0000000000000000 _ZN2nn3mem17StandardAllocator10InitializeEPvm
0000000000000000      DF *UND*	0000000000000000 _ZN2nn3mem17StandardAllocator10ReallocateEPvm
0000000000000000      DF *UND*	0000000000000000 _ZN2nn3mem17StandardAllocator4FreeEPv
0000000000000000      DF *UND*	0000000000000000 _ZN2nn3mem17StandardAllocator8AllocateEm
0000000000000000      DF *UND*	0000000000000000 _ZN2nn3mem17StandardAllocator8AllocateEmm
0000000000000000      DF *UND*	0000000000000000 _ZN2nn3mem17StandardAllocatorC1Ev
0000000000000000      DF *UND*	0000000000000000 _ZNK2nn3mem17StandardAllocator9GetSizeOfEPKv
0000000000000000      DF *UND*	0000000000000000 __errno_location
0000000000000000      DF *UND*	0000000000000000 _ZN2nn6detail21UnexpectedDefaultImplEPKcS2_i
0000000000000000  w   D  *UND*	0000000000000000 glslcCompile
0000000000000000  w   D  *UND*	0000000000000000 glslcCompilePreSpecialized
0000000000000000  w   D  *UND*	0000000000000000 glslcCompileSpecialized
0000000000000000  w   D  *UND*	0000000000000000 glslcFinalize
0000000000000000  w   D  *UND*	0000000000000000 glslcGetDefaultOptions
0000000000000000  w   D  *UND*	0000000000000000 glslcGetVersion
0000000000000000  w   D  *UND*	0000000000000000 glslcInitialize
0000000000000000  w   D  *UND*	0000000000000000 glslcSetAllocator
0000000000000000      DF *UND*	0000000000000000 _ZN2nn4util27ConvertCharacterUtf8ToUtf32EPjPKc
0000000000000000      DF *UND*	0000000000000000 _ZN2nn4util30PickOutCharacterFromUtf8StringEPcPPKc
0000000000000000      DF *UND*	0000000000000000 _ZN2nn6fontll18ScalableFontEngine10GetAdvanceEPsS2_PiS3_jt
0000000000000000      DF *UND*	0000000000000000 _ZN2nn6fontll18ScalableFontEngine10GetKerningEPiS2_jj
0000000000000000      DF *UND*	0000000000000000 _ZN2nn6fontll18ScalableFontEngine10InitializeEPvj
0000000000000000      DF *UND*	0000000000000000 _ZN2nn6fontll18ScalableFontEngine11SetAutoHintEb
0000000000000000      DF *UND*	0000000000000000 _ZN2nn6fontll18ScalableFontEngine13ReleasesGlyphEPv
0000000000000000      DF *UND*	0000000000000000 _ZN2nn6fontll18ScalableFontEngine13SetBoldWeightEi
0000000000000000      DF *UND*	0000000000000000 _ZN2nn6fontll18ScalableFontEngine14GetFontMetricsEPNS0_7MetricsE
0000000000000000      DF *UND*	0000000000000000 _ZN2nn6fontll18ScalableFontEngine15AcquireGlyphmapEjt
0000000000000000      DF *UND*	0000000000000000 _ZN2nn6fontll18ScalableFontEngine15CheckGlyphExistEj
0000000000000000      DF *UND*	0000000000000000 _ZN2nn6fontll18ScalableFontEngine15SetOutlineWidthEt
0000000000000000      DF *UND*	0000000000000000 _ZN2nn6fontll18ScalableFontEngine17AcquireOtfKerningEPKNS0_15OtfKerningTableEjjj
0000000000000000      DF *UND*	0000000000000000 _ZN2nn6fontll18ScalableFontEngine21AcquireOtfKerningLastEPKNS0_15OtfKerningTableEjj
0000000000000000      DF *UND*	0000000000000000 _ZN2nn6fontll18ScalableFontEngine22AcquireOtfKerningFirstEPKNS0_15OtfKerningTableEjj
0000000000000000      DF *UND*	0000000000000000 _ZN2nn6fontll18ScalableFontEngine22GetPointerToWorkBufferEv
0000000000000000      DF *UND*	0000000000000000 _ZN2nn6fontll18ScalableFontEngine23FinalizeOtfKerningTableEPNS0_15OtfKerningTableEPFvPvS4_ES4_
0000000000000000      DF *UND*	0000000000000000 _ZN2nn6fontll18ScalableFontEngine25InitializeOtfKerningTableEPFPvmmS2_ES2_
0000000000000000      DF *UND*	0000000000000000 _ZN2nn6fontll18ScalableFontEngine7SetFontEPc
0000000000000000      DF *UND*	0000000000000000 _ZN2nn6fontll18ScalableFontEngine8FinalizeEv
0000000000000000      DF *UND*	0000000000000000 _ZN2nn6fontll18ScalableFontEngine8LoadFontEPcPKvjj
0000000000000000      DF *UND*	0000000000000000 _ZN2nn6fontll18ScalableFontEngine8SetFlagsENS1_5FlagsE
0000000000000000      DF *UND*	0000000000000000 _ZN2nn6fontll18ScalableFontEngine8SetScaleEiiii
0000000000000000      DF *UND*	0000000000000000 _ZN2nn6fontll18ScalableFontEngineC1Ev
0000000000000000      DF *UND*	0000000000000000 _ZN2nn6fontll24ScalableFontEngineHelper6DecodeEPKvj
0000000000000000      DO *UND*	0000000000000000 _ZTVN10__cxxabiv117__class_type_infoE
0000000000000000      DO *UND*	0000000000000000 _ZTVN10__cxxabiv120__si_class_type_infoE
0000000000000000      DF *UND*	0000000000000000 _ZN2nn4util8SNPrintfEPcmPKcz
0000000000000000      DO *UND*	0000000000000000 _ZN2nn4util6detail14FloatDegree180E
0000000000000000      DO *UND*	0000000000000000 _ZN2nn4util6detail17SinCosSampleTableE
0000000000000000      DO *UND*	0000000000000000 _ZN2nn4util6detail19AngleIndexHalfRoundE
0000000000000000      DF *UND*	0000000000000000 fmodf
0000000000000000      DF *UND*	0000000000000000 strstr
0000000000000000      DF *UND*	0000000000000000 _ZNK2nn4util16BinaryFileHeader12GetAlignmentEv
0000000000000000      DF *UND*	0000000000000000 strcpy
0000000000000000      DF *UND*	0000000000000000 _ZN2nn4util16BinaryFileHeader13GetFirstBlockEv
0000000000000000      DF *UND*	0000000000000000 _ZN2nn4util11ReferSymbolEPKv
0000000000000000      DF *UND*	0000000000000000 _ZN2nn4util15RelocationTable10UnrelocateEv
0000000000000000      DF *UND*	0000000000000000 _ZN2nn4util15RelocationTable8RelocateEv
0000000000000000      DF *UND*	0000000000000000 _ZN2nn4util16BinaryFileHeader18GetRelocationTableEv
0000000000000000      DF *UND*	0000000000000000 _ZNK2nn4util16BinaryFileHeader11IsRelocatedEv
0000000000000000      DF *UND*	0000000000000000 _ZNK2nn4util16BinaryFileHeader15IsEndianReverseEv
0000000000000000      DF *UND*	0000000000000000 _ZNK2nn4util16BinaryFileHeader7IsValidEliii
0000000000000000      DF *UND*	0000000000000000 strncmp
0000000000000000      DO *UND*	0000000000000000 _ZN2nn4util6detail15CosCoefficientsE
0000000000000000      DO *UND*	0000000000000000 _ZN2nn4util6detail15FloatPiDivided2E
0000000000000000      DO *UND*	0000000000000000 _ZN2nn4util6detail15SinCoefficientsE
0000000000000000      DO *UND*	0000000000000000 _ZN2nn4util6detail16Float1Divided2PiE
0000000000000000      DO *UND*	0000000000000000 _ZN2nn4util6detail7FloatPiE
0000000000000000      DO *UND*	0000000000000000 _ZN2nn4util6detail8Float2PiE
0000000000000000      DF *UND*	0000000000000000 _ZN2nn2os11UnlockMutexEPNS0_9MutexTypeE
0000000000000000      DF *UND*	0000000000000000 _ZN2nn2os13FinalizeMutexEPNS0_9MutexTypeE
0000000000000000      DF *UND*	0000000000000000 _ZN2nn2os15InitializeMutexEPNS0_9MutexTypeEbi
0000000000000000      DF *UND*	0000000000000000 _ZN2nn2os9LockMutexEPNS0_9MutexTypeE
0000000000000000      DF *UND*	0000000000000000 _ZN2nn4lmem15CreateFrameHeapEPvmi
0000000000000000      DF *UND*	0000000000000000 _ZN2nn4lmem16DestroyFrameHeapEPNS0_6detail8HeapHeadE
0000000000000000      DF *UND*	0000000000000000 _ZN2nn4lmem21AllocateFromFrameHeapEPNS0_6detail8HeapHeadEmi
0000000000000000      DO *UND*	0000000000000000 _ZN2nn4util6detail8FloatUlpE
0000000000000000      DO *UND*	0000000000000000 _ZN2nn4util7FloatPiE
0000000000000000      DF *UND*	0000000000000000 _ZN2nn4util16BinaryFileHeader12SetRelocatedEb
0000000000000000      DF *UND*	0000000000000000 _ZNK2nn4util16BinaryFileHeader16IsAlignmentValidEv
0000000000000000      DF *UND*	0000000000000000 _ZNK2nn4util16BinaryFileHeader16IsSignatureValidEl
0000000000000000      DF *UND*	0000000000000000 _ZNK2nn4util17BinaryBlockHeader12GetBlockSizeEv
0000000000000000      DF *UND*	0000000000000000 _ZN2nn2fs14CommitSaveDataEPKc
0000000000000000      DF *UND*	0000000000000000 _ZN2nn2fs22QueryMountRomCacheSizeEPm
0000000000000000      DF *UND*	0000000000000000 _ZN2nn2fs7UnmountEPKc
0000000000000000      DF *UND*	0000000000000000 _ZN2nn2fs8MountRomEPKcPvm
0000000000000000      DF *UND*	0000000000000000 _ZN2nn2vi10InitializeEv
0000000000000000      DF *UND*	0000000000000000 _ZN2nn2vi11CreateLayerEPPNS0_5LayerEPNS0_7DisplayE
0000000000000000      DF *UND*	0000000000000000 _ZN2nn2vi15GetNativeWindowEPPvPNS0_5LayerE
0000000000000000      DF *UND*	0000000000000000 _ZN2nn2vi18OpenDefaultDisplayEPPNS0_7DisplayE
0000000000000000      DF *UND*	0000000000000000 _ZN2nn2vi19SetLayerScalingModeEPNS0_5LayerENS0_11ScalingModeE
0000000000000000      DF *UND*	0000000000000000 _ZN2nn2vi20GetDisplayVsyncEventEPNS_2os15SystemEventTypeEPNS0_7DisplayE
0000000000000000      DF *UND*	0000000000000000 _ZN2nn3mem17StandardAllocatorC1EPvm
0000000000000000      DF *UND*	0000000000000000 _ZN2nv18InitializeGraphicsEPvm
0000000000000000      DF *UND*	0000000000000000 _ZN2nv20SetGraphicsAllocatorEPFPvmmS0_EPFvS0_S0_EPFS0_S0_mS0_ES0_
0000000000000000      DF *UND*	0000000000000000 _ZN2nv28SetGraphicsDevtoolsAllocatorEPFPvmmS0_EPFvS0_S0_EPFS0_S0_mS0_ES0_
0000000000000000      DF *UND*	0000000000000000 _ZNK2nn3mem17StandardAllocator16GetTotalFreeSizeEv
0000000000000000      DF *UND*	0000000000000000 nvnBootstrapLoader
0000000000000000      DF *UND*	0000000000000000 logf
0000000000000000      DF *UND*	0000000000000000 _ZN2nn2os13ConvertToTickENS_8TimeSpanE
0000000000000000      DF *UND*	0000000000000000 _ZN2nn2oe18GetDesiredLanguageEv
0000000000000000      DF *UND*	0000000000000000 _ZN2nn8settings12LanguageCode4MakeENS0_8LanguageE
0000000000000000      DF *UND*	0000000000000000 _ZN2nn8settingseqERKNS0_12LanguageCodeES3_
0000000000000000      DF *UND*	0000000000000000 _ZN2nn4util9VSNPrintfEPcmPKcSt9__va_list
0000000000000000      DF *UND*	0000000000000000 tolower
0000000000000000      DF *UND*	0000000000000000 sscanf
0000000000000000      DF *UND*	0000000000000000 _ZN2nn2os12TryLockMutexEPNS0_9MutexTypeE
0000000000000000      DF *UND*	0000000000000000 _ZN2nn2os10WaitThreadEPNS0_10ThreadTypeE
0000000000000000      DF *UND*	0000000000000000 _ZN2nn2os11GetThreadIdEPKNS0_10ThreadTypeE
0000000000000000      DF *UND*	0000000000000000 _ZN2nn2os11SetTlsValueENS0_7TlsSlotEm
0000000000000000      DF *UND*	0000000000000000 _ZN2nn2os11SleepThreadENS_8TimeSpanE
0000000000000000      DF *UND*	0000000000000000 _ZN2nn2os11StartThreadEPNS0_10ThreadTypeE
0000000000000000      DF *UND*	0000000000000000 _ZN2nn2os11YieldThreadEv
0000000000000000      DF *UND*	0000000000000000 _ZN2nn2os12CreateThreadEPNS0_10ThreadTypeEPFvPvES3_S3_mi
0000000000000000      DF *UND*	0000000000000000 _ZN2nn2os13DestroyThreadEPNS0_10ThreadTypeE
0000000000000000      DF *UND*	0000000000000000 _ZN2nn2os13SetThreadNameEPNS0_10ThreadTypeEPKc
0000000000000000      DF *UND*	0000000000000000 _ZN2nn2os16GetCurrentThreadEv
0000000000000000      DF *UND*	0000000000000000 _ZN2nn2os17ConvertToTimeSpanENS0_4TickE
0000000000000000      DF *UND*	0000000000000000 _ZN2nn2os17GetThreadPriorityEPKNS0_10ThreadTypeE
0000000000000000      DF *UND*	0000000000000000 _ZN2nn2os17SetThreadCoreMaskEPNS0_10ThreadTypeEim
0000000000000000      DF *UND*	0000000000000000 _ZN2nn2os19GetCurrentStackInfoEPmS1_
0000000000000000      DF *UND*	0000000000000000 _ZN2nn2os20ChangeThreadPriorityEPNS0_10ThreadTypeEi
0000000000000000      DF *UND*	0000000000000000 _ZN2nn2os26GetThreadAvailableCoreMaskEv
0000000000000000      DF *UND*	0000000000000000 _ZN2nn2os11FreeTlsSlotENS0_7TlsSlotE
0000000000000000      DF *UND*	0000000000000000 _ZN2nn2os15AllocateTlsSlotEPNS0_7TlsSlotEPFvmE
0000000000000000      DF *UND*	0000000000000000 cos
0000000000000000      DF *UND*	0000000000000000 sin
0000000000000000      DF *UND*	0000000000000000 _ZN2nn4time13IsInitializedEv
0000000000000000      DF *UND*	0000000000000000 _ZN2nn4time14ToCalendarTimeEPNS0_12CalendarTimeEPNS0_22CalendarAdditionalInfoERKNS0_9PosixTimeE
0000000000000000      DF *UND*	0000000000000000 _ZN2nn4time23StandardUserSystemClock14GetCurrentTimeEPNS0_9PosixTimeE
0000000000000000      DF *UND*	0000000000000000 _ZN2nn4time11ToPosixTimeEPiPNS0_9PosixTimeEiRKNS0_12CalendarTimeE
0000000000000000      DF *UND*	0000000000000000 _ZN2nn4time18ToPosixTimeFromUtcERKNS0_12CalendarTimeE
0000000000000000      DF *UND*	0000000000000000 _ZN2nn4time19ToCalendarTimeInUtcERKNS0_9PosixTimeE
0000000000000000      DF *UND*	0000000000000000 _ZN2nn2os22GetSystemTickFrequencyEv
0000000000000000      DF *UND*	0000000000000000 _ZN2nn4diag6detail7PutImplERKNS0_11LogMetaDataEPKcm
0000000000000000      DF *UND*	0000000000000000 _ZN2nn3hid13GetNpadStatesEPNS0_16NpadFullKeyStateEiRKj
0000000000000000      DF *UND*	0000000000000000 _ZN2nn3hid13GetNpadStatesEPNS0_16NpadJoyDualStateEiRKj
0000000000000000      DF *UND*	0000000000000000 _ZN2nn3hid13GetNpadStatesEPNS0_16NpadJoyLeftStateEiRKj
0000000000000000      DF *UND*	0000000000000000 _ZN2nn3hid13GetNpadStatesEPNS0_17NpadHandheldStateEiRKj
0000000000000000      DF *UND*	0000000000000000 _ZN2nn3hid13GetNpadStatesEPNS0_17NpadJoyRightStateEiRKj
0000000000000000      DF *UND*	0000000000000000 _ZN2nn3hid14DisconnectNpadERKj
0000000000000000      DF *UND*	0000000000000000 _ZN2nn3hid14InitializeNpadEv
0000000000000000      DF *UND*	0000000000000000 _ZN2nn3hid15GetNpadStyleSetERKj
0000000000000000      DF *UND*	0000000000000000 _ZN2nn3hid18SendVibrationValueERKNS0_21VibrationDeviceHandleERKNS0_14VibrationValueE
0000000000000000      DF *UND*	0000000000000000 _ZN2nn3hid18SetNpadJoyHoldTypeENS0_15NpadJoyHoldTypeE
0000000000000000      DF *UND*	0000000000000000 _ZN2nn3hid18StartSixAxisSensorERKNS0_19SixAxisSensorHandleE
0000000000000000      DF *UND*	0000000000000000 _ZN2nn3hid18SwapNpadAssignmentERKjS2_
0000000000000000      DF *UND*	0000000000000000 _ZN2nn3hid20GetNpadJoyAssignmentERKj
0000000000000000      DF *UND*	0000000000000000 _ZN2nn3hid22GetSixAxisSensorStatesEPNS0_18SixAxisSensorStateEiRKNS0_19SixAxisSensorHandleE
0000000000000000      DF *UND*	0000000000000000 _ZN2nn3hid22SetSupportedNpadIdTypeEPKjm
0000000000000000      DF *UND*	0000000000000000 _ZN2nn3hid23GetSixAxisSensorHandlesEPNS0_19SixAxisSensorHandleEiRKjNS_4util10BitFlagSetILi32ENS0_12NpadStyleTagEEE
0000000000000000      DF *UND*	0000000000000000 _ZN2nn3hid23MergeSingleJoyAsDualJoyERKjS2_
0000000000000000      DF *UND*	0000000000000000 _ZN2nn3hid24SetSupportedNpadStyleSetENS_4util10BitFlagSetILi32ENS0_12NpadStyleTagEEE
0000000000000000      DF *UND*	0000000000000000 _ZN2nn3hid25GetVibrationDeviceHandlesEPNS0_21VibrationDeviceHandleEiRKjNS_4util10BitFlagSetILi32ENS0_12NpadStyleTagEEE
0000000000000000      DF *UND*	0000000000000000 _ZN2nn3hid25InitializeVibrationDeviceERKNS0_21VibrationDeviceHandleE
0000000000000000      DF *UND*	0000000000000000 _ZN2nn3hid28SetNpadJoyAssignmentModeDualERKj
0000000000000000      DF *UND*	0000000000000000 _ZN2nn3hid30SetNpadJoyAssignmentModeSingleERKj
0000000000000000      DF *UND*	0000000000000000 _ZN2nn3hid30SetNpadJoyAssignmentModeSingleERKjNS0_17NpadJoyDeviceTypeE
0000000000000000      DF *UND*	0000000000000000 _ZN2nn2fs10CreateFileEPKcl
0000000000000000      DF *UND*	0000000000000000 _ZN2nn2fs11GetFileSizeEPlNS0_10FileHandleE
0000000000000000      DF *UND*	0000000000000000 _ZN2nn2fs11SetFileSizeENS0_10FileHandleEl
0000000000000000      DF *UND*	0000000000000000 _ZN2nn2fs12GetEntryTypeEPNS0_18DirectoryEntryTypeEPKc
0000000000000000      DF *UND*	0000000000000000 _ZN2nn2fs13OpenDirectoryEPNS0_15DirectoryHandleEPKci
0000000000000000      DF *UND*	0000000000000000 _ZN2nn2fs13ReadDirectoryEPlPNS0_14DirectoryEntryENS0_15DirectoryHandleEl
0000000000000000      DF *UND*	0000000000000000 _ZN2nn2fs14CloseDirectoryENS0_15DirectoryHandleE
0000000000000000      DF *UND*	0000000000000000 _ZN2nn2fs15CreateDirectoryEPKc
0000000000000000      DF *UND*	0000000000000000 _ZN2nn2fs8OpenFileEPNS0_10FileHandleEPKci
0000000000000000      DF *UND*	0000000000000000 _ZN2nn2fs8ReadFileEPmNS0_10FileHandleElPvmRKNS0_10ReadOptionE
0000000000000000      DF *UND*	0000000000000000 _ZN2nn2fs9CloseFileENS0_10FileHandleE
0000000000000000      DF *UND*	0000000000000000 _ZN2nn2fs9FlushFileENS0_10FileHandleE
0000000000000000      DF *UND*	0000000000000000 _ZN2nn2fs9WriteFileENS0_10FileHandleElPKvmRKNS0_11WriteOptionE
0000000000000000      DF *UND*	0000000000000000 _ZN2nn2os15FreeMemoryBlockEmm
0000000000000000      DF *UND*	0000000000000000 _ZN2nn2os15JamMessageQueueEPNS0_16MessageQueueTypeEm
0000000000000000      DF *UND*	0000000000000000 _ZN2nn2os16PeekMessageQueueEPmPKNS0_16MessageQueueTypeE
0000000000000000      DF *UND*	0000000000000000 _ZN2nn2os16SendMessageQueueEPNS0_16MessageQueueTypeEm
0000000000000000      DF *UND*	0000000000000000 _ZN2nn2os18TryJamMessageQueueEPNS0_16MessageQueueTypeEm
0000000000000000      DF *UND*	0000000000000000 _ZN2nn2os19ReceiveMessageQueueEPmPNS0_16MessageQueueTypeE
0000000000000000      DF *UND*	0000000000000000 _ZN2nn2os19TryPeekMessageQueueEPmPKNS0_16MessageQueueTypeE
0000000000000000      DF *UND*	0000000000000000 _ZN2nn2os19TrySendMessageQueueEPNS0_16MessageQueueTypeEm
0000000000000000      DF *UND*	0000000000000000 _ZN2nn2os20FinalizeMessageQueueEPNS0_16MessageQueueTypeE
0000000000000000      DF *UND*	0000000000000000 _ZN2nn2os22InitializeMessageQueueEPNS0_16MessageQueueTypeEPmm
0000000000000000      DF *UND*	0000000000000000 _ZN2nn2os22TryReceiveMessageQueueEPmPNS0_16MessageQueueTypeE
0000000000000000      DF *UND*	0000000000000000 _ZN2nn2os16AcquireSemaphoreEPNS0_13SemaphoreTypeE
0000000000000000      DF *UND*	0000000000000000 _ZN2nn2os16ReleaseSemaphoreEPNS0_13SemaphoreTypeE
0000000000000000      DF *UND*	0000000000000000 _ZN2nn2os17FinalizeSemaphoreEPNS0_13SemaphoreTypeE
0000000000000000      DF *UND*	0000000000000000 _ZN2nn2os19InitializeSemaphoreEPNS0_13SemaphoreTypeEii
0000000000000000      DF *UND*	0000000000000000 _ZN2nn2os19TryAcquireSemaphoreEPNS0_13SemaphoreTypeE
0000000000000000      DF *UND*	0000000000000000 exp
0000000000000000      DF *UND*	0000000000000000 strtod
0000000000000000      DF *UND*	0000000000000000 _ZN2nn5audio17AcquireMemoryPoolEPNS0_19AudioRendererConfigEPNS0_14MemoryPoolTypeEPvm
0000000000000000      DF *UND*	0000000000000000 _ZN2nn5audio17GetMemoryPoolSizeEPKNS0_14MemoryPoolTypeE
0000000000000000      DF *UND*	0000000000000000 _ZN2nn5audio17ReleaseMemoryPoolEPNS0_19AudioRendererConfigEPNS0_14MemoryPoolTypeE
0000000000000000      DF *UND*	0000000000000000 _ZN2nn5audio20GetMemoryPoolAddressEPKNS0_14MemoryPoolTypeE
0000000000000000      DF *UND*	0000000000000000 _ZN2nn5audio20IsMemoryPoolAttachedEPKNS0_14MemoryPoolTypeE
0000000000000000      DF *UND*	0000000000000000 _ZN2nn5audio23RequestAttachMemoryPoolEPNS0_14MemoryPoolTypeE
0000000000000000      DF *UND*	0000000000000000 _ZN2nn5audio23RequestDetachMemoryPoolEPNS0_14MemoryPoolTypeE
0000000000000000      DF *UND*	0000000000000000 _ZN2nn5audio19ListAudioDeviceNameEPNS0_15AudioDeviceNameEi
0000000000000000      DF *UND*	0000000000000000 _ZN2nn5audio26SetAudioDeviceOutputVolumeEPKNS0_15AudioDeviceNameEf
0000000000000000      DF *UND*	0000000000000000 log10f
0000000000000000      DF *UND*	0000000000000000 strncpy
0000000000000000      DF *UND*	0000000000000000 _ZNK2nn4util16BinaryFileHeader11GetFileSizeEv
0000000000000000      DF *UND*	0000000000000000 _ZN2nn4diag6detail18OnAssertionFailureENS0_13AssertionTypeEPKcS4_S4_i
0000000000000000      DF *UND*	0000000000000000 memchr
0000000000000000      DF *UND*	0000000000000000 sprintf
0000000000000000      DO *UND*	0000000000000000 stdout
0000000000000000      DF *UND*	0000000000000000 strtol
0000000000000000      DF *UND*	0000000000000000 strchr
0000000000000000      DF *UND*	0000000000000000 nnsocketGetLastErrno
0000000000000000      DF *UND*	0000000000000000 nnsocketPoll
0000000000000000      DF *UND*	0000000000000000 nnsocketSetLastErrno
0000000000000000      DF *UND*	0000000000000000 nnsocketRecv
0000000000000000      DF *UND*	0000000000000000 nnsocketSend
0000000000000000      DF *UND*	0000000000000000 strerror
0000000000000000      DF *UND*	0000000000000000 strrchr
0000000000000000      DF *UND*	0000000000000000 isxdigit
0000000000000000      DO *UND*	0000000000000000 stderr
0000000000000000      DO *UND*	0000000000000000 stdin
0000000000000000      DF *UND*	0000000000000000 strncat
0000000000000000      DF *UND*	0000000000000000 strpbrk
0000000000000000      DF *UND*	0000000000000000 strtoul
0000000000000000      DF *UND*	0000000000000000 fclose
0000000000000000      DF *UND*	0000000000000000 fopen
0000000000000000      DF *UND*	0000000000000000 fread
0000000000000000      DF *UND*	0000000000000000 fseek
0000000000000000      DF *UND*	0000000000000000 ftell
0000000000000000      DF *UND*	0000000000000000 nndetailDiagAbortFormatImpl
0000000000000000      DF *UND*	0000000000000000 strdup
0000000000000000      DF *UND*	0000000000000000 _ZN2nn3nsd9ResolveExEPNS0_4FqdnERKS1_
0000000000000000      DF *UND*	0000000000000000 _ZN2nn4nifm22GetCurrentProxySettingEPNS0_12ProxySettingE
0000000000000000      DF *UND*	0000000000000000 nnosConvertTickToNanoSeconds
0000000000000000      DF *UND*	0000000000000000 nnosGetSystemTick
0000000000000000      DF *UND*	0000000000000000 nnosGetSystemTickFrequency
0000000000000000      DF *UND*	0000000000000000 nnsocketGetHostByNameWithOptions
0000000000000000      DF *UND*	0000000000000000 nnResultIsFailure
0000000000000000      DF *UND*	0000000000000000 nnosCreateThread
0000000000000000      DF *UND*	0000000000000000 nnosDestroyThread
0000000000000000      DF *UND*	0000000000000000 nnosFinalizeEvent
0000000000000000      DF *UND*	0000000000000000 nnosFinalizeMutex
0000000000000000      DF *UND*	0000000000000000 nnosGetCurrentThread
0000000000000000      DF *UND*	0000000000000000 nnosGetThreadPriority
0000000000000000      DF *UND*	0000000000000000 nnosInitializeEvent
0000000000000000      DF *UND*	0000000000000000 nnosInitializeMutex
0000000000000000      DF *UND*	0000000000000000 nnosLockMutex
0000000000000000      DF *UND*	0000000000000000 nnosSetThreadNamePointer
0000000000000000      DF *UND*	0000000000000000 nnosSignalEvent
0000000000000000      DF *UND*	0000000000000000 nnosStartThread
0000000000000000      DF *UND*	0000000000000000 nnosUnlockMutex
0000000000000000      DF *UND*	0000000000000000 nnosWaitEvent
0000000000000000      DF *UND*	0000000000000000 nnosWaitThread
0000000000000000      DF *UND*	0000000000000000 nnosSleepThread
0000000000000000      DF *UND*	0000000000000000 nnsocketCancel
0000000000000000      DF *UND*	0000000000000000 nnsocketRequestCancelHandle
0000000000000000      DF *UND*	0000000000000000 nnsocketBind
0000000000000000      DF *UND*	0000000000000000 nnsocketClose
0000000000000000      DF *UND*	0000000000000000 nnsocketConnect
0000000000000000      DF *UND*	0000000000000000 nnsocketGetPeerName
0000000000000000      DF *UND*	0000000000000000 nnsocketGetSockName
0000000000000000      DF *UND*	0000000000000000 nnsocketGetSockOpt
0000000000000000      DF *UND*	0000000000000000 nnsocketInetHtons
0000000000000000      DF *UND*	0000000000000000 nnsocketInetNtohs
0000000000000000      DF *UND*	0000000000000000 nnsocketSetSockOpt
0000000000000000      DF *UND*	0000000000000000 nnsocketSocket
0000000000000000      DF *UND*	0000000000000000 qsort
0000000000000000      DF *UND*	0000000000000000 getenv
0000000000000000      DF *UND*	0000000000000000 nnsocketFcntl
0000000000000000      DF *UND*	0000000000000000 gmtime
0000000000000000      DF *UND*	0000000000000000 isalnum
0000000000000000      DF *UND*	0000000000000000 toupper
0000000000000000      DF *UND*	0000000000000000 nnResultGetDescription
0000000000000000      DF *UND*	0000000000000000 nnResultGetModule
0000000000000000      DF *UND*	0000000000000000 nnResultIsSuccess
0000000000000000      DF *UND*	0000000000000000 nnsslConnectionCreate
0000000000000000      DF *UND*	0000000000000000 nnsslConnectionDestroy
0000000000000000      DF *UND*	0000000000000000 nnsslConnectionDoHandshakeWithCertBuffer
0000000000000000      DF *UND*	0000000000000000 nnsslConnectionGetConnectionId
0000000000000000      DF *UND*	0000000000000000 nnsslConnectionGetVerifyCertError
0000000000000000      DF *UND*	0000000000000000 nnsslConnectionPeek
0000000000000000      DF *UND*	0000000000000000 nnsslConnectionPending
0000000000000000      DF *UND*	0000000000000000 nnsslConnectionRead
0000000000000000      DF *UND*	0000000000000000 nnsslConnectionSetHostName
0000000000000000      DF *UND*	0000000000000000 nnsslConnectionSetIoMode
0000000000000000      DF *UND*	0000000000000000 nnsslConnectionSetOption
0000000000000000      DF *UND*	0000000000000000 nnsslConnectionSetSessionCacheMode
0000000000000000      DF *UND*	0000000000000000 nnsslConnectionSetSocketDescriptor
0000000000000000      DF *UND*	0000000000000000 nnsslConnectionSetVerifyOption
0000000000000000      DF *UND*	0000000000000000 nnsslConnectionWrite
0000000000000000      DF *UND*	0000000000000000 nnsslContextDestroy
0000000000000000      DF *UND*	0000000000000000 nnsslContextGetContextId
0000000000000000      DF *UND*	0000000000000000 nnsslFinalize
0000000000000000      DF *UND*	0000000000000000 nnsslInitialize
0000000000000000      DF *UND*	0000000000000000 snprintf
0000000000000000      DF *UND*	0000000000000000 _ZN2nn2os12CreateThreadEPNS0_10ThreadTypeEPFvPvES3_S3_mii
0000000000000000      DF *UND*	0000000000000000 _ZN2nn2os19GenerateRandomBytesEPvm
0000000000000000      DF *UND*	0000000000000000 _ZN2nn2os21WaitConditionVariableEPNS0_21ConditionVariableTypeEPNS0_9MutexTypeE
0000000000000000      DF *UND*	0000000000000000 _ZN2nn2os23SignalConditionVariableEPNS0_21ConditionVariableTypeE
0000000000000000      DF *UND*	0000000000000000 _ZN2nn2os25FinalizeConditionVariableEPNS0_21ConditionVariableTypeE
0000000000000000      DF *UND*	0000000000000000 _ZN2nn2os26BroadcastConditionVariableEPNS0_21ConditionVariableTypeE
0000000000000000      DF *UND*	0000000000000000 _ZN2nn2os26TimedWaitConditionVariableEPNS0_21ConditionVariableTypeEPNS0_9MutexTypeENS_8TimeSpanE
0000000000000000      DF *UND*	0000000000000000 _ZN2nn2os27InitializeConditionVariableEPNS0_21ConditionVariableTypeE
0000000000000000      DF *UND*	0000000000000000 _ZN2nn3mem17StandardAllocator8FinalizeEv
0000000000000000      DF *UND*	0000000000000000 _ZN2nn4diag6detail7LogImplERKNS0_11LogMetaDataEPKcz
0000000000000000      DF *UND*	0000000000000000 _ZN2nn7account10InitializeEv
0000000000000000      DF *UND*	0000000000000000 _ZN2nn7account12ListAllUsersEPiPNS0_3UidEi
0000000000000000      DF *UND*	0000000000000000 _ZN2nn7account8OpenUserEPNS0_10UserHandleERKNS0_3UidE
0000000000000000      DF *UND*	0000000000000000 _ZN2nn7account9CloseUserERKNS0_10UserHandleE
0000000000000000      DF *UND*	0000000000000000 _ZNKSt3__120__vector_base_commonILb1EE20__throw_out_of_rangeEv
0000000000000000      DO *UND*	0000000000000000 _ZTVN10__cxxabiv121__vmi_class_type_infoE
0000000000000000      DF *UND*	0000000000000000 printf
0000000000000000      DF *UND*	0000000000000000 strcat
0000000000000000      DF *UND*	0000000000000000 strcspn
0000000000000000      DF *UND*	0000000000000000 strtoull
0000000000000000      DF *UND*	0000000000000000 swprintf
0000000000000000      DF *UND*	0000000000000000 vsnprintf
0000000000000000      DF *UND*	0000000000000000 wcslen
0000000000000000      DF *UND*	0000000000000000 _ZN2nn6crypto16GenerateSha1HashEPvmPKvm
0000000000000000      DF *UND*	0000000000000000 _ZN2nn6crypto6detail7Md5Impl10InitializeEv
0000000000000000      DF *UND*	0000000000000000 _ZN2nn6crypto6detail7Md5Impl6UpdateEPKvm
0000000000000000      DF *UND*	0000000000000000 _ZN2nn6crypto6detail7Md5Impl7GetHashEPvm
0000000000000000      DF *UND*	0000000000000000 _ZN2nn6crypto6detail8Sha1Impl10InitializeEv
0000000000000000      DF *UND*	0000000000000000 _ZN2nn6crypto6detail8Sha1Impl6UpdateEPKvm
0000000000000000      DF *UND*	0000000000000000 _ZN2nn6crypto6detail8Sha1Impl7GetHashEPvm
0000000000000000      DF *UND*	0000000000000000 strcasecmp
0000000000000000      DF *UND*	0000000000000000 _ZN2nn6socket9InetHtonlEj
0000000000000000      DF *UND*	0000000000000000 _ZN2nn6socket9InetNtohlEj
0000000000000000      DF *UND*	0000000000000000 bsearch
0000000000000000      DF *UND*	0000000000000000 abs
0000000000000000      DF *UND*	0000000000000000 atoi
0000000000000000      DF *UND*	0000000000000000 _ZN2nn2os20TimedWaitSystemEventEPNS0_15SystemEventTypeENS_8TimeSpanE
0000000000000000      DF *UND*	0000000000000000 _ZN2nn7account12AsyncContext6CancelEv
0000000000000000      DF *UND*	0000000000000000 _ZN2nn7account12AsyncContext7HasDoneEPb
0000000000000000      DF *UND*	0000000000000000 _ZN2nn7account19OpenPreselectedUserEPNS0_10UserHandleE
0000000000000000      DF *UND*	0000000000000000 _ZN2nn7account9GetUserIdEPNS0_3UidERKNS0_10UserHandleE
0000000000000000      DF *UND*	0000000000000000 _ZN2nn2fs17MountAddOnContentEPKciPvm
0000000000000000      DF *UND*	0000000000000000 _ZN2nn2fs31QueryMountAddOnContentCacheSizeEPmi
0000000000000000      DF *UND*	0000000000000000 _ZN2nn3aoc16ListAddOnContentEPiii
0000000000000000      DF *UND*	0000000000000000 fabsf
0000000000000000      DF *UND*	0000000000000000 _ZN2nn3hid21ShowControllerSupportERKNS0_20ControllerSupportArgE
0000000000000000      DF *UND*	0000000000000000 _ZN2nn3hid25SetGyroscopeZeroDriftModeERKNS0_19SixAxisSensorHandleERKNS0_22GyroscopeZeroDriftModeE
0000000000000000      DF *UND*	0000000000000000 _ZN2nn2oe17FinishStartupLogoEv
0000000000000000      DF *UND*	0000000000000000 _ZN2nn2oe18GetPerformanceModeEv
0000000000000000      DF *UND*	0000000000000000 _ZN2nn2oe25TryPopNotificationMessageEPj
0000000000000000      DF *UND*	0000000000000000 _ZN2nn2oe28SetResumeNotificationEnabledEb
0000000000000000      DF *UND*	0000000000000000 _ZN2nn2oe42SetOperationModeChangedNotificationEnabledEb
0000000000000000      DF *UND*	0000000000000000 _ZN2nn2oe44SetPerformanceModeChangedNotificationEnabledEb
0000000000000000      DF *UND*	0000000000000000 _ZN2nn2fs13MountSaveDataEPKcRKNS_7account3UidE
0000000000000000      DF *UND*	0000000000000000 _ZN2nn3nfp13StartRestorerEPNS0_12DeviceHandleERKNS0_24AmiiboSettingsStartParamERKNS0_7TagInfoE
0000000000000000      DF *UND*	0000000000000000 _ZN2nn3nfp10GetTagInfoEPNS0_7TagInfoERKNS0_12DeviceHandleE
0000000000000000      DF *UND*	0000000000000000 _ZN2nn3nfp10InitializeEv
0000000000000000      DF *UND*	0000000000000000 _ZN2nn3nfp11ListDevicesEPNS0_12DeviceHandleEPii
0000000000000000      DF *UND*	0000000000000000 _ZN2nn3nfp12GetModelInfoEPNS0_9ModelInfoERKNS0_12DeviceHandleE
0000000000000000      DF *UND*	0000000000000000 _ZN2nn3nfp13GetCommonInfoEPNS0_10CommonInfoERKNS0_12DeviceHandleE
0000000000000000      DF *UND*	0000000000000000 _ZN2nn3nfp13StopDetectionERKNS0_12DeviceHandleE
0000000000000000      DF *UND*	0000000000000000 _ZN2nn3nfp14GetDeviceStateERKNS0_12DeviceHandleE
0000000000000000      DF *UND*	0000000000000000 _ZN2nn3nfp14StartDetectionERKNS0_12DeviceHandleE
0000000000000000      DF *UND*	0000000000000000 _ZN2nn3nfp15GetRegisterInfoEPNS0_12RegisterInfoERKNS0_12DeviceHandleE
0000000000000000      DF *UND*	0000000000000000 _ZN2nn3nfp18GetApplicationAreaEPvPmRKNS0_12DeviceHandleEm
0000000000000000      DF *UND*	0000000000000000 _ZN2nn3nfp19AttachActivateEventEPNS_2os15SystemEventTypeERKNS0_12DeviceHandleE
0000000000000000      DF *UND*	0000000000000000 _ZN2nn3nfp19OpenApplicationAreaERKNS0_12DeviceHandleEj
0000000000000000      DF *UND*	0000000000000000 _ZN2nn3nfp21AttachDeactivateEventEPNS_2os15SystemEventTypeERKNS0_12DeviceHandleE
0000000000000000      DF *UND*	0000000000000000 _ZN2nn3nfp5MountERKNS0_12DeviceHandleENS0_9ModelTypeE
0000000000000000      DF *UND*	0000000000000000 _ZN2nn3nfp5MountERKNS0_12DeviceHandleENS0_9ModelTypeENS0_11MountTargetE
0000000000000000      DF *UND*	0000000000000000 _ZN2nn3nfp7UnmountERKNS0_12DeviceHandleE
0000000000000000      DF *UND*	0000000000000000 _ZN2nn3nfp8FinalizeEv
0000000000000000      DF *UND*	0000000000000000 _ZN2nn3nfp8GetStateEv
0000000000000000      DF *UND*	0000000000000000 _ZN2nn3nfp9GetNpadIdEPjRKNS0_12DeviceHandleE
0000000000000000      DF *UND*	0000000000000000 _ZN2nn5prepo10PlayReport10SetEventIdEPKc
0000000000000000      DF *UND*	0000000000000000 _ZN2nn5prepo10PlayReport3AddEPKcS3_
0000000000000000      DF *UND*	0000000000000000 _ZN2nn5prepo10PlayReport3AddEPKcd
0000000000000000      DF *UND*	0000000000000000 _ZN2nn5prepo10PlayReport3AddEPKcl
0000000000000000      DF *UND*	0000000000000000 _ZN2nn5prepo10PlayReport4SaveERKNS_7account3UidE
0000000000000000      DF *UND*	0000000000000000 _ZN2nn5prepo10PlayReport4SaveEv
0000000000000000      DF *UND*	0000000000000000 _ZN2nn5prepo10PlayReport9SetBufferEPvm
0000000000000000      DF *UND*	0000000000000000 _ZN2nn5prepo10PlayReportC1Ev
0000000000000000      DF *UND*	0000000000000000 _ZNK2nn5prepo10PlayReport8GetCountEv
0000000000000000      DF *UND*	0000000000000000 _ZN2nn5prepo28RequestImmediateTransmissionEv
0000000000000000      DF *UND*	0000000000000000 _ZN2nn4util6ResDic5BuildEv
0000000000000000      DF *UND*	0000000000000000 _ZN2nn2pl17GetSharedFontSizeENS0_14SharedFontTypeE
0000000000000000      DF *UND*	0000000000000000 _ZN2nn2pl20GetSharedFontAddressENS0_14SharedFontTypeE
0000000000000000      DF *UND*	0000000000000000 _ZN2nn2pl21RequestSharedFontLoadENS0_14SharedFontTypeE
0000000000000000      DF *UND*	0000000000000000 _ZN2nn2pl22GetSharedFontLoadStateENS0_14SharedFontTypeE
0000000000000000      DF *UND*	0000000000000000 _ZN2nn3err9ShowErrorENS_6ResultE
0000000000000000      DF *UND*	0000000000000000 _ZN2nn2oe38SetUserInactivityDetectionTimeExtendedEb
0000000000000000      DF *UND*	0000000000000000 _ZN2nn2os18TryWaitSystemEventEPNS0_15SystemEventTypeE
0000000000000000      DF *UND*	0000000000000000 _ZN2nn5audio21GetActiveChannelCountEv
0000000000000000      DF *UND*	0000000000000000 _ZN2nn5audio36AcquireAudioDeviceSwitchNotificationEPNS_2os11SystemEventE
0000000000000000      DO *UND*	0000000000000000 _ZN2nn4util6detail16AtanCoefficientsE
0000000000000000      DF *UND*	0000000000000000 _ZN2nn2os10ClearEventEPNS0_9EventTypeE
0000000000000000      DF *UND*	0000000000000000 _ZN2nn2os11SignalEventEPNS0_9EventTypeE
0000000000000000      DF *UND*	0000000000000000 _ZN2nn2os13FinalizeEventEPNS0_9EventTypeE
0000000000000000      DF *UND*	0000000000000000 _ZN2nn2os15InitializeEventEPNS0_9EventTypeEbNS0_14EventClearModeE
0000000000000000      DF *UND*	0000000000000000 _ZN2nn2os17FinalizeMultiWaitEPNS0_13MultiWaitTypeE
0000000000000000      DF *UND*	0000000000000000 _ZN2nn2os19InitializeMultiWaitEPNS0_13MultiWaitTypeE
0000000000000000      DF *UND*	0000000000000000 _ZN2nn2os19LinkMultiWaitHolderEPNS0_13MultiWaitTypeEPNS0_19MultiWaitHolderTypeE
0000000000000000      DF *UND*	0000000000000000 _ZN2nn2os21UnlinkMultiWaitHolderEPNS0_19MultiWaitHolderTypeE
0000000000000000      DF *UND*	0000000000000000 _ZN2nn2os23FinalizeMultiWaitHolderEPNS0_19MultiWaitHolderTypeE
0000000000000000      DF *UND*	0000000000000000 _ZN2nn2os25InitializeMultiWaitHolderEPNS0_19MultiWaitHolderTypeEPNS0_9EventTypeE
0000000000000000      DF *UND*	0000000000000000 _ZN2nn2os7WaitAnyEPNS0_13MultiWaitTypeE
0000000000000000      DF *UND*	0000000000000000 _ZN5movie12SetAllocatorEPFPvmmS0_EPFvS0_S0_EPFS0_S0_mS0_ES0_
0000000000000000      DF *UND*	0000000000000000 _ZN5movie6BufferC1Ev
0000000000000000      DF *UND*	0000000000000000 _ZN5movie6BufferD1Ev
0000000000000000      DF *UND*	0000000000000000 _ZN5movie7DecoderC1ENS_11DecoderTypeENS_19DecoderOutputFormatENS_11DecoderModeE
0000000000000000      DF *UND*	0000000000000000 _ZN5movie9ExtractorC1ENS_13ContainerTypeE
0000000000000000      DF *UND*	0000000000000000 _ZN5movie9MediaData5ClearEv
0000000000000000      DF *UND*	0000000000000000 _ZN5movie9MediaDataC1Ev
0000000000000000      DF *UND*	0000000000000000 _ZN5movie9MediaDataD1Ev
0000000000000000      DF *UND*	0000000000000000 _ZNK5movie6Buffer4SizeEv
0000000000000000      DF *UND*	0000000000000000 _ZNK5movie6Buffer6OffsetEv
0000000000000000      DF *UND*	0000000000000000 _ZNK5movie9MediaData10FindStringEPKcPS2_
0000000000000000      DF *UND*	0000000000000000 _ZNK5movie9MediaData8FindRectEPKcPiS3_S3_S3_
0000000000000000      DF *UND*	0000000000000000 _ZNK5movie9MediaData9FindInt32EPKcPi
0000000000000000      DF *UND*	0000000000000000 strncasecmp
0000000000000000      DF *UND*	0000000000000000 _ZN5movie6Buffer18SetDataAndCapacityEPvm
0000000000000000      DF *UND*	0000000000000000 _ZN5movie6Buffer8SetRangeEii
0000000000000000      DF *UND*	0000000000000000 _ZN2nn2os17GetThreadCoreMaskEPiPmPKNS0_10ThreadTypeE
0000000000000000      DF *UND*	0000000000000000 _ZN2nn2os20SetThreadNamePointerEPNS0_10ThreadTypeEPKc
0000000000000000      DF *UND*	0000000000000000 _ZNK2nn4util16BinaryFileHeader13GetFirstBlockEv
0000000000000000      DF *UND*	0000000000000000 _ZNSt3__112basic_stringIcNS_11char_traitsIcEENS_9allocatorIcEEE6assignEPKcm
0000000000000000      DF *UND*	0000000000000000 _ZN2nn4util30ConvertStringUtf16NativeToUtf8EPciPKti
0000000000000000      DF *UND*	0000000000000000 _ZN2nn4util30ConvertStringUtf8ToUtf16NativeEPtiPKci
0000000000000000      DO *UND*	0000000000000000 _ZN2nn4util6detail22FloatQuaternionEpsilonE
0000000000000000      DF *UND*	0000000000000000 _ZN2nn5audio22ReadCircularBufferSinkEPNS0_22CircularBufferSinkTypeEPvm
0000000000000000      DF *UND*	0000000000000000 _ZN2nn4diag6detail9AbortImplEPKcS3_S3_iPKNS_6ResultES3_z
0000000000000000      DF *UND*	0000000000000000 _ZN2nn5audio13AcquireSubMixEPNS0_19AudioRendererConfigEPNS0_10SubMixTypeEii
0000000000000000      DF *UND*	0000000000000000 _ZN2nn5audio13AddDeviceSinkEPNS0_19AudioRendererConfigEPNS0_14DeviceSinkTypeEPNS0_12FinalMixTypeEPKaiPKc
0000000000000000      DF *UND*	0000000000000000 _ZN2nn5audio15AcquireFinalMixEPNS0_19AudioRendererConfigEPNS0_12FinalMixTypeEi
0000000000000000      DF *UND*	0000000000000000 _ZN2nn5audio17OpenAudioRendererEPNS0_19AudioRendererHandleEPNS_2os11SystemEventERKNS0_22AudioRendererParameterEPvm
0000000000000000      DF *UND*	0000000000000000 _ZN2nn5audio17StopAudioRendererENS0_19AudioRendererHandleE
0000000000000000      DF *UND*	0000000000000000 _ZN2nn5audio18CloseAudioRendererENS0_19AudioRendererHandleE
0000000000000000      DF *UND*	0000000000000000 _ZN2nn5audio18GetMemoryPoolStateEPKNS0_14MemoryPoolTypeE
0000000000000000      DF *UND*	0000000000000000 _ZN2nn5audio18SetSubMixMixVolumeEPNS0_10SubMixTypeEPNS0_12FinalMixTypeEfii
0000000000000000      DF *UND*	0000000000000000 _ZN2nn5audio18SetSubMixMixVolumeEPNS0_10SubMixTypeES2_fii
0000000000000000      DF *UND*	0000000000000000 _ZN2nn5audio18StartAudioRendererENS0_19AudioRendererHandleE
0000000000000000      DF *UND*	0000000000000000 _ZN2nn5audio20SetSubMixDestinationEPNS0_19AudioRendererConfigEPNS0_10SubMixTypeEPNS0_12FinalMixTypeE
0000000000000000      DF *UND*	0000000000000000 _ZN2nn5audio20SetSubMixDestinationEPNS0_19AudioRendererConfigEPNS0_10SubMixTypeES4_
0000000000000000      DF *UND*	0000000000000000 _ZN2nn5audio21AddCircularBufferSinkEPNS0_19AudioRendererConfigEPNS0_22CircularBufferSinkTypeEPNS0_12FinalMixTypeEPKaiPvmNS0_12SampleFormatE
0000000000000000      DF *UND*	0000000000000000 _ZN2nn5audio26RequestUpdateAudioRendererENS0_19AudioRendererHandleEPKNS0_19AudioRendererConfigE
0000000000000000      DF *UND*	0000000000000000 _ZN2nn5audio29InitializeAudioRendererConfigEPNS0_19AudioRendererConfigERKNS0_22AudioRendererParameterEPvm
0000000000000000      DF *UND*	0000000000000000 _ZN2nn5audio29IsValidAudioRendererParameterERKNS0_22AudioRendererParameterE
0000000000000000      DF *UND*	0000000000000000 _ZN2nn5audio30GetAudioRendererWorkBufferSizeERKNS0_22AudioRendererParameterE
0000000000000000      DF *UND*	0000000000000000 _ZN2nn5audio32InitializeAudioRendererParameterEPNS0_22AudioRendererParameterE
0000000000000000      DF *UND*	0000000000000000 _ZN2nn5audio34GetAudioRendererRenderingTimeLimitENS0_19AudioRendererHandleE
0000000000000000      DF *UND*	0000000000000000 _ZN2nn5audio34SetAudioRendererRenderingTimeLimitENS0_19AudioRendererHandleEi
0000000000000000      DF *UND*	0000000000000000 _ZN2nn5audio36GetAudioRendererConfigWorkBufferSizeERKNS0_22AudioRendererParameterE
0000000000000000      DF *UND*	0000000000000000 _ZN2nn5audio41GetRequiredBufferSizeForPerformanceFramesERKNS0_22AudioRendererParameterE
0000000000000000      DF *UND*	0000000000000000 _ZN2nn5audio42GetRequiredBufferSizeForCircularBufferSinkEPKNS0_22AudioRendererParameterEiiNS0_12SampleFormatE
0000000000000000      DF *UND*	0000000000000000 _ZN2nn2os12TryWaitEventEPNS0_9EventTypeE
0000000000000000      DF *UND*	0000000000000000 _ZN2nn2os9WaitEventEPNS0_9EventTypeE
0000000000000000      DF *UND*	0000000000000000 _ZN2nn5audio13GetSinkNodeIdEPKNS0_14DeviceSinkTypeE
0000000000000000      DF *UND*	0000000000000000 _ZN2nn5audio13GetSinkNodeIdEPKNS0_22CircularBufferSinkTypeE
0000000000000000      DF *UND*	0000000000000000 _ZN2nn5audio15GetSubMixNodeIdEPKNS0_10SubMixTypeE
0000000000000000      DF *UND*	0000000000000000 _ZN2nn5audio15PerformanceInfo10GetEntriesEPi
0000000000000000      DF *UND*	0000000000000000 _ZN2nn5audio15PerformanceInfo15MoveToNextFrameEv
0000000000000000      DF *UND*	0000000000000000 _ZN2nn5audio15PerformanceInfo22GetTotalProcessingTimeEv
0000000000000000      DF *UND*	0000000000000000 _ZN2nn5audio15PerformanceInfo9SetBufferEPKvm
0000000000000000      DF *UND*	0000000000000000 _ZN2nn5audio15PerformanceInfoC1Ev
0000000000000000      DF *UND*	0000000000000000 _ZN2nn5audio15PerformanceInfoD1Ev
0000000000000000      DF *UND*	0000000000000000 _ZN2nn5audio25SetPerformanceFrameBufferEPNS0_19AudioRendererConfigEPvm
0000000000000000      DF *UND*	0000000000000000 _ZN2nn5audio12IsVoiceValidEPKNS0_9VoiceTypeE
0000000000000000      DF *UND*	0000000000000000 _ZN2nn5audio13SetVoicePitchEPNS0_9VoiceTypeEf
0000000000000000      DF *UND*	0000000000000000 _ZN2nn5audio14GetVoiceNodeIdEPKNS0_9VoiceTypeE
0000000000000000      DF *UND*	0000000000000000 _ZN2nn5audio14SetVoiceVolumeEPNS0_9VoiceTypeEf
0000000000000000      DF *UND*	0000000000000000 _ZN2nn5audio16AcquireVoiceSlotEPNS0_19AudioRendererConfigEPNS0_9VoiceTypeEiiNS0_12SampleFormatEiPKvm
0000000000000000      DF *UND*	0000000000000000 _ZN2nn5audio16AppendWaveBufferEPNS0_9VoiceTypeEPKNS0_10WaveBufferE
0000000000000000      DF *UND*	0000000000000000 _ZN2nn5audio16ReleaseVoiceSlotEPNS0_19AudioRendererConfigEPNS0_9VoiceTypeE
0000000000000000      DF *UND*	0000000000000000 _ZN2nn5audio16SetVoicePriorityEPNS0_9VoiceTypeEi
0000000000000000      DF *UND*	0000000000000000 _ZN2nn5audio17GetVoicePlayStateEPKNS0_9VoiceTypeE
0000000000000000      DF *UND*	0000000000000000 _ZN2nn5audio17SetVoiceMixVolumeEPNS0_9VoiceTypeEPNS0_10SubMixTypeEfii
0000000000000000      DF *UND*	0000000000000000 _ZN2nn5audio17SetVoiceMixVolumeEPNS0_9VoiceTypeEPNS0_12FinalMixTypeEfii
0000000000000000      DF *UND*	0000000000000000 _ZN2nn5audio17SetVoicePlayStateEPNS0_9VoiceTypeENS1_9PlayStateE
0000000000000000      DF *UND*	0000000000000000 _ZN2nn5audio19SetVoiceDestinationEPNS0_19AudioRendererConfigEPNS0_9VoiceTypeEPNS0_10SubMixTypeE
0000000000000000      DF *UND*	0000000000000000 _ZN2nn5audio19SetVoiceDestinationEPNS0_19AudioRendererConfigEPNS0_9VoiceTypeEPNS0_12FinalMixTypeE
0000000000000000      DF *UND*	0000000000000000 _ZN2nn5audio20IsVoiceDroppedFlagOnEPKNS0_9VoiceTypeE
0000000000000000      DF *UND*	0000000000000000 _ZN2nn5audio21GetReleasedWaveBufferEPNS0_9VoiceTypeE
0000000000000000      DF *UND*	0000000000000000 _ZN2nn5audio25GetVoicePlayedSampleCountEPKNS0_9VoiceTypeE
0000000000000000      DF *UND*	0000000000000000 _ZN2nn5audio29SetVoiceBiquadFilterParameterEPNS0_9VoiceTypeEiRKNS0_21BiquadFilterParameterE
0000000000000000      DF *UND*	0000000000000000 _ZN2nn5audio13SetAuxEnabledEPNS0_7AuxTypeEb
0000000000000000      DF *UND*	0000000000000000 _ZN2nn5audio14IsAuxRemovableEPKNS0_7AuxTypeE
0000000000000000      DF *UND*	0000000000000000 _ZN2nn5audio16GetAuxSampleRateEPKNS0_7AuxTypeE
0000000000000000      DF *UND*	0000000000000000 _ZN2nn5audio17GetAuxSampleCountEPKNS0_7AuxTypeE
0000000000000000      DF *UND*	0000000000000000 _ZN2nn5audio17ReadAuxSendBufferEPNS0_7AuxTypeEPii
0000000000000000      DF *UND*	0000000000000000 _ZN2nn5audio17SetAuxInputOutputEPNS0_7AuxTypeEPKaS4_i
0000000000000000      DF *UND*	0000000000000000 _ZN2nn5audio20WriteAuxReturnBufferEPNS0_7AuxTypeEPKii
0000000000000000      DF *UND*	0000000000000000 _ZN2nn5audio43GetRequiredBufferSizeForAuxSendReturnBufferEPKNS0_22AudioRendererParameterEii
0000000000000000      DF *UND*	0000000000000000 _ZN2nn5audio6AddAuxEPNS0_19AudioRendererConfigEPNS0_7AuxTypeEPNS0_10SubMixTypeEPvS7_m
0000000000000000      DF *UND*	0000000000000000 _ZN2nn5audio6AddAuxEPNS0_19AudioRendererConfigEPNS0_7AuxTypeEPNS0_12FinalMixTypeEPvS7_m
0000000000000000      DF *UND*	0000000000000000 _ZN2nn5audio9RemoveAuxEPNS0_19AudioRendererConfigEPNS0_7AuxTypeEPNS0_10SubMixTypeE
0000000000000000      DF *UND*	0000000000000000 _ZN2nn5audio9RemoveAuxEPNS0_19AudioRendererConfigEPNS0_7AuxTypeEPNS0_12FinalMixTypeE
0000000000000000      DF *UND*	0000000000000000 _ZN2nn2fs8ReadFileEPmNS0_10FileHandleElPvm
0000000000000000      DF *UND*	0000000000000000 _ZN2nn2os23SetUserExceptionHandlerEPFvPNS0_17UserExceptionInfoEEPvmS2_
0000000000000000      DF *UND*	0000000000000000 _ZN2nn4diag12GetBacktraceEPmi
0000000000000000      DF *UND*	0000000000000000 _ZN2nn4diag21RegisterAbortObserverEPNS0_19AbortObserverHolderE
0000000000000000      DF *UND*	0000000000000000 _ZN2nn4diag29InitializeAbortObserverHolderEPNS0_19AbortObserverHolderEPFvRKNS0_9AbortInfoEE
0000000000000000      DF *UND*	0000000000000000 _ZN2nn4diag13GetSymbolNameEPcmm
0000000000000000      DF *UND*	0000000000000000 _ZN2nn4diag13GetSymbolSizeEm
0000000000000000      DF *UND*	0000000000000000 _ZN2nn2os14WaitLightEventEPNS0_14LightEventTypeE
0000000000000000      DF *UND*	0000000000000000 _ZN2nn2os15ClearLightEventEPNS0_14LightEventTypeE
0000000000000000      DF *UND*	0000000000000000 _ZN2nn2os16SignalLightEventEPNS0_14LightEventTypeE
0000000000000000      DF *UND*	0000000000000000 _ZN2nn2os18FinalizeLightEventEPNS0_14LightEventTypeE
0000000000000000      DF *UND*	0000000000000000 _ZN2nn2os19TimedWaitLightEventEPNS0_14LightEventTypeENS_8TimeSpanE
0000000000000000      DF *UND*	0000000000000000 _ZN2nn2os20InitializeLightEventEPNS0_14LightEventTypeEbNS0_14EventClearModeE
0000000000000000      DF *UND*	0000000000000000 _ZN2nn2os15GetCurrentFiberEv
0000000000000000      DF *UND*	0000000000000000 _ZN2nn2os20GetThreadNamePointerEPKNS0_10ThreadTypeE
0000000000000000      DF *UND*	0000000000000000 _ZN2nn4diag16GetAllModuleInfoEPPNS0_10ModuleInfoEPvm
0000000000000000      DF *UND*	0000000000000000 _ZN2nn4diag40GetRequiredBufferSizeForGetAllModuleInfoEv
0000000000000000      DF *UND*	0000000000000000 memalign
0000000000000000      DF *UND*	0000000000000000 _ZN2nn2os16ReleaseSemaphoreEPNS0_13SemaphoreTypeEi
0000000000000000      DF *UND*	0000000000000000 strtoll
0000000000000000      DF *UND*	0000000000000000 vsprintf
0000000000000000      DF *UND*	0000000000000000 _ZN2nn6socket10SetSockOptEiiiPKvj
0000000000000000      DF *UND*	0000000000000000 _ZN2nn6socket11GetAddrInfoEPKcS2_PK8addrinfoPPS3_
0000000000000000      DF *UND*	0000000000000000 _ZN2nn6socket11GetSockNameEiP8sockaddrPj
0000000000000000      DF *UND*	0000000000000000 _ZN2nn6socket12FreeAddrInfoEP8addrinfo
0000000000000000      DF *UND*	0000000000000000 _ZN2nn6socket4BindEiPK8sockaddrj
0000000000000000      DF *UND*	0000000000000000 _ZN2nn6socket4RecvEiPvmi
0000000000000000      DF *UND*	0000000000000000 _ZN2nn6socket4SendEiPKvmi
0000000000000000      DF *UND*	0000000000000000 _ZN2nn6socket5CloseEi
0000000000000000      DF *UND*	0000000000000000 _ZN2nn6socket6AcceptEiP8sockaddrPj
0000000000000000      DF *UND*	0000000000000000 _ZN2nn6socket6ListenEii
0000000000000000      DF *UND*	0000000000000000 _ZN2nn6socket6SelectEiP6fd_setS2_S2_P7timeval
0000000000000000      DF *UND*	0000000000000000 _ZN2nn6socket6SocketEiii
0000000000000000      DF *UND*	0000000000000000 _ZN2nn6socket7ConnectEiPK8sockaddrj
0000000000000000      DF *UND*	0000000000000000 _ZN2nn6socket8InetAtonEPKcP7in_addr
0000000000000000      DF *UND*	0000000000000000 _ZN2nn6socket8InetNtopEiPKvPcj
0000000000000000      DF *UND*	0000000000000000 _ZN2nn6socket9InetHtonsEt
0000000000000000      DF *UND*	0000000000000000 _ZN2nn6socket9InetNtohsEt
0000000000000000      DF *UND*	0000000000000000 acos
0000000000000000      DF *UND*	0000000000000000 _ZN2nn4time26StandardNetworkSystemClock14GetCurrentTimeEPNS0_9PosixTimeE
0000000000000000      DF *UND*	0000000000000000 _ZN2nn6socket10GetSockOptEiiiPvPj
0000000000000000      DF *UND*	0000000000000000 _ZN2nn6socket11GetPeerNameEiP8sockaddrPj
0000000000000000      DF *UND*	0000000000000000 _ZN2nn6socket12GetLastErrnoEv
0000000000000000      DF *UND*	0000000000000000 _ZN2nn6socket4PollEP6pollfdmi
0000000000000000      DF *UND*	0000000000000000 _ZN2nn6socket5FcntlEiiz
0000000000000000      DF *UND*	0000000000000000 _ZN2nn6socket6SendToEiPKvmiPK8sockaddrj
0000000000000000      DF *UND*	0000000000000000 _ZN2nn6socket8InetNtoaE7in_addr
0000000000000000      DF *UND*	0000000000000000 _ZN2nn6socket8InetPtonEiPKcPv
0000000000000000      DF *UND*	0000000000000000 _ZN2nn6socket8RecvFromEiPvmiP8sockaddrPj
0000000000000000      DF *UND*	0000000000000000 _ZN2nn6socket8ShutdownEii
0000000000000000      DF *UND*	0000000000000000 _ZN2nn3ssl10InitializeEv
0000000000000000      DF *UND*	0000000000000000 _ZN2nn3ssl8FinalizeEv
0000000000000000      DF *UND*	0000000000000000 _ZN2nn4nifm19SetLocalNetworkModeEb
0000000000000000      DF *UND*	0000000000000000 _ZN2nn4nifm26GetCurrentPrimaryIpAddressEP7in_addr
0000000000000000      DF *UND*	0000000000000000 _ZN2nn4nifm27SubmitNetworkRequestAndWaitEv
0000000000000000      DF *UND*	0000000000000000 _ZNK2nn3mem17StandardAllocator4DumpEv
0000000000000000      DF *UND*	0000000000000000 _ZN2nn3ssl7Context15ImportServerPkiEPmPKcjNS0_17CertificateFormatE
0000000000000000      DF *UND*	0000000000000000 _ZN2nn3ssl7Context6CreateENS1_10SslVersionE
0000000000000000      DF *UND*	0000000000000000 clock
0000000000000000      DF *UND*	0000000000000000 time
0000000000000160 g    DF .text	0000000000000034 .protected _fini
0000000000aeefe8 g    DF .text	0000000000000060 _Znam
0000000000000024 g    DF .text	000000000000013c .protected _init
0000000000aef41c g    DF .text	0000000000000064 _ZdaPv
0000000000aef0a8 g    DF .text	0000000000000060 _ZnamRKSt9nothrow_t
0000000000aacf14 g    DF .text	000000000000001c free
0000000000aef4e4 g    DF .text	0000000000000064 _ZdaPvRKSt9nothrow_t
0000000000aef048 g    DF .text	0000000000000060 _ZnwmRKSt9nothrow_t
0000000000aacfa8 g    DF .text	0000000000000060 realloc
00000000000001b0 g    DF .text	0000000000000004 __nnDetailNintendoSdkRuntimeObjectFile
0000000000a8e304  w   DF .text	00000000000001ac _ZNSt3__127__tree_balance_after_insertIPNS_16__tree_node_baseIPvEEEEvT_S5_
00000000000001ac g    DF .text	0000000000000004 __nnDetailNintendoSdkRuntimeObjectFileRefer
0000000000aacf30 g    DF .text	0000000000000078 calloc
00000000007d5fac g    DF .text	0000000000000038 nninitStartup
0000000000aef480 g    DF .text	0000000000000064 _ZdlPvRKSt9nothrow_t
0000000000aad008 g    DF .text	0000000000000058 aligned_alloc
0000000001322c54  w   DF .text	0000000000000004 _ZN2nn2os5MutexD2Ev
0000000000c9de54 g    DF .text	00000000000000d4 nnnifmGetCurrentProxySetting
00000000007d5fe4 g    DF .text	00000000000003f8 nnMain
0000000000aef3b8 g    DF .text	0000000000000064 _ZdlPv
0000000000aeef88 g    DF .text	0000000000000060 _Znwm
00000000026ab000 g    D  *ABS*	0000000000000000 end
0000000000aacebc g    DF .text	0000000000000058 malloc


