
exefs150/sdk_decompress.elf:     file format elf64-little

DYNAMIC SYMBOL TABLE:
0000000000000000      D  *UND*	0000000000000000 __nnDetailNintendoSdkRuntimeObjectFile
0000000000000000  w   D  *UND*	0000000000000000 __rel_dyn_end
0000000000000000  w   D  *UND*	0000000000000000 __rel_dyn_start
0000000000000000  w   D  *UND*	0000000000000000 __rel_plt_end
0000000000000000  w   D  *UND*	0000000000000000 __rel_plt_start
0000000000000000      D  *UND*	0000000000000000 free
0000000000000000      D  *UND*	0000000000000000 malloc
0000000000000000      D  *UND*	0000000000000000 nnMain
0000000000000000      D  *UND*	0000000000000000 nninitStartup
0000000000000000  w   D  *UND*	0000000000000000 nnosGetDefaultUserExceptionStackForApplication
0000000000000000      D  *UND*	0000000000000000 realloc
0000000000000000      D  *UND*	0000000000000000 calloc
0000000000000000      D  *UND*	0000000000000000 aligned_alloc
0000000000183e5c  w   DF .text	00000000000000b0 _ZN2nn2sf6detail38ObjectImplFactoryWithStatefulAllocatorINS0_4cmif6client16CmifProxyFactoryINS_6aocsrv6detail20IAddOnContentManagerENS0_4hipc6client18Hipc2ProxyKindBaseILNS9_6detail11MessageTypeE4EEENS0_30MemoryResourceAllocationPolicyEE13ServiceObjectESF_E6Object7ReleaseEv
00000000009791e0 g    DO .data	0000000000000040 _ZTVNSt3__18__c_nodeE
000000000097af08 g    DO .data	0000000000000060 _ZTVNSt3__116__narrow_to_utf8ILm16EEE
000000000015d784 g    DF .text	000000000000004c _ZN2nn4pctl53RequestStereoVisionRestrictionConfigurationPermissionEv
00000000001a76a8 g    DF .text	0000000000000040 _ZN2nn5audio6server24AudioRendererManagerImpl15AudioDeviceImplD2Ev
00000000001a4d70 g    DF .text	0000000000000008 _ZNK2nn5audio6server12SinkInfoBase12GetParameterEv
00000000003ceb3c g    DF .text	00000000000001a4 sincosl
0000000000133284 g    DF .text	0000000000000070 _ZN2nn4htcs4SendEiPKvmi
00000000001d051c  w   DF .text	0000000000000020 _ZN2nn2sf4cmif6client6detail13CmifProxyImplINS_5visrv2sf22IManagerDisplayServiceENS0_4hipc6client18Hipc2ProxyKindBaseILNS8_6detail11MessageTypeE4EEENS0_30MemoryResourceAllocationPolicyES7_E48_nn_sf_sync_CheckSharedLowLevelLayerSynchronizedENS0_3OutIlvEEm
000000000095c7f0 g    DO .data	0000000000000020 _ZTVN2nn3hid23VibrationNodeConnectionE
00000000000d8398  w   DF .text	00000000000000ac _ZN2nn2sf4cmif6client32GetClientProcessorWithObjectBaseINS2_15CmifDomainProxyINS0_4hipc6client38Hipc2ClientSessionManagedProxyKindBaseINS6_18Hipc2ProxyKindBaseILNS5_6detail11MessageTypeE4EEEEEEEE14ObjectAssignerINS0_30MemoryResourceAllocationPolicyENS_14MemoryResourceEE14AllocateObjectINS_4bcat6detail3ipc12IBcatServiceEEEvi
000000000015aac4  w   DF .text	0000000000000168 _ZN2nn2sf4hipc6client24Hipc2ClientCoreProcessorILNS1_6detail11MessageTypeE4ENS0_4cmif6detail14CoreMethodInfoINSt3__15tupleIJNS7_18OutRawArgumentInfoILm4ELm4ELl0EEENS7_18BufferArgumentInfoILi0ELi22ELm256EEEEEELm0ELm4ELb0EEESF_E7ProcessEPNS2_26Hipc2ClientProxyBaseObjectENS6_6client24OutRawClientArgumentTypeILm4ELm4EEENSK_24BufferClientArgumentTypeEj
00000000000e8078 g    DF .text	0000000000000490 _celt_autocorr
00000000003a2be8 g    DF .text	00000000000001ac __muldc3
00000000000b13a8 g    DF .text	0000000000000004 _ZN2nn6socket6detail9HStrErrorEi
00000000000be38c  w   DF .text	000000000000000c _ZNK2nn2sf22UnitHeapMemoryResource11do_is_equalERKNS_14MemoryResourceE
00000000001c8118 g    DF .text	000000000000008c _ZN2nn2pl22GetSharedFontLoadStateENS0_14SharedFontTypeE
000000000022fe9c g    DF .text	000000000000004c _ZN2nn3hid15VibrationPlayer12SetLoopRangeEii
0000000000136d9c  w   DF .text	0000000000000194 _ZN2nn2sf4hipc6client24Hipc2ClientCoreProcessorILNS1_6detail11MessageTypeE4ENS0_4cmif6detail14CoreMethodInfoINSt3__15tupleIJNS7_21OutObjectArgumentInfoILi0ELi0EEENS7_17InRawArgumentInfoILm8ELm8ELl0EEEEEELm8ELm0ELb1EEESF_E21ProcessWithOutObjectsEPNS2_26Hipc2ClientProxyBaseObjectENS6_6client27OutObjectClientArgumentTypeENSK_23InRawClientArgumentTypeILm8ELm8EvEEjPNS0_13SharedPointerINS0_14IServiceObjectEEE
0000000000331090  w   DF .text	0000000000000028 _ZNSt3__113basic_ostreamIwNS_11char_traitsIwEEED0Ev
0000000000071788 g    DF .text	000000000000008c nnmem_nlib_rwlock_init
00000000000b74c0  w   DF .text	0000000000000028 _ZN2nn2sf4cmif6client6detail13CmifProxyImplINS_7account4baas18IGuestLoginRequestENS2_15CmifDomainProxyINS0_4hipc6client38Hipc2ClientSessionManagedProxyKindBaseINSA_18Hipc2ProxyKindBaseILNS9_6detail11MessageTypeE4EEEEEEENS0_25StatelessAllocationPolicyINS0_22ExpHeapStaticAllocatorILm2048ENS5_6detail12ObjectHolder24ObjectHolderAllocatorTagEEEEES7_E27_nn_sf_sync_GetProfileImageENS0_3OutIjvEERKNS0_9OutBufferE
0000000000342f70  w   DF .text	00000000000000b8 _ZNKSt3__18time_getIwNS_19istreambuf_iteratorIwNS_11char_traitsIwEEEEE17__get_weekdaynameERiRS4_S4_RjRKNS_5ctypeIwEE
000000000036453c  w   DF .text	0000000000000044 _ZNSt3__112basic_stringIcNS_11char_traitsIcEENS_9allocatorIcEEE7replaceEmmRKS5_mm
00000000000b33e4 g    DF .text	0000000000000094 _ZN2nn7account8OpenUserEPNS0_10UserHandleERKNS0_3UidE
00000000003240d4 g    DF .text	0000000000000018 _ZNSt3__118condition_variable10notify_oneEv
0000000000136174 g    DF .text	00000000000000ac _ZN2nn2lm6detail24LogPacketTransmitterBase11PushUleb128Ej
000000000017ec1c g    DF .text	000000000000006c _ZN2nn4time13ClockSnapshotC2Ev
0000000000049de4  w   DF .text	0000000000000060 _ZN2nn2fs10SubStorage12OperateRangeEPvmNS0_11OperationIdEllPKvm
000000000080b610  w   DO .rodata	000000000000013a _ZTSN2nn2sf6detail39ObjectImplFactoryWithStatelessAllocatorINS0_4cmif6client16CmifProxyFactoryINS_3hid15IHidDebugServerENS0_4hipc6client18Hipc2ProxyKindBaseILNS8_6detail11MessageTypeE4EEENS0_25StatelessAllocationPolicyINS0_22ExpHeapStaticAllocatorILm16384ENS6_6detail14HidDebugServerEEEEEE13ServiceObjectESJ_E6ObjectE
0000000000286570 g    DF .text	000000000000010c NvRmGpuLibOpen
000000000009b790 g    DF .text	0000000000000138 _ZN2nn2sf4hipc6detail25HipcMessageBufferAccessor15SetHeadPointersERKNS2_21HipcMessageHeaderInfoE
00000000003a3414 g    DF .text	00000000000001e4 __mulsf3
00000000001c00e4 g    DF .text	0000000000000084 _ZNK2nn3mii6detail16Ver3StoreDataRaw14GetMouthAspectEv
00000000001ce810  w   DF .text	0000000000000020 _ZN2nn2sf4cmif6client6detail13CmifProxyImplINS_5visrv2sf21ISystemDisplayServiceENS0_4hipc6client18Hipc2ProxyKindBaseILNS8_6detail11MessageTypeE4EEENS0_30MemoryResourceAllocationPolicyES7_E30_nn_sf_sync_GetDisplayRgbRangeENS0_3OutIjvEEm
00000000001c8344 g    DF .text	000000000000008c _ZN2nn2pl17GetSharedFontSizeENS0_14SharedFontTypeE
00000000000a1898 g    DF .text	0000000000000004 _ZN2nn6socket11GetSockNameEiP8sockaddrPj
00000000003dc878  w   DF .text	0000000000000038 _IO_feof_unlocked
00000000000ba1b4  w   DF .text	00000000000000a8 _ZN2nn2sf4cmif6client6detail13CmifProxyImplINS_7account31IAccountServiceForAdministratorENS2_15CmifDomainProxyINS0_4hipc6client38Hipc2ClientSessionManagedProxyKindBaseINS9_18Hipc2ProxyKindBaseILNS8_6detail11MessageTypeE4EEEEEEENS0_25StatelessAllocationPolicyINS0_22ExpHeapStaticAllocatorILm2048ENS5_6detail12ObjectHolder24ObjectHolderAllocatorTagEEEEES6_E45_nn_sf_sync_CreateFloatingRegistrationRequestENS0_3OutINS0_13SharedPointerINS5_4baas28IFloatingRegistrationRequestEEEvEEONS0_12NativeHandleEj
0000000000174b9c  w   DF .text	0000000000000024 _ZN2nn2sf4cmif6client6detail13CmifProxyImplINS_8settings21ISystemSettingsServerENS0_4hipc6client18Hipc2ProxyKindBaseILNS7_6detail11MessageTypeE4EEENS0_25StatelessAllocationPolicyINS0_22ExpHeapStaticAllocatorILm16384ES6_EEEES6_E34_nn_sf_sync_SetBluetoothEnableFlagEb
00000000001f8750 g    DF .text	0000000000000020 fnt_RoundOff
000000000009384c g    DF .text	000000000000005c _ZN2nn2os6detail36MultiWaitHolderOfMessageQueueNotFull20RemoveFromObjectListEv
000000000011a8dc g    DF .text	0000000000000050 _ZN2nn3err9ShowErrorENS0_9ErrorCodeERKNS0_12ErrorContextE
00000000001a4d78 g    DF .text	0000000000000050 _ZN2nn5audio6server14DeviceSinkInfoC2Ev
0000000000264690 g    DF .text	0000000000000018 glslc_Free
000000000032c9f8  w   DF .text	0000000000000030 _ZNSt3__113basic_istreamIwNS_11char_traitsIwEEErsEPFRNS_8ios_baseES5_E
0000000000189df0 g    DF .text	0000000000000048 _ZN2nn5audio24PerformanceBufferManager17UpdateInParameterEPv
00000000001c57c4 g    DF .text	000000000000003c _ZN2nn3mii8Database3GetEPiPNS0_15CharInfoElementEii
0000000000986ba0 g    DO .data	0000000000000008 __stderr_used
00000000003dcef4 g    DF .text	0000000000000048 fgetwc
0000000000155434 g    DF .text	000000000000001c _ZN2nn4nifm15FinalizeForTestEv
00000000002271a0 g    DF .text	0000000000000060 _ZN2nn3hid6detail43IsUsbFullKeyControllerEnabledForApplicationEPb
0000000000361afc  w   DF .text	000000000000002c _ZnamSt11align_val_tRKSt9nothrow_t
00000000001c3644 g    DF .text	000000000000003c _ZN2nn3mii6detail16Ver3StoreDataRaw14SetCreatorNameERKNS0_8NicknameE
00000000001d2268  w   DF .text	000000000000004c _ZZN2nn2sf31SimpleAllInOneHipcClientManagerILm10EE27InitializeShimLibraryHolderINS_5visrv2sf18ISystemRootServiceEEENS_6ResultEPNS0_23ShimLibraryObjectHolderIT_EEPKcPNS_14MemoryResourceEENUlPvE_8__invokeESG_
0000000000075da0 g    DF .text	0000000000000090 nnmem_nlib_utf16nlen_
000000000022d614 g    DF .text	0000000000000044 _ZN2nn3hid19GetTouchScreenStateILm8EEEvPNS0_16TouchScreenStateIXT_EEE
000000000004d55c g    DF .text	0000000000000084 _ZN2nn2fs6detail18FileSystemAccessor10DeleteFileEPKc
000000000008fac0 g    DF .text	0000000000000070 _ZN2nn2os24SdkConditionVariableType4WaitERNS0_21SdkRecursiveMutexTypeE
0000000000150d10 g    DF .text	0000000000000038 _ZN2nn4nifm6detail13RequestClient31SetConnectionConfirmationOptionENS0_28ConnectionConfirmationOptionE
00000000001a0b64 g    DF .text	0000000000000024 _ZN2nn5audio6server30CommandProcessingTimeEstimator8EstimateERKNS0_25PcmInt16DataSourceCommandE
00000000000d125c  w   DF .text	0000000000000028 _ZN2nn2sf4cmif6client6detail13CmifProxyImplINS_3apm8ISessionENS0_4hipc6client18Hipc2ProxyKindBaseILNS7_6detail11MessageTypeE4EEENS0_30MemoryResourceAllocationPolicyES6_E39_nn_sf_sync_SetPerformanceConfigurationENS5_15PerformanceModeENS5_24PerformanceConfigurationE
000000000022bdb4 g    DF .text	000000000000005c _ZN2nn3hid12GetNpadStateEPNS0_16NpadFullKeyStateERKj
00000000003dcf3c g    DF .text	000000000000009c fgetws
00000000002b4540 g    DF .text	0000000000000048 _ZN7android18GraphicBufferAllocD0Ev
00000000000913b0 g    DF .text	0000000000000004 nnosBroadcastConditionVariable
00000000000d0834 g    DF .text	0000000000000020 _ZN2nn3apm27GetInternalManagerForSystemEv
00000000001a7b68 g    DF .text	0000000000000008 _ZN2nn5audio6server6detail21GetActiveChannelCountEv
0000000000150c6c g    DF .text	0000000000000024 _ZN2nn4nifm6detail13RequestClient11SetPriorityEh
0000000000152d6c  w   DF .text	0000000000000150 _ZN2nn2sf4cmif6client34CmifDomainProxyClientCoreProcessorINS0_4hipc6client38Hipc2ClientSessionManagedProxyKindBaseINS5_18Hipc2ProxyKindBaseILNS4_6detail11MessageTypeE4EEEEENS1_6detail14CoreMethodInfoINSt3__15tupleIJNSC_17InRawArgumentInfoILm36ELm4ELl0EEEEEELm36ELm0ELb0EEESI_E7ProcessEPNS2_23CmifDomainClientMessageISB_E15ProxyBaseObjectENS2_23InRawClientArgumentTypeILm36ELm4EvEEj
0000000000270914 g    DF .text	000000000000001c NvRmSyncIsFd
00000000000ab464  w   DF .text	00000000000001fc _ZN2nn2sf4cmif6client34CmifDomainProxyClientCoreProcessorINS0_4hipc6client38Hipc2ClientSessionManagedProxyKindBaseINS5_18Hipc2ProxyKindBaseILNS4_6detail11MessageTypeE4EEEEENS1_6detail14CoreMethodInfoINSt3__15tupleIJNSC_18OutRawArgumentInfoILm4ELm4ELl0EEENSG_ILm4ELm4ELl4EEENSC_17InRawArgumentInfoILm4ELm4ELl0EEENSJ_ILm4ELm4ELl4EEENSJ_ILm4ELm4ELl8EEENSC_18BufferArgumentInfoILi0ELi33ELm0EEEEEELm12ELm8ELb0EEESP_E7ProcessEPNS2_23CmifDomainClientMessageISB_E15ProxyBaseObjectENS2_24OutRawClientArgumentTypeILm4ELm4EEESX_NS2_23InRawClientArgumentTypeILm4ELm4EvEESZ_SZ_NS2_24BufferClientArgumentTypeEj
000000000004f3fc g    DF .text	0000000000000004 _ZN2nn2fs15GetFileOpenModeENS0_10FileHandleE
0000000000264818 g    DF .text	000000000000002c cuda_DebugPrintf
00000000003e0030 g    DF .text	0000000000000004 __toread_needs_stdio_exit
0000000000178198 g    DF .text	0000000000000004 _ZN2nn3ssl10ConnectionD2Ev
0000000000111880 g    DF .text	0000000000000130 opus_multistream_packet_pad
00000000001c5910 g    DF .text	0000000000000008 _ZN2nn3mii15PrivateDatabaseC2Ev
0000000000263544 g    DF .text	0000000000000030 NvOsUserEventSignal
0000000000166b58 g    DF .text	0000000000000038 _ZN2nn5prepo6detail3ipc15GetPrepoServiceEv
000000000021f198 g    DF .text	00000000000000b0 _ZN2nn3hid6detail7Session10DeactivateEv
00000000000b5748  w   DF .text	0000000000000150 _ZN2nn2sf4cmif6client34CmifDomainProxyClientCoreProcessorINS0_4hipc6client38Hipc2ClientSessionManagedProxyKindBaseINS5_18Hipc2ProxyKindBaseILNS4_6detail11MessageTypeE4EEEEENS1_6detail14CoreMethodInfoINSt3__15tupleIJNSC_18OutRawArgumentInfoILm56ELm8ELl0EEEEEELm0ELm56ELb0EEESI_E7ProcessEPNS2_23CmifDomainClientMessageISB_E15ProxyBaseObjectENS2_24OutRawClientArgumentTypeILm56ELm8EEEj
0000000000124e0c g    DF .text	00000000000000cc _ZN2nn7friends6detail3ipc19CreateFriendServiceEPPNS2_14IFriendServiceE
0000000000229154 g    DF .text	0000000000000044 _ZN2nn3hid5debug27SetHomeButtonAutoPilotStateERKNS1_24HomeButtonAutoPilotStateE
00000000000d5550  w   DF .text	0000000000000004 _ZN2nn4bcat6detail17ShimLibraryGlobalD2Ev
0000000000212214 g    DF .text	0000000000000090 get_ttf_table_info
0000000000095e0c g    DF .text	000000000000004c _ZN2nn2os6detail26ThreadManagerImplByHorizon18ResumeThreadUnsafeEPNS0_10ThreadTypeE
000000000018bf14 g    DF .text	000000000000002c _ZN2nn5audio21ResetVoiceDroppedFlagEPNS0_9VoiceTypeE
00000000000f8344 g    DF .text	0000000000000038 silk_InitDecoder
00000000002d322c g    DF .text	0000000000000140 _ZN7android10VectorImpl11setCapacityEm
000000000006bc2c g    DF .text	000000000000015c _ZN2nn2fs21GetSdCardUserAreaSizeEPl
00000000000a1c04 g    DF .text	0000000000000004 nnsocketGetHostByAddrWithOptions
0000000000156e70 g    DF .text	0000000000000004 _ZN2nn4nifm17NetworkConnection20SubmitRequestAndWaitEv
000000000014b450 g    DF .text	0000000000000010 _ZN2nn3ngc6detail12OutputStream14GetWorkBuffer_EPm
00000000001c54d8 g    DF .text	0000000000000084 _ZNK2nn3mii6detail16Ver3StoreDataRaw11GetPadding9Ev
0000000000166674 g    DF .text	0000000000000124 _ZN2nn5prepo6detail19PlayReportGenerator11AddKeyValueEPmPKcdPhmm
00000000000ea750 g    DF .text	00000000000000c0 celt_rcp
0000000000a80dc8 g    DO .bss	0000000000000010 _ZNSt3__18numpunctIwE2idE
000000000018d8fc g    DF .text	0000000000000050 _ZN2nn5audio6common19WorkBufferAllocator8AllocateEmm
000000000036d874  w   DF .text	00000000000000d0 _ZNSt3__18valarrayImE6resizeEmm
00000000001d5a00 g    DF .text	0000000000000084 _ZN2nn2vi6detail22ServiceReferenceHolder16GetSystemServiceEPNS_2sf13SharedPointerINS_5visrv2sf21ISystemDisplayServiceEEE
0000000000175094  w   DF .text	0000000000000020 _ZN2nn2sf4cmif6client6detail13CmifProxyImplINS_8settings21ISystemSettingsServerENS0_4hipc6client18Hipc2ProxyKindBaseILNS7_6detail11MessageTypeE4EEENS0_25StatelessAllocationPolicyINS0_22ExpHeapStaticAllocatorILm16384ES6_EEEES6_E32_nn_sf_sync_GetAppletLaunchFlagsENS0_3OutINS_4util10BitFlagSetILi32ENS5_6system16AppletLaunchFlagEEEvEE
000000000026f324 g    DF .text	0000000000000064 NvRmOpenNew
00000000003a2d94 g    DF .text	0000000000000228 __muldf3
00000000000655e8 g    DF .text	0000000000000094 _ZN2nn2fs19CanMountRomForDebugEv
000000000026fb2c g    DF .text	00000000000001e8 NvRmMemHandleFree
000000000034f2c0  w   DF .text	0000000000000004 _ZNSt3__114codecvt_bynameIwc11__mbstate_tED2Ev
0000000000953348 g    DO .data	0000000000000040 _ZTVN2nn3ngc6detail12OutputStreamE
0000000000a1e718 g    DO .bss	0000000000002000 _ZN2nn2ec6detail20g_ShopPageArgStorageE
000000000097bfd0  w   DO .data	0000000000000038 _ZTINSt3__19money_putIwNS_19ostreambuf_iteratorIwNS_11char_traitsIwEEEEEE
0000000000052e0c  w   DF .text	0000000000000018 _ZN2nn2sf13SharedPointerINS_5fssrv2sf16IFileSystemProxyEED2Ev
000000000016c9c4 g    DF .text	0000000000000070 _ZN2nn8settings6detail25GetBluetoothAfhEnableFlagEPb
00000000003a4b98 g    DF .text	0000000000000004 __gnu_f2h_ieee
00000000003aad40 g    DF .text	0000000000000154 __stdio_write
00000000008223c4 g    DO .rodata	0000000000000004 _ZNSt3__18ios_base11adjustfieldE
00000000003dd80c  w   DF .text	000000000000008c ftello64
00000000001f9f20 g    DF .text	0000000000000058 fsg_PrivateFontSpaceSize
00000000003a5cc8 g    DF .text	0000000000000054 __atomic_store_16
0000000000135ee4 g    DF .text	0000000000000010 _ZN2nn2lm6detail15LogPacketHeader7SetHeadEb
00000000000449b8 g    DF .text	0000000000000128 _ZN2nn4diag6detail7LogImplERKNS0_11LogMetaInfoEPKcz
000000000097ad78  w   DO .data	0000000000000010 _ZTINSt3__112codecvt_baseE
0000000000263188 g    DF .text	0000000000000018 NvOsThreadSetName
0000000000111ae8 g    DF .text	0000000000000010 tonality_analysis_reset
00000000003c7cec g    DF .text	0000000000000080 ceilf
0000000000189d54 g    DF .text	000000000000004c _ZN2nn5audio24PerformanceBufferManager13GetBufferBaseEv
0000000000398620 g    DF .text	000000000000009c __cxa_begin_catch
000000000002fc8c g    DF .text	0000000000000004 _ZN2nn5image13ExifExtractorD1Ev
00000000001c4ea8 g    DF .text	0000000000000084 _ZNK2nn3mii6detail16Ver3StoreDataRaw12GetReserved0Ev
00000000007e5080  w   DO .rodata	00000000000000eb _ZTSN2nn2sf4cmif6client16CmifProxyFactoryINS_8settings21ISystemSettingsServerENS0_4hipc6client18Hipc2ProxyKindBaseILNS6_6detail11MessageTypeE4EEENS0_25StatelessAllocationPolicyINS0_22ExpHeapStaticAllocatorILm16384ES5_EEEEE13ServiceObjectE
00000000001aa490 g    DF .text	0000000000000004 _ZN2nn5audio3dsp7MailBox4RecvEv
0000000000334324  w   DF .text	0000000000000034 _ZNKSt3__17collateIcE7do_hashEPKcS3_
000000000001577c g    DF .text	00000000000001ec _ZN2nn5image6detail4jpeg17jpeg_set_defaultsEPNS2_20jpeg_compress_structE
000000000009362c g    DF .text	000000000000004c _ZNK2nn2os6detail27MultiWaitHolderOfTimerEvent10IsSignaledEv
00000000001673e4  w   DF .text	0000000000000204 _ZN2nn2sf4cmif6client34CmifDomainProxyClientCoreProcessorINS0_4hipc6client38Hipc2ClientSessionManagedProxyKindBaseINS5_18Hipc2ProxyKindBaseILNS4_6detail11MessageTypeE4EEEEENS1_6detail14CoreMethodInfoINSt3__15tupleIJNSC_17InRawArgumentInfoILm16ELm8ELl0EEENSC_18BufferArgumentInfoILi0ELi9ELm0EEENSI_ILi1ELi5ELm0EEENSG_ILm8ELm8ELl16EEEEEELm24ELm0ELb1EEESM_E7ProcessEPNS2_23CmifDomainClientMessageISB_E15ProxyBaseObjectENS2_23InRawClientArgumentTypeILm16ELm8EvEENS2_24BufferClientArgumentTypeESV_NST_ILm8ELm8EvEEj
00000000003c7d6c g    DF .text	00000000000000fc ceill
000000000005cc58  w   DF .text	00000000000001f0 _ZN2nn2sf4cmif6client34CmifDomainProxyClientCoreProcessorINS0_4hipc6client38Hipc2ClientSessionManagedProxyKindBaseINS5_18Hipc2ProxyKindBaseILNS4_6detail11MessageTypeE4EEEEENS1_6detail14CoreMethodInfoINSt3__15tupleIJNSC_18BufferArgumentInfoILi0ELi6ELm0EEENSC_17InRawArgumentInfoILm8ELm8ELl0EEENSG_ILi1ELi5ELm0EEENSI_ILm8ELm8ELl8EEEEEELm16ELm0ELb0EEESM_E7ProcessEPNS2_23CmifDomainClientMessageISB_E15ProxyBaseObjectENS2_24BufferClientArgumentTypeENS2_23InRawClientArgumentTypeILm8ELm8EvEEST_SV_j
00000000007c22f0  w   DO .rodata	0000000000000188 _ZTSN2nn2sf4cmif6client6detail13CmifProxyImplINS_7account4http15IOAuthProcedureENS2_15CmifDomainProxyINS0_4hipc6client38Hipc2ClientSessionManagedProxyKindBaseINSA_18Hipc2ProxyKindBaseILNS9_6detail11MessageTypeE4EEEEEEENS0_25StatelessAllocationPolicyINS0_22ExpHeapStaticAllocatorILm2048ENS5_6detail12ObjectHolder24ObjectHolderAllocatorTagEEEEENS5_3nas40IOAuthProcedureForNintendoAccountLinkageEEE
0000000000318b7c  w   DF .text	0000000000000024 _ZN2nn2sf4cmif6client6detail13CmifProxyImplINS_3pcv6detail11IPcvServiceENS0_4hipc6client18Hipc2ProxyKindBaseILNS8_6detail11MessageTypeE4EEENS0_30MemoryResourceAllocationPolicyES7_E24_nn_sf_sync_GetClockRateENS0_3OutIjvEEi
000000000013c114  w   DF .text	00000000000001cc _ZN2nn2sf4cmif6client34CmifDomainProxyClientCoreProcessorINS0_4hipc6client38Hipc2ClientSessionManagedProxyKindBaseINS5_18Hipc2ProxyKindBaseILNS4_6detail11MessageTypeE4EEEEENS1_6detail14CoreMethodInfoINSt3__15tupleIJNSC_17InRawArgumentInfoILm8ELm4ELl0EEENSC_18BufferArgumentInfoILi0ELi25ELm664EEEEEELm8ELm0ELb0EEESK_E7ProcessEPNS2_23CmifDomainClientMessageISB_E15ProxyBaseObjectENS2_23InRawClientArgumentTypeILm8ELm4EvEENS2_24BufferClientArgumentTypeEj
000000000032489c g    DF .text	0000000000000058 _ZNSt3__18__c_nodeD1Ev
00000000003626f4 g    DF .text	0000000000000080 _ZNSt13runtime_errorC1EPKc
000000000036df10 g    DF .text	0000000000000034 __cxa_throw_bad_array_new_length
00000000007d88f0  w   DO .rodata	000000000000011c _ZTSN2nn2sf4cmif6client16CmifProxyFactoryINS_7friends6detail3ipc28IDaemonSuspendSessionServiceENS2_15CmifDomainProxyINS0_4hipc6client38Hipc2ClientSessionManagedProxyKindBaseINSA_18Hipc2ProxyKindBaseILNS9_6detail11MessageTypeE4EEEEEEENS0_30MemoryResourceAllocationPolicyEE13ServiceObjectE
00000000001b4b1c g    DF .text	000000000000000c _ZN2nn2la20PrepareLibraryAppletEPKvmNS_6applet8AppletIdEb
000000000024fcb4 g    DF .text	000000000000003c _ZN2nn3ldn24GetNetworkInfoForMonitorEPNS0_11NetworkInfoE
0000000000286774 g    DF .text	000000000000000c NvRmGpuDeviceZbcGetDepthTableEntry
00000000007c3b10  w   DO .rodata	000000000000010d _ZTSN2nn2sf4cmif6client16CmifProxyFactoryINS_7account24IBaasAccessTokenAccessorENS2_15CmifDomainProxyINS0_4hipc6client38Hipc2ClientSessionManagedProxyKindBaseINS8_18Hipc2ProxyKindBaseILNS7_6detail11MessageTypeE4EEEEEEENS0_30MemoryResourceAllocationPolicyEE13ServiceObjectE
00000000001a3df8 g    DF .text	0000000000000008 _ZNK2nn5audio6server10MixContext8GetCountEv
00000000009545d0  w   DO .data	0000000000000018 _ZTIN2nn2sf4cmif6client6detail9CmifProxyINS_4pctl6detail3ipc23IParentalControlServiceENS2_15CmifDomainProxyINS0_4hipc6client38Hipc2ClientSessionManagedProxyKindBaseINSB_18Hipc2ProxyKindBaseILNSA_6detail11MessageTypeE4EEEEEEENS0_30MemoryResourceAllocationPolicyEvEE
0000000000228258 g    DF .text	0000000000000048 _ZN2nn3hid6system28RegisterAppletResourceUserIdERKNS_6applet20AppletResourceUserIdEb
00000000001474ac g    DF .text	0000000000000004 _ZN2nn3ngc6detail12BinaryWriter10WriteArrayEPKdm
0000000000125ba0  w   DF .text	0000000000000020 _ZN2nn2sf4cmif6client6detail13CmifProxyImplINS_7friends6detail3ipc14IFriendServiceENS2_15CmifDomainProxyINS0_4hipc6client38Hipc2ClientSessionManagedProxyKindBaseINSB_18Hipc2ProxyKindBaseILNSA_6detail11MessageTypeE4EEEEEEENS0_30MemoryResourceAllocationPolicyES8_E26_nn_sf_sync_GetFriendCountENS0_3OutIivEERKNS_7account3UidERKNS7_17SizedFriendFilterEm
0000000000186334 g    DF .text	000000000000000c _ZN2nn5audio20IsBufferMixerEnabledEPKNS0_15BufferMixerTypeE
0000000000805350 g    DO .rodata	0000000000000020 _ZN2nn4util10BitFlagSetILi256ENS_3hid11KeyboardKeyEE4FlagILi91EE4MaskE
00000000007ae750 g    DO .rodata	0000000000000010 _ZN2nn4util8Vector3f13ConstantUnitXE
0000000000264708 g    DF .text	0000000000000018 multimedia_Alloc
00000000001ccf18  w   DF .text	0000000000000178 _ZZN2nn2sf31SimpleAllInOneHipcClientManagerILm10EE27InitializeShimLibraryHolderINS_5visrv2sf18ISystemRootServiceEEENS_6ResultEPNS0_23ShimLibraryObjectHolderIT_EEPKcPNS_14MemoryResourceEENUlPNS0_13SharedPointerIS6_EEE_clESI_
000000000006fc8c g    DF .text	0000000000000010 _ZN2nn4lmem6detail14GetHeapFillValEi
00000000000a2460 g    DF .text	00000000000001c4 _ZN2nn6socket6detail8RecvFromEiPvmiP8sockaddrPj
0000000000959228  w   DO .data	0000000000000058 _ZTVN2nn2sf22UnmanagedServiceObjectINS_5audio6detail21IAudioRendererManagerENS2_6server24AudioRendererManagerImplEEE
0000000000188ec0 g    DF .text	000000000000000c _ZN2nn5audio17GetFinalMixNodeIdEPKNS0_12FinalMixTypeE
00000000001a5814 g    DF .text	0000000000000134 _ZN2nn5audio6server9VoiceInfo10InitializeEv
000000000026436c g    DF .text	0000000000000084 NvOsBreakPoint
00000000001978d0 g    DF .text	00000000000000e0 _ZN2nn5audio24GetActiveAudioDeviceNameEPNS0_15AudioDeviceNameE
0000000000354eac g    DF .text	00000000000000ac _ZNSt3__114collate_bynameIwEC1ERKNS_12basic_stringIcNS_11char_traitsIcEENS_9allocatorIcEEEEm
000000000011a4ec g    DF .text	000000000000000c _ZN2nn3err13MakeErrorCodeEjj
0000000000017a24 g    DF .text	0000000000000004 _ZN2nn5image6detail4jpeg23jpeg_destroy_decompressEPNS2_22jpeg_decompress_structE
000000000023c494  w   DF .text	00000000000000b0 _ZN2nn2sf6detail39ObjectImplFactoryWithStatelessAllocatorINS0_4cmif6client16CmifProxyFactoryINS_8irsensor15IIrSensorServerENS0_4hipc6client18Hipc2ProxyKindBaseILNS8_6detail11MessageTypeE4EEENS0_25StatelessAllocationPolicyINS0_22ExpHeapStaticAllocatorILm16384ENS6_6detail14IrSensorServerEEEEEE13ServiceObjectESJ_E6Object11DisposeImplEv
0000000000159184 g    DF .text	00000000000000f4 _ZN2nn3nsd6detail3ipc22GetNasServiceSettingExEPNS_6ResultEPNS0_17NasServiceSettingERKNS0_14NasServiceNameE
00000000001b9dc0 g    DF .text	0000000000000048 _ZN2nn3mii6detail11CoreDataRaw12SetMouthTypeEi
0000000000147814 g    DF .text	0000000000000084 _ZNK2nn3ngc6detail3Bp_6ExportEPNS1_12BinaryWriterE
000000000001791c g    DF .text	0000000000000108 _ZN2nn5image6detail4jpeg21jpeg_CreateDecompressEPNS2_22jpeg_decompress_structEim
0000000000121dfc g    DF .text	0000000000000044 _ZNK2nn7friends12AsyncContext9GetResultEv
00000000003ba918 g    DF .text	0000000000000008 cimag
000000000006b960 g    DF .text	0000000000000164 _ZN2nn2fs18GetSdCardSpeedModeEPNS0_15SdCardSpeedModeE
000000000009bf34 g    DF .text	000000000000010c _ZN2nn2sf4hipc6server6detail29HipcAllInOneServerManagerBaseD1Ev
000000000034c644  w   DF .text	0000000000000488 _ZNSt3__111__money_getIwE13__gather_infoEbRKNS_6localeERNS_10money_base7patternERwS8_RNS_12basic_stringIcNS_11char_traitsIcEENS_9allocatorIcEEEERNS9_IwNSA_IwEENSC_IwEEEESJ_SJ_Ri
000000000005d9ec  w   DF .text	000000000000015c _ZN2nn2sf4cmif6client34CmifDomainProxyClientCoreProcessorINS0_4hipc6client38Hipc2ClientSessionManagedProxyKindBaseINS5_18Hipc2ProxyKindBaseILNS4_6detail11MessageTypeE4EEEEENS1_6detail14CoreMethodInfoINSt3__15tupleIJNSC_18OutRawArgumentInfoILm8ELm8ELl0EEENSC_17InRawArgumentInfoILm8ELm8ELl0EEENSI_ILm8ELm8ELl8EEEEEELm16ELm8ELb0EEESL_E7ProcessEPNS2_23CmifDomainClientMessageISB_E15ProxyBaseObjectENS2_24OutRawClientArgumentTypeILm8ELm8EEENS2_23InRawClientArgumentTypeILm8ELm8EvEESV_j
000000000080cff0  w   DO .rodata	00000000000000f9 _ZTSN2nn2sf4cmif6client6detail13CmifProxyImplINS_3hid19IHidTemporaryServerENS0_4hipc6client18Hipc2ProxyKindBaseILNS7_6detail11MessageTypeE4EEENS0_25StatelessAllocationPolicyINS0_22ExpHeapStaticAllocatorILm16384ENS5_6detail18HidTemporaryServerEEEEES6_EE
000000000017f9b4 g    DF .text	000000000000006c _ZN2nn4time23StandardUserSystemClock3nowEv
00000000001b2b5c g    DF .text	0000000000000378 _ZN2nn2ec6detail15ShowShopPageArgC2EPKc
000000000097b5b0 g    DO .data	0000000000000018 _ZTINSt3__115__codecvt_utf16IDiLb1EEE
0000000000057b54  w   DF .text	00000000000001f0 _ZN2nn2sf4cmif6client34CmifDomainProxyClientCoreProcessorINS0_4hipc6client38Hipc2ClientSessionManagedProxyKindBaseINS5_18Hipc2ProxyKindBaseILNS4_6detail11MessageTypeE4EEEEENS1_6detail14CoreMethodInfoINSt3__15tupleIJNSC_18OutRawArgumentInfoILm32ELm8ELl0EEENSC_18BufferArgumentInfoILi0ELi25ELm769EEEEEELm0ELm32ELb0EEESK_E7ProcessEPNS2_23CmifDomainClientMessageISB_E15ProxyBaseObjectENS2_24OutRawClientArgumentTypeILm32ELm8EEENS2_24BufferClientArgumentTypeEj
00000000000b3dcc g    DF .text	000000000000005c _ZN2nn7account27StoreSaveDataThumbnailImageERKNS0_3UidERKNS_13ApplicationIdEPKvm
00000000007c0430  w   DO .rodata	000000000000002f _ZTSN2nn7account31IAccountServiceForAdministratorE
000000000094c360  w   DO .data	0000000000000018 _ZTIN2nn2sf4cmif6client6detail9CmifProxyINS_2am7service7IWindowENS2_15CmifDomainProxyINS0_4hipc6client38Hipc2ClientSessionManagedProxyKindBaseINSA_18Hipc2ProxyKindBaseILNS9_6detail11MessageTypeE4EEEEEEENS0_30MemoryResourceAllocationPolicyEvEE
0000000000347500  w   DF .text	0000000000000008 _ZNKSt3__117moneypunct_bynameIcLb0EE16do_decimal_pointEv
00000000007ae760 g    DO .rodata	0000000000000010 _ZN2nn4util8Vector3f13ConstantUnitYE
0000000000179b6c g    DF .text	0000000000000148 _ZN2nn3ssl14BuiltInManager22GetBuiltInCertificatesEPPNS1_22BuiltInCertificateInfoEPhjPNS0_15CaCertificateIdEj
00000000000362e4 g    DF .text	00000000000000d0 nnutilZlib_inflateInit2_
00000000000b31cc g    DF .text	000000000000003c _ZN2nn7account16GetProfileDigestEPNS0_13ProfileDigestERKNS0_3UidE
00000000001fa7d8 g    DF .text	00000000000001d4 compose_trans
000000000024f4f4 g    DF .text	0000000000000120 _ZN2nn3ldn10InitializeEv
00000000001521c8  w   DF .text	0000000000000024 _ZN2nn2sf4cmif6client6detail13CmifProxyImplINS_4nifm6detail15IGeneralServiceENS2_15CmifDomainProxyINS0_4hipc6client38Hipc2ClientSessionManagedProxyKindBaseINSA_18Hipc2ProxyKindBaseILNS9_6detail11MessageTypeE4EEEEEEENS0_25StatelessAllocationPolicyINS0_22ExpHeapStaticAllocatorILm16384ENS6_21ServiceProviderClient30CreateNifmUserServiceObjectTagEEEEES7_E50_nn_sf_sync_SetWirelessCommunicationEnabledForTestEb
000000000096e5f0 g    DO .data	0000000000000020 _ZTTN7android19IGraphicBufferAllocE
000000000004526c g    DF .text	0000000000000004 _ZN2nn4diag13OnResultCatchENS_6ResultERKNS0_10SourceInfoE
0000000000077d14 g    DF .text	0000000000000260 nnmem_nlib_fd_preadv
0000000000227694  w   DF .text	0000000000000018 _ZN2nn2sf13SharedPointerINS_3hid26IActiveVibrationDeviceListEED2Ev
000000000016b738 g    DF .text	0000000000000078 _ZN2nn8settings6detail14SetAudioVolumeERKNS0_6system11AudioVolumeEi
000000000017f590 g    DF .text	0000000000000074 _ZN2nn4time19StandardSteadyClock3nowEv
00000000003ba7c0 g    DF .text	00000000000000fc cexpf
00000000009797e0 g    DO .data	0000000000000018 _ZTINSt3__18ios_base7failureE
00000000003d25d8 g    DF .text	0000000000000010 btowc
000000000095a758  w   DO .data	0000000000000060 _ZTVN2nn2sf6detail38ObjectImplFactoryWithStatefulAllocatorINS0_4cmif6client16CmifProxyFactoryINS_5visrv2sf19IManagerRootServiceENS0_4hipc6client18Hipc2ProxyKindBaseILNS9_6detail11MessageTypeE4EEENS0_30MemoryResourceAllocationPolicyEE13ServiceObjectESF_E6ObjectE
000000000094c660  w   DO .data	0000000000000018 _ZTIN2nn2am7service18IDisplayControllerE
0000000000183f14  w   DF .text	0000000000000020 _ZN2nn2sf4cmif6client6detail13CmifProxyImplINS_6aocsrv6detail20IAddOnContentManagerENS0_4hipc6client18Hipc2ProxyKindBaseILNS8_6detail11MessageTypeE4EEENS0_30MemoryResourceAllocationPolicyES7_E44_nn_sf_sync_CountAddOnContentByApplicationIdENS0_3OutIivEENS_3ncm13ApplicationIdE
00000000003c25dc g    DF .text	0000000000000018 __iscntrl_l
000000000018d7cc g    DF .text	000000000000000c _ZN2nn5audio6common24GetSplitterSendDataMagicEv
00000000003ba8bc g    DF .text	000000000000005c cexpl
00000000007f6258 g    DO .rodata	0000000000000018 _ZN2nn3mii6detail17PantsPresentColorE
0000000000264814 g    DF .text	0000000000000004 cuda_DebugString
00000000000c813c  w   DF .text	0000000000000024 _ZN2nn2sf4cmif6client6detail13CmifProxyImplINS_2am7service18IDisplayControllerENS2_15CmifDomainProxyINS0_4hipc6client38Hipc2ClientSessionManagedProxyKindBaseINSA_18Hipc2ProxyKindBaseILNS9_6detail11MessageTypeE4EEEEEEENS0_30MemoryResourceAllocationPolicyES7_E39_nn_sf_sync_ClearAppletTransitionBufferEj
00000000000ea958 g    DF .text	000000000000011c celt_cos_norm
00000000001afe78 g    DF .text	00000000000000b8 _ZN2nn5audio3dsp23ApplyLinearEnvelopeGainEPiPKiiii
00000000001d0118  w   DF .text	0000000000000020 _ZN2nn2sf4cmif6client6detail13CmifProxyImplINS_5visrv2sf22IManagerDisplayServiceENS0_4hipc6client18Hipc2ProxyKindBaseILNS8_6detail11MessageTypeE4EEENS0_30MemoryResourceAllocationPolicyES7_E34_nn_sf_sync_GetDisplayHotplugEventENS0_3OutINS0_12NativeHandleEvEEm
000000000028614c g    DF .text	0000000000000038 nvgr_decompress
00000000007c59b0  w   DO .rodata	0000000000000020 _ZTSN2nn2am7service13ILockAccessorE
000000000017d500 g    DF .text	000000000000001c _ZN2nn4time10InitializeEv
0000000000347144  w   DF .text	000000000000000c _ZNKSt3__110moneypunctIwLb1EE13do_pos_formatEv
0000000000334c74  w   DF .text	0000000000000480 _ZNKSt3__17num_getIcNS_19istreambuf_iteratorIcNS_11char_traitsIcEEEEE15__do_get_signedIlEES4_S4_S4_RNS_8ios_baseERjRT_
000000000016ff20 g    DF .text	0000000000000070 _ZN2nn8settings6detail12SetQuestFlagEb
00000000000303f4 g    DF .text	00000000000000d8 _ZNK2nn5image13ExifExtractor16ExtractThumbnailEPm
000000000021692c g    DF .text	0000000000000070 _ZN2nn3hid6system6detail27GetAvailableFirmwareVersionEPNS1_15FirmwareVersionENS1_11UniquePadIdE
0000000000088fb8 g    DF .text	0000000000000200 _ZN2nn7nlibsdk4heap11CentralHeap7ReallocEPvmPS3_
00000000007cd540  w   DO .rodata	0000000000000101 _ZTSN2nn2sf4cmif6client6detail9CmifProxyINS_2am7service24IApplicationProxyServiceENS2_15CmifDomainProxyINS0_4hipc6client38Hipc2ClientSessionManagedProxyKindBaseINSA_18Hipc2ProxyKindBaseILNS9_6detail11MessageTypeE4EEEEEEENS0_30MemoryResourceAllocationPolicyEvEE
00000000001bcd50 g    DF .text	0000000000000004 _ZN2nn3mii6detail12StoreDataRaw10SetEyeTypeEi
00000000000cb8bc  w   DF .text	00000000000000a8 _ZN2nn2sf4cmif6client6detail13CmifProxyImplINS_2am7service19IApplicationCreatorENS2_15CmifDomainProxyINS0_4hipc6client38Hipc2ClientSessionManagedProxyKindBaseINSA_18Hipc2ProxyKindBaseILNS9_6detail11MessageTypeE4EEEEEEENS0_30MemoryResourceAllocationPolicyES7_E29_nn_sf_sync_CreateApplicationENS0_3OutINS0_13SharedPointerINS6_20IApplicationAccessorEEEvEENS_3ncm13ApplicationIdE
00000000000be5fc  w   DF .text	00000000000000ac _ZN2nn2sf4cmif6client6detail13CmifProxyImplINS_7account24IBaasAccessTokenAccessorENS2_15CmifDomainProxyINS0_4hipc6client38Hipc2ClientSessionManagedProxyKindBaseINS9_18Hipc2ProxyKindBaseILNS8_6detail11MessageTypeE4EEEEEEENS0_30MemoryResourceAllocationPolicyES6_E42_nn_sf_sync_RegisterNotificationTokenAsyncENS0_3OutINS0_13SharedPointerINS5_6detail13IAsyncContextEEEvEERKNS5_3UidERKNS_4npns17NotificationTokenE
000000000008e150 g    DF .text	0000000000000188 _ZN2nn2os14WaitTimerEventEPNS0_14TimerEventTypeE
00000000003a2fbc g    DF .text	0000000000000054 __muldi3
000000000036bde8 g    DF .text	0000000000000024 _ZNSt3__110istrstreamD0Ev
00000000001c094c g    DF .text	0000000000000044 _ZNK2nn3mii6detail16Ver3StoreDataRaw14GetCreatorNameEPNS0_8NicknameE
00000000001474a8 g    DF .text	0000000000000004 _ZN2nn3ngc6detail12BinaryWriter10WriteArrayEPKfm
0000000000065bc4  w   DF .text	000000000000000c _ZN2nn2fs26ReadOnlyFileSystemTemplateINSt3__110unique_ptrINS0_3fsa11IFileSystemENS2_14default_deleteIS5_EEEEE12DoRenameFileEPKcSB_
00000000007ae770 g    DO .rodata	0000000000000010 _ZN2nn4util8Vector3f13ConstantUnitZE
0000000000186cdc g    DF .text	000000000000001c _ZN2nn5audio43GetRequiredBufferSizeForAuxSendReturnBufferEPKNS0_22AudioRendererParameterEii
00000000000b00c4 g    DF .text	0000000000000148 _ZN2nn6socket8resolver10serializer13DNSSerializer8ToBufferIcEElPhmPPT_
000000000010ffec g    DF .text	00000000000001a4 opus_encode_float
00000000003c30a0 g    DF .text	0000000000000008 __towupper_l
000000000005fd14 g    DF .text	00000000000000b4 _ZN2nn2fs6detail30FileSystemServiceObjectAdapter17DoCreateDirectoryEPKc
00000000001cbae0 g    DF .text	0000000000000070 _ZN2nn2vi17SetDisplayCmuModeEPNS0_7DisplayENS0_7CmuModeE
00000000000a51a4 g    DF .text	0000000000000130 _ZN2nn6socket6detail5CloseEi
00000000000bb060  w   DF .text	0000000000000090 _ZN2nn2sf4cmif6client6detail13CmifProxyImplINS_7account4baas28IFloatingRegistrationRequestENS2_15CmifDomainProxyINS0_4hipc6client38Hipc2ClientSessionManagedProxyKindBaseINSA_18Hipc2ProxyKindBaseILNS9_6detail11MessageTypeE4EEEEEEENS0_25StatelessAllocationPolicyINS0_22ExpHeapStaticAllocatorILm2048ENS5_6detail12ObjectHolder24ObjectHolderAllocatorTagEEEEES7_E35_nn_sf_sync_EnsureIdTokenCacheAsyncENS0_3OutINS0_13SharedPointerINSK_13IAsyncContextEEEvEE
00000000000d72a8 g    DF .text	0000000000000068 _ZN2nn4bcat6detail17ShimLibraryGlobal10InitializeEv
0000000000230dc8  w   DF .text	000000000000002c _ZN2nn2sf4cmif6client6detail13CmifProxyImplINS_3hid15IHidDebugServerENS0_4hipc6client18Hipc2ProxyKindBaseILNS7_6detail11MessageTypeE4EEENS0_25StatelessAllocationPolicyINS0_22ExpHeapStaticAllocatorILm16384ENS5_6detail14HidDebugServerEEEEES6_E49_nn_sf_sync_SetShiftAccelerometerCalibrationValueENS5_19SixAxisSensorHandleENS_6applet20AppletResourceUserIdEff
000000000011b2c4 g    DF .text	0000000000000020 _ZN2nn3err19ApplicationErrorArgC1Ev
000000000002fb70 g    DF .text	0000000000000008 _ZNK2nn5image11ExifBuilder21GetAnalyzedOutputSizeEv
00000000000332f4 g    DF .text	0000000000000108 nnutilZlib_deflateBound
000000000022d36c g    DF .text	0000000000000044 _ZN2nn3hid5debug28SetSleepButtonAutoPilotStateERKNS1_25SleepButtonAutoPilotStateE
0000000000171168  w   DF .text	0000000000000020 _ZN2nn2sf4cmif6client6detail13CmifProxyImplINS_8settings22IFactorySettingsServerENS0_4hipc6client18Hipc2ProxyKindBaseILNS7_6detail11MessageTypeE4EEENS0_25StatelessAllocationPolicyINS0_22ExpHeapStaticAllocatorILm16384ES6_EEEES6_E35_nn_sf_sync_SetOverlayDispProgramIdENS_3ncm9ProgramIdE
00000000001bcd1c g    DF .text	0000000000000004 _ZN2nn3mii6detail12StoreDataRaw16SetFavoriteColorEi
0000000000174058  w   DF .text	0000000000000024 _ZN2nn2sf4cmif6client6detail13CmifProxyImplINS_8settings21ISystemSettingsServerENS0_4hipc6client18Hipc2ProxyKindBaseILNS7_6detail11MessageTypeE4EEENS0_25StatelessAllocationPolicyINS0_22ExpHeapStaticAllocatorILm16384ES6_EEEES6_E30_nn_sf_sync_GetFirmwareVersionENS0_3OutINS5_6system15FirmwareVersionEvEE
00000000001a0dec g    DF .text	0000000000000030 _ZN2nn5audio6server30CommandProcessingTimeEstimator8EstimateERKNS0_21ClearMixBufferCommandE
00000000007ae790 g    DO .rodata	0000000000000010 _ZN2nn4util8Vector4f11ConstantOneE
000000000009dba8  w   DF .text	0000000000000090 _ZN2nn2sf4hipc6server17HipcServerMessage10SetBuffersEPNS0_6detail14PointerAndSizeE
00000000002716e4 g    DF .text	0000000000000058 NvRmStreamInit
00000000000459e8 g    DF .text	0000000000000130 _ZN2nn4diag6detail23TentativeDumpStackTraceEv
00000000000361e4 g    DF .text	0000000000000100 nnutilZlib_inflateReset2
0000000000115a18 g    DF .text	00000000000001ac opus_multistream_surround_encoder_init
00000000003142b0  w   DF .text	0000000000000004 _ZNK2nn2sf13SharedPointerINS_3fgm2sf8IRequestEE19FunctionForBoolTypeEv
00000000001232cc g    DF .text	0000000000000008 _ZNK2nn7friends11UserSetting25GetFriendRequestReceptionEv
00000000000b18f4 g    DF .text	00000000000000e0 _ZN2nn7account25ShowUserSelectorForSystemEPNS0_3UidERKNS0_21UserSelectionSettingsERKNS0_37UserSelectionSettingsForSystemServiceE
00000000007cce10  w   DO .rodata	0000000000000024 _ZTSN2nn2am7service17IApplicationProxyE
00000000002385d0 g    DF .text	0000000000000070 _ZN2nn8irsensor6detail30UnregisterAppletResourceUserIdERKNS_6applet20AppletResourceUserIdE
000000000016abb4 g    DF .text	0000000000000048 _ZN2nn8settings6system24SetBatteryPercentageFlagEb
000000000095d0a8  w   DO .data	0000000000000058 _ZTVN2nn2sf6detail39ObjectImplFactoryWithStatelessAllocatorINS0_4cmif6client16CmifProxyFactoryINS_3hid15IAppletResourceENS0_4hipc6client18Hipc2ProxyKindBaseILNS8_6detail11MessageTypeE4EEENS0_25StatelessAllocationPolicyINS0_22ExpHeapStaticAllocatorILm16384ENS6_6detail9HidServerEEEEEE13ServiceObjectESJ_E6ObjectE
0000000000167a70 g    DF .text	0000000000000044 _ZN2nn8settings6system18GetAccountSettingsEPNS1_15AccountSettingsE
0000000000174f80  w   DF .text	0000000000000024 _ZN2nn2sf4cmif6client6detail13CmifProxyImplINS_8settings21ISystemSettingsServerENS0_4hipc6client18Hipc2ProxyKindBaseILNS7_6detail11MessageTypeE4EEENS0_25StatelessAllocationPolicyINS0_22ExpHeapStaticAllocatorILm16384ES6_EEEES6_E40_nn_sf_sync_SetHeadphoneVolumeUpdateFlagEb
0000000000185ff8 g    DF .text	000000000000000c _ZN2nn5audio21GetPhysicalDeviceNameEPPKcS2_
000000000024f13c g    DF .text	0000000000000058 _ZN2nn3hid21ShowControllerSupportERKNS0_20ControllerSupportArgE
0000000000151c50  w   DF .text	0000000000000024 _ZN2nn2sf4cmif6client6detail13CmifProxyImplINS_4nifm6detail15IGeneralServiceENS2_15CmifDomainProxyINS0_4hipc6client38Hipc2ClientSessionManagedProxyKindBaseINSA_18Hipc2ProxyKindBaseILNS9_6detail11MessageTypeE4EEEEEEENS0_25StatelessAllocationPolicyINS0_22ExpHeapStaticAllocatorILm16384ENS6_21ServiceProviderClient30CreateNifmUserServiceObjectTagEEEEES7_E23_nn_sf_sync_GetClientIdENS0_3OutINS5_8ClientIdEvEE
000000000013603c g    DF .text	0000000000000018 _ZN2nn2lm6detail20LogPacketTransmitter12PushFileNameEPKcm
00000000003c3598 g    DF .text	00000000000000a0 getenv
00000000002c4e7c g    DF .text	0000000000000090 _ZN7android8Composer24setTransparentRegionHintERKNS_2spINS_21SurfaceComposerClientEEERKNS1_INS_7IBinderEEERKNS_6RegionE
000000000018120c  w   DF .text	0000000000000008 _ZN2nn2sf4cmif6client6detail13CmifProxyImplINS_7timesrv6detail7service12ISteadyClockENS2_15CmifDomainProxyINS0_4hipc6client38Hipc2ClientSessionManagedProxyKindBaseINSB_18Hipc2ProxyKindBaseILNSA_6detail11MessageTypeE4EEEEEEENS0_25StatelessAllocationPolicyINS0_22ExpHeapStaticAllocatorILm16384ENS_4time6detail7service21ServiceProviderClient30CreateTimeUserServiceObjectTagEEEEES8_E12GetProxyInfoEv
00000000001bee54 g    DF .text	0000000000000084 _ZNK2nn3mii6detail16Ver3StoreDataRaw16GetBirthPlatformEv
0000000000075b48 g    DF .text	0000000000000050 nnmem_nlib_utf32cplen
0000000000362774 g    DF .text	000000000000002c _ZNSt13runtime_errorC2ERKS_
000000000016b558 g    DF .text	0000000000000044 _ZN2nn8settings18SetXpadKeyboardMapERKNS0_20BasicXpadKeyboardMapEi
0000000000944760 g    DO .data	0000000000000038 _ZTIN2nn2fs6detail24FileServiceObjectAdapterE
00000000007f0ff0  w   DO .rodata	0000000000000051 _ZTSN2nn5audio6server8SinkInfoINS0_6common15DeviceParameterENS1_15DeviceSinkStateEEE
000000000013c68c  w   DF .text	0000000000000004 _ZNK2nn2sf13SharedPointerINS_3nfp6detail6IDebugEE19FunctionForBoolTypeEv
0000000000257940 g    DF .text	0000000000000084 _ZNK2nn3web15ShowNewsPageArg15PushToInChannelENS_6applet19LibraryAppletHandleE
00000000002c3c88 g    DF .text	00000000000000cc _ZNK7android14SurfaceControl10getSurfaceEv
0000000000812cf0  w   DO .rodata	0000000000000028 _ZTSN2nn3ldn6detail21ISystemServiceCreatorE
00000000000901b8 g    DF .text	0000000000000018 _ZN2nn2os11StartThreadEPNS0_10ThreadTypeE
00000000009562f0  w   DO .data	0000000000000018 _ZTIN2nn2sf4cmif6client6detail9CmifProxyINS_7timesrv6detail7service16ITimeZoneServiceENS2_15CmifDomainProxyINS0_4hipc6client38Hipc2ClientSessionManagedProxyKindBaseINSB_18Hipc2ProxyKindBaseILNSA_6detail11MessageTypeE4EEEEEEENS0_25StatelessAllocationPolicyINS0_22ExpHeapStaticAllocatorILm16384ENS_4time6detail7service21ServiceProviderClient30CreateTimeUserServiceObjectTagEEEEEvEE
0000000000230b78  w   DF .text	0000000000000020 _ZN2nn2sf4cmif6client6detail13CmifProxyImplINS_3hid15IHidDebugServerENS0_4hipc6client18Hipc2ProxyKindBaseILNS7_6detail11MessageTypeE4EEENS0_25StatelessAllocationPolicyINS0_22ExpHeapStaticAllocatorILm16384ENS5_6detail14HidDebugServerEEEEES6_E30_nn_sf_sync_DeactivateKeyboardEv
0000000000246da8  w   DF .text	0000000000000234 _ZZN22nerd_gillette_internal5otete11ImageCodec216EncodeWithQuintsINS0_17MaxSizedBitStreamILm876EEEEEfRT_RKNS_15StaticImageViewIhEERKNS7_IKhEEENKUlRhhhE_clESF_hh
0000000000347930  w   DF .text	000000000000000c _ZNKSt3__117moneypunct_bynameIcLb1EE16do_negative_signEv
0000000000091418 g    DF .text	0000000000000004 nnosGetWritableHandleOfSystemEvent
0000000000957bd0  w   DO .data	0000000000000018 _ZTIN2nn5audio6detail27IAudioOutManagerForDebuggerE
000000000032706c g    DF .text	0000000000000060 _ZNSt3__17promiseIvEC1Ev
0000000000347510  w   DF .text	000000000000000c _ZNKSt3__117moneypunct_bynameIcLb0EE11do_groupingEv
00000000003e63cc g    DF .text	0000000000000078 __nnmusl_DirClose
0000000000160754  w   DF .text	0000000000000020 _ZN2nn2sf4cmif6client6detail13CmifProxyImplINS_4pctl6detail3ipc23IParentalControlServiceENS2_15CmifDomainProxyINS0_4hipc6client38Hipc2ClientSessionManagedProxyKindBaseINSB_18Hipc2ProxyKindBaseILNSA_6detail11MessageTypeE4EEEEEEENS0_30MemoryResourceAllocationPolicyES8_E32_nn_sf_sync_IsRestrictionEnabledENS0_3OutIbvEE
0000000000228e70 g    DF .text	0000000000000018 _ZN2nn3hid6system25IsFirmwareUpdateAvailableEPbNS1_11UniquePadIdE
000000000097d610 g    DO .data	0000000000000010 _ZTISt9exception
00000000000d2f50 g    DF .text	0000000000000064 _ZN2nn6applet18CloseLibraryAppletENS0_19LibraryAppletHandleE
0000000000093d94 g    DF .text	0000000000000044 _ZNK2nn2os6detail11VammManager29IsVirtualAddressMemoryEnabledEv
000000000014134c g    DF .text	0000000000000168 _ZN2nn3ngc15ProfanityFilter19CheckProfanityWordsEPjjPPKcm
0000000000154704  w   DF .text	0000000000000150 _ZN2nn2sf4cmif6client34CmifDomainProxyClientCoreProcessorINS0_4hipc6client38Hipc2ClientSessionManagedProxyKindBaseINS5_18Hipc2ProxyKindBaseILNS4_6detail11MessageTypeE4EEEEENS1_6detail14CoreMethodInfoINSt3__15tupleIJNSC_18OutRawArgumentInfoILm3ELm1ELl0EEEEEELm0ELm3ELb0EEESI_E7ProcessEPNS2_23CmifDomainClientMessageISB_E15ProxyBaseObjectENS2_24OutRawClientArgumentTypeILm3ELm1EEEj
00000000001cf778  w   DF .text	0000000000000194 _ZN2nn2sf4hipc6client24Hipc2ClientCoreProcessorILNS1_6detail11MessageTypeE4ENS0_4cmif6detail14CoreMethodInfoINSt3__15tupleIJNS7_18OutRawArgumentInfoILm4ELm4ELl0EEENSB_ILm8ELm8ELl8EEENS7_18BufferArgumentInfoILi0ELi22ELm392EEENS7_17InRawArgumentInfoILm8ELm8ELl0EEENSG_ILm8ELm8ELl8EEEEEELm16ELm16ELb1EEESJ_E7ProcessEPNS2_26Hipc2ClientProxyBaseObjectENS6_6client24OutRawClientArgumentTypeILm4ELm4EEENSP_ILm8ELm8EEENSO_24BufferClientArgumentTypeENSO_23InRawClientArgumentTypeILm8ELm8EvEESU_j
0000000000269c8c g    DF .text	00000000000008d0 NvRmSurfaceWrite
0000000000359b9c g    DF .text	00000000000000e4 _ZNKSt3__115__codecvt_utf16IDiLb1EE6do_outER11__mbstate_tPKDiS5_RS5_PcS7_RS7_
00000000003dc878 g    DF .text	0000000000000038 feof
0000000000146db4 g    DF .text	00000000000001e4 _ZN2nn3ngc6detail12BinaryWriter10WriteArrayEPKhm
00000000007c68d0  w   DO .rodata	0000000000000108 _ZTSN2nn2sf4cmif6client16CmifProxyFactoryINS_2am7service16IAudioControllerENS2_15CmifDomainProxyINS0_4hipc6client38Hipc2ClientSessionManagedProxyKindBaseINS9_18Hipc2ProxyKindBaseILNS8_6detail11MessageTypeE4EEEEEEENS0_30MemoryResourceAllocationPolicyEE13ServiceObjectE
00000000002b8ab4 g    DF .text	00000000000019e0 _ZN7android17BnSurfaceComposer10onTransactEjRKNS_6ParcelEPS1_j
000000000013b394  w   DF .text	0000000000000150 _ZN2nn2sf4cmif6client34CmifDomainProxyClientCoreProcessorINS0_4hipc6client38Hipc2ClientSessionManagedProxyKindBaseINS5_18Hipc2ProxyKindBaseILNS4_6detail11MessageTypeE4EEEEENS1_6detail14CoreMethodInfoINSt3__15tupleIJNSC_17InRawArgumentInfoILm8ELm4ELl0EEENSG_ILm4ELm4ELl8EEENSG_ILm4ELm4ELl12EEEEEELm16ELm0ELb0EEESK_E7ProcessEPNS2_23CmifDomainClientMessageISB_E15ProxyBaseObjectENS2_23InRawClientArgumentTypeILm8ELm4EvEENSR_ILm4ELm4EvEEST_j
000000000039c910 g    DF .text	000000000000001c _Unwind_DeleteException
000000000011baa8 g    DF .text	0000000000000008 _ZNK2nn3err14SystemErrorArg15GetLanguageCodeEv
00000000007e5ed0  w   DO .rodata	000000000000001a _ZTSN2nn3ssl2sf11ISslContextE
000000000019efcc g    DF .text	0000000000000034 _ZN2nn5audio6server12DetailAspectD2Ev
0000000000959518  w   DO .data	0000000000000100 _ZTVN2nn2sf6detail39ObjectImplFactoryWithStatelessAllocatorINS0_4cmif6client16CmifProxyFactoryINS_3mii6detail16IDatabaseServiceENS4_15CmifDomainProxyINS0_4hipc6client38Hipc2ClientSessionManagedProxyKindBaseINSB_18Hipc2ProxyKindBaseILNSA_6detail11MessageTypeE4EEEEEEENS0_25StatelessAllocationPolicyINS0_22ExpHeapStaticAllocatorILm16384ENS7_21ServiceProviderClient30CreateNifmUserServiceObjectTagEEEEEE13ServiceObjectESO_E6ObjectE
00000000000bc1a8  w   DF .text	0000000000000008 _ZThn32_N2nn2sf4cmif6client6detail13CmifProxyImplINS_7account4http15IOAuthProcedureENS2_15CmifDomainProxyINS0_4hipc6client38Hipc2ClientSessionManagedProxyKindBaseINSA_18Hipc2ProxyKindBaseILNS9_6detail11MessageTypeE4EEEEEEENS0_25StatelessAllocationPolicyINS0_22ExpHeapStaticAllocatorILm2048ENS5_6detail12ObjectHolder24ObjectHolderAllocatorTagEEEEENS5_3nas40IOAuthProcedureForNintendoAccountLinkageEE17GetCmifBaseObjectEv
0000000000120020 g    DF .text	0000000000000140 _ZN2nn7friends19SyncBlockedUserListEPNS0_12AsyncContextERKNS_7account3UidE
0000000000214504 g    DF .text	0000000000000004 _ZN2nn3hid6detail23GetAppletResourceUserIdEv
00000000000b455c g    DF .text	0000000000000034 _ZN2nn7account22DebugSetUserStateCloseERKNS0_3UidE
00000000001870b8 g    DF .text	000000000000007c _ZN2nn5audio17GetAuxInputOutputEPKNS0_7AuxTypeEPaS4_Pii
00000000000d75b8 g    DF .text	000000000000009c _ZN2nn4bcat6detail17ShimLibraryGlobal17CreateFileServiceEPPNS1_3ipc25IDeliveryCacheFileServiceE
000000000009daa8  w   DF .text	0000000000000100 _ZN2nn2sf4hipc6server17HipcServerMessage22BeginPreparingForReplyEPNS0_6detail14PointerAndSizeE
000000000016f660 g    DF .text	0000000000000070 _ZN2nn8settings6detail39GetConsoleSixAxisSensorAccelerationGainEPNS0_6system36ConsoleSixAxisSensorAccelerationGainE
000000000022fe48 g    DF .text	0000000000000008 _ZNK2nn3hid15VibrationPlayer18GetCurrentPositionEv
000000000003bc04 g    DF .text	0000000000000008 _ZN2nn4util10StringPool14SetStringCountEi
00000000001c5898 g    DF .text	0000000000000010 _ZN2nn3mii8Database6FormatEv
0000000000001e80 g    DF .text	0000000000000004 _ZN2nn6crypto6detail6BigNumD1Ev
00000000003e00d0 g    DF .text	000000000000000c abs
0000000000804eb0 g    DO .rodata	0000000000000020 _ZN2nn4util10BitFlagSetILi256ENS_3hid11KeyboardKeyEE4FlagILi54EE4MaskE
000000000022e760 g    DF .text	0000000000000044 _ZN2nn3hid5debug22DisconnectUsbPadsAsyncEv
00000000001d277c  w   DF .text	00000000000000b0 _ZN2nn2sf6detail38ObjectImplFactoryWithStatefulAllocatorINS0_4cmif6client16CmifProxyFactoryINS_5visrv2sf19IManagerRootServiceENS0_4hipc6client18Hipc2ProxyKindBaseILNS9_6detail11MessageTypeE4EEENS0_30MemoryResourceAllocationPolicyEE13ServiceObjectESF_E6Object7ReleaseEv
00000000002c8da4 g    DF .text	0000000000000014 _ZN7android5Fence4waitEj
0000000000199084 g    DF .text	000000000000012c _ZN2nn5audio18OpenDefaultAudioInEPNS0_7AudioInEPNS_2os11SystemEventERKNS0_16AudioInParameterE
00000000003c59b4 g    DF .text	0000000000000010 gettext
00000000001a6830 g    DF .text	000000000000000c _ZNK2nn5audio6server12VoiceContext13GetSortedInfoEi
00000000007f8bf0 g    DO .rodata	0000000000000e58 _ZN2nn3mii6detail21RandomMiiEyeTypeTableE
000000000080591c g    DO .rodata	0000000000000004 _ZN2nn3hid14KeyboardLayout7ItalianE
00000000002421c8 g    DF .text	0000000000000440 _ZN22nerd_gillette_internal5otete11ImageCodec217OldDequantizationERiim
00000000001ce504  w   DF .text	0000000000000030 _ZN2nn2sf4cmif6client6detail13CmifProxyImplINS_5visrv2sf21ISystemDisplayServiceENS0_4hipc6client18Hipc2ProxyKindBaseILNS8_6detail11MessageTypeE4EEENS0_30MemoryResourceAllocationPolicyES7_E35_nn_sf_sync_SetDisplayMagnificationEmiiii
0000000000958ff0 g    DO .data	0000000000000028 _ZTVN2nn5audio6server15BufferMixerInfoE
000000000019c0d8 g    DF .text	0000000000000018 _ZN2nn5audio6server24AudioRendererManagerImpl17AudioRendererImpl8GetStateENS_2sf3OutIivEE
00000000000bae30  w   DF .text	0000000000000020 _ZN2nn2sf4cmif6client6detail13CmifProxyImplINS_7account4baas18IGuestLoginRequestENS2_15CmifDomainProxyINS0_4hipc6client38Hipc2ClientSessionManagedProxyKindBaseINSA_18Hipc2ProxyKindBaseILNS9_6detail11MessageTypeE4EEEEEEENS0_25StatelessAllocationPolicyINS0_22ExpHeapStaticAllocatorILm2048ENS5_6detail12ObjectHolder24ObjectHolderAllocatorTagEEEEENS6_28IFloatingRegistrationRequestEE38_nn_sf_sync_GetLinkedNintendoAccountIdENS0_3OutINS5_17NintendoAccountIdEvEE
0000000000239e4c g    DF .text	000000000000012c _ZN2nn8irsensor6detail15IrSensorSession25RunImageTransferProcessorERKNS0_14IrCameraHandleERKNS0_36PackedImageTransferProcessorExConfigEPvm
00000000007bc400  w   DO .rodata	000000000000019c _ZTSN2nn2sf6detail39ObjectImplFactoryWithStatelessAllocatorINS0_4cmif6client16CmifProxyFactoryINS_7account7profile8IProfileENS4_15CmifDomainProxyINS0_4hipc6client38Hipc2ClientSessionManagedProxyKindBaseINSB_18Hipc2ProxyKindBaseILNSA_6detail11MessageTypeE4EEEEEEENS0_25StatelessAllocationPolicyINS0_22ExpHeapStaticAllocatorILm2048ENS6_6detail12ObjectHolder24ObjectHolderAllocatorTagEEEEEE13ServiceObjectESP_E6ObjectE
00000000002c747c g    DF .text	000000000000009c _ZN7android21SurfaceComposerClient12setUnderscanERKNS_2spINS_7IBinderEEEi
00000000003d9800 g    DF .text	0000000000001e08 regexec
0000000000044908 g    DF .text	00000000000000b0 _ZN2nn4diag6detail8VLogImplERKNS0_11LogMetaDataEPKcSt9__va_list
000000000011aed0 g    DF .text	000000000000006c _ZN2nn3err15ResultBacktrace4MakeEPS1_PKNS_6ResultEi
000000000021cb2c g    DF .text	00000000000000bc _ZN2nn3hid6detail24GetAccelerometerPlayModeEPNS0_21AccelerometerPlayModeENS0_19SixAxisSensorHandleE
00000000001ba11c g    DF .text	0000000000000048 _ZN2nn3mii6detail11CoreDataRaw13SetGlassScaleEi
00000000000b13c8 g    DF .text	0000000000000004 _ZN2nn6socket6detail19RequestCancelHandleEv
000000000022edd4 g    DF .text	000000000000007c _ZN2nn3hid30GetActualVibrationGcErmCommandEPNS0_21VibrationGcErmCommandERKNS0_21VibrationDeviceHandleE
0000000000046f20 g    DF .text	0000000000000020 _ZN2nn2fs6detail24IsEnabledHandleAccessLogENS0_15DirectoryHandleE
000000000011fed8 g    DF .text	0000000000000148 _ZN2nn7friends11UnblockUserEPNS0_12AsyncContextERKNS_7account3UidENS3_23NetworkServiceAccountIdE
00000000000d3090 g    DF .text	00000000000000dc _ZN2nn6applet26PushToInteractiveInChannelENS0_19LibraryAppletHandleENS0_13StorageHandleE
0000000000160694  w   DF .text	0000000000000020 _ZN2nn2sf4cmif6client6detail13CmifProxyImplINS_4pctl6detail3ipc23IParentalControlServiceENS2_15CmifDomainProxyINS0_4hipc6client38Hipc2ClientSessionManagedProxyKindBaseINSB_18Hipc2ProxyKindBaseILNSA_6detail11MessageTypeE4EEEEEEENS0_30MemoryResourceAllocationPolicyES8_E41_nn_sf_sync_EnterRestrictedSystemSettingsEv
000000000021052c g    DF .text	00000000000000c8 get_os2_table
0000000000181304  w   DF .text	0000000000000008 _ZThn32_N2nn2sf4cmif6client6detail13CmifProxyImplINS_7timesrv6detail7service12ISteadyClockENS2_15CmifDomainProxyINS0_4hipc6client38Hipc2ClientSessionManagedProxyKindBaseINSB_18Hipc2ProxyKindBaseILNSA_6detail11MessageTypeE4EEEEEEENS0_25StatelessAllocationPolicyINS0_22ExpHeapStaticAllocatorILm16384ENS_4time6detail7service21ServiceProviderClient30CreateTimeUserServiceObjectTagEEEEES8_E17GetCmifBaseObjectEv
0000000000217538 g    DF .text	0000000000000060 _ZN2nn3hid6detail29UnsetHomeButtonAutoPilotStateEv
00000000007e5250  w   DO .rodata	00000000000000e3 _ZTSN2nn2sf4cmif6client6detail13CmifProxyImplINS_8settings21ISystemSettingsServerENS0_4hipc6client18Hipc2ProxyKindBaseILNS7_6detail11MessageTypeE4EEENS0_25StatelessAllocationPolicyINS0_22ExpHeapStaticAllocatorILm16384ES6_EEEES6_EE
00000000001a3820 g    DF .text	0000000000000020 _ZNK2nn5audio6server11AddressInfo19HasMappedMemoryPoolEv
00000000001bcd84 g    DF .text	0000000000000004 _ZN2nn3mii6detail12StoreDataRaw11SetEyebrowYEi
00000000000b2d0c g    DF .text	000000000000003c _ZN2nn7account16GetUserExistenceEPbRKNS0_3UidE
00000000000d79f8 g    DF .text	0000000000000080 _ZN2nn4bcat6detail3ipc8FinalizeEv
00000000001baff0 g    DF .text	0000000000000008 _ZN2nn3mii6detail24NfpStoreDataExtentionRaw13SetBeardColorEi
000000000022a154 g    DF .text	0000000000000090 _ZN2nn3hid15KeyCodeComposer14DequeueOutputsEPti
00000000001cd2b4  w   DF .text	0000000000000008 _ZThn16_N2nn2sf4cmif6client6detail13CmifProxyImplINS_5visrv2sf18ISystemRootServiceENS0_4hipc6client18Hipc2ProxyKindBaseILNS8_6detail11MessageTypeE4EEENS0_30MemoryResourceAllocationPolicyES7_E17GetCmifBaseObjectEv
00000000007d8540  w   DO .rodata	0000000000000105 _ZTSN2nn2sf4cmif6client6detail9CmifProxyINS_7friends6detail3ipc20INotificationServiceENS2_15CmifDomainProxyINS0_4hipc6client38Hipc2ClientSessionManagedProxyKindBaseINSB_18Hipc2ProxyKindBaseILNSA_6detail11MessageTypeE4EEEEEEENS0_30MemoryResourceAllocationPolicyEvEE
00000000001c7a0c g    DF .text	0000000000000008 _ZNK2nn3mii13AppletManager17GetValidUuidArrayEv
00000000007c7080  w   DO .rodata	0000000000000025 _ZTSN2nn2am7service18IDisplayControllerE
000000000011868c g    DF .text	0000000000000064 _ZN2nn5codec11OpusEncoder15SetWaveformTypeENS0_16OpusWaveformTypeE
000000000017b7a4  w   DF .text	0000000000000008 _ZThn32_N2nn2sf4cmif6client6detail13CmifProxyImplINS_3ssl2sf14ISslConnectionENS2_15CmifDomainProxyINS0_4hipc6client38Hipc2ClientSessionManagedProxyKindBaseINSA_18Hipc2ProxyKindBaseILNS9_6detail11MessageTypeE4EEEEEEENS0_24StatefulAllocationPolicyINS0_16ExpHeapAllocatorEEES7_E17GetCmifBaseObjectEv
000000000022ea18 g    DF .text	0000000000000044 _ZN2nn3hid27BeginForcedVibrationSessionEv
00000000007b1520 g    DO .rodata	000000000000002c _ZTSN2nn2fs6detail26EventNotifierObjectAdapterE
00000000007c13c0  w   DO .rodata	0000000000000031 _ZTSN2nn7account4baas28IFloatingRegistrationRequestE
00000000001ca148 g    DF .text	0000000000000010 _ZN2nn5swkbd14InlineKeyboard26SetMovedCursorCallbackUtf8EPFvPKNS0_18MovedCursorArgUtf8EE
00000000001ca128 g    DF .text	0000000000000010 _ZN2nn5swkbd14InlineKeyboard28SetChangedStringCallbackUtf8EPFvPKNS0_20ChangedStringArgUtf8EE
0000000000286d28 g    DF .text	0000000000000024 NvRmGpuChannelSetTimeslice
000000000031de3c  w   DF .text	0000000000000184 _ZNSt3__17__sort5IRNS_6__lessIttEEPtEEjT0_S5_S5_S5_S5_T_
00000000001776d0 g    DF .text	00000000000000d4 _ZN2nn8settings6detail22ResetXpadGenericPadMapEi
000000000013dfcc g    DF .text	0000000000000138 _ZN2nn3nfp29StartNicknameAndOwnerSettingsEPNS0_12DeviceHandleEPbPNS0_12RegisterInfoERKNS0_24AmiiboSettingsStartParamERKNS0_7TagInfoE
00000000001607fc  w   DF .text	0000000000000024 _ZN2nn2sf4cmif6client6detail13CmifProxyImplINS_4pctl6detail3ipc23IParentalControlServiceENS2_15CmifDomainProxyINS0_4hipc6client38Hipc2ClientSessionManagedProxyKindBaseINSB_18Hipc2ProxyKindBaseILNSA_6detail11MessageTypeE4EEEEEEENS0_30MemoryResourceAllocationPolicyES8_E40_nn_sf_sync_SetCustomSafetyLevelSettingsENS5_19RestrictionSettingsE
00000000001ce6b0  w   DF .text	0000000000000034 _ZN2nn2sf4cmif6client6detail13CmifProxyImplINS_5visrv2sf21ISystemDisplayServiceENS0_4hipc6client18Hipc2ProxyKindBaseILNS8_6detail11MessageTypeE4EEENS0_30MemoryResourceAllocationPolicyES7_E28_nn_sf_sync_ListDisplayModesENS0_3OutIlvEERKNS0_8OutArrayINS_2vi15DisplayModeInfoEEEm
000000000006b1c4 g    DF .text	0000000000000080 _ZN2nn2fs16SaveDataExporter11GetRestSizeEv
00000000001652f8 g    DF .text	0000000000000010 _ZN2nn5prepo10PlayReportC1Ev
00000000003b91d0 g    DF .text	0000000000000084 strtok_r
00000000007c43a0  w   DO .rodata	000000000000002f _ZTSN2nn7account31NintendoAccountLinkageProcedureE
000000000016fd60 g    DF .text	0000000000000070 _ZN2nn8settings6detail24SetInitialLaunchSettingsERKNS0_6system21InitialLaunchSettingsE
00000000002c5b14 g    DF .text	000000000000001c _ZN7android21SurfaceComposerClient15setSurfaceARUIDERKNS_2spINS_7IBinderEEERKN2nn6applet20AppletResourceUserIdE
0000000000174fc8  w   DF .text	0000000000000020 _ZN2nn2sf4cmif6client6detail13CmifProxyImplINS_8settings21ISystemSettingsServerENS0_4hipc6client18Hipc2ProxyKindBaseILNS7_6detail11MessageTypeE4EEENS0_25StatelessAllocationPolicyINS0_22ExpHeapStaticAllocatorILm16384ES6_EEEES6_E50_nn_sf_sync_GetPushNotificationActivityModeOnSleepENS0_3OutIivEE
000000000022d998 g    DF .text	0000000000000060 _ZN2nn3hid20GetTouchScreenStatesILm4EEEiPNS0_16TouchScreenStateIXT_EEEi
00000000007abc0a g    DO .rodata	0000000000000200 nnutilZlib__dist_code
0000000000367458  w   DF .text	00000000000000f0 _ZNSt3__112basic_stringIwNS_11char_traitsIwEENS_9allocatorIwEEE6__initEPKwmm
000000000006f960 g    DF .text	0000000000000048 _ZN2nn4lmem14CreateUnitHeapEPvmmiiNS0_13InfoPlacementE
000000000009be08 g    DF .text	000000000000001c _ZN2nn2sf4hipc6detail25HipcMessageBufferAccessor14SetReceiveListEimm
000000000021400c g    DF .text	0000000000000010 nnfontllFsReadFile
000000000015863c g    DF .text	0000000000000048 _ZN2nn3nsd34DisableChangeEnvironmentIdentifierEv
00000000003e3bb8 g    DF .text	0000000000000010 pthread_condattr_init
00000000000ab7c4  w   DF .text	00000000000001f0 _ZN2nn2sf4cmif6client34CmifDomainProxyClientCoreProcessorINS0_4hipc6client38Hipc2ClientSessionManagedProxyKindBaseINS5_18Hipc2ProxyKindBaseILNS4_6detail11MessageTypeE4EEEEENS1_6detail14CoreMethodInfoINSt3__15tupleIJNSC_18OutRawArgumentInfoILm4ELm4ELl0EEENSG_ILm4ELm4ELl4EEENSC_17InRawArgumentInfoILm4ELm4ELl0EEENSC_18BufferArgumentInfoILi0ELi34ELm0EEEEEELm4ELm8ELb0EEESN_E7ProcessEPNS2_23CmifDomainClientMessageISB_E15ProxyBaseObjectENS2_24OutRawClientArgumentTypeILm4ELm4EEESV_NS2_23InRawClientArgumentTypeILm4ELm4EvEENS2_24BufferClientArgumentTypeEj
0000000000147148 g    DF .text	00000000000001b0 _ZN2nn3ngc6detail12BinaryWriter10WriteArrayEPKjm
00000000001b14f4 g    DF .text	0000000000000048 _ZN2nn2ec26ShowShopConsumableItemListENS_13ApplicationIdERKNS_7account10UserHandleE
0000000000332fa0  w   DF .text	00000000000000cc _ZNSt3__114basic_iostreamIcNS_11char_traitsIcEEEC2EPNS_15basic_streambufIcS2_EE
00000000001bb5c4 g    DF .text	000000000000000c _ZN2nn3mii6detail19GetNicknameQuestionEPNS0_8NicknameE
00000000000bb238  w   DF .text	0000000000000008 _ZN2nn2sf4cmif6client6detail13CmifProxyImplINS_7account4baas12IManagerBaseENS2_15CmifDomainProxyINS0_4hipc6client38Hipc2ClientSessionManagedProxyKindBaseINSA_18Hipc2ProxyKindBaseILNS9_6detail11MessageTypeE4EEEEEEENS0_25StatelessAllocationPolicyINS0_22ExpHeapStaticAllocatorILm2048ENS5_6detail12ObjectHolder24ObjectHolderAllocatorTagEEEEENS6_14IAdministratorEE12GetProxyInfoEv
00000000000cfc98  w   DF .text	0000000000000058 _ZN2nn2sf6detail38ObjectImplFactoryWithStatefulAllocatorINS0_4cmif6client16CmifProxyFactoryINS_2am7service24IApplicationProxyServiceENS4_15CmifDomainProxyINS0_4hipc6client38Hipc2ClientSessionManagedProxyKindBaseINSB_18Hipc2ProxyKindBaseILNSA_6detail11MessageTypeE4EEEEEEENS0_30MemoryResourceAllocationPolicyEE13ServiceObjectESJ_E6Object7ReleaseEv
000000000018c4a8 g    DF .text	000000000000002c _ZN2nn5audio16VoiceInfoManagerC1Ev
000000000034713c  w   DF .text	0000000000000008 _ZNKSt3__110moneypunctIwLb1EE14do_frac_digitsEv
00000000001cbe44 g    DF .text	0000000000000024 _ZN2nn2vi18GetBlockingServiceEv
00000000001e1fa4 g    DF .text	0000000000000844 FSS_get_advance
00000000000ce9dc  w   DF .text	0000000000000024 _ZN2nn2sf4cmif6client6detail13CmifProxyImplINS_2am7service21IApplicationFunctionsENS2_15CmifDomainProxyINS0_4hipc6client38Hipc2ClientSessionManagedProxyKindBaseINSA_18Hipc2ProxyKindBaseILNS9_6detail11MessageTypeE4EEEEEEENS0_30MemoryResourceAllocationPolicyES7_E26_nn_sf_sync_ExtendSaveDataENS0_3OutIlvEEhRKNS_7account3UidEll
00000000001dd9a0 g    DF .text	0000000000000124 FS_init_ex
0000000000141128 g    DF .text	000000000000001c _ZN2nn3ngc15ProfanityFilterC1EPvm
00000000002a63dc g    DF .text	0000000000000080 property_get
000000000004c958  w   DF .text	0000000000000004 _ZN2nn2fs3fsa5IFileD2Ev
00000000000b54c8  w   DF .text	0000000000000024 _ZN2nn2sf4cmif6client6detail13CmifProxyImplINS_7account7profile8IProfileENS2_15CmifDomainProxyINS0_4hipc6client38Hipc2ClientSessionManagedProxyKindBaseINSA_18Hipc2ProxyKindBaseILNS9_6detail11MessageTypeE4EEEEEEENS0_25StatelessAllocationPolicyINS0_22ExpHeapStaticAllocatorILm2048ENS5_6detail12ObjectHolder24ObjectHolderAllocatorTagEEEEES7_E15_nn_sf_sync_GetENS0_3OutINS6_11ProfileBaseEvEENSQ_INS6_8UserDataEvEE
00000000003dcda8 g    DF .text	000000000000014c __fgetwc_unlocked
00000000003b83f8 g    DF .text	0000000000000090 strtold
00000000000cbb4c  w   DF .text	00000000000000ac _ZN2nn2sf4cmif6client32GetClientProcessorWithObjectBaseINS2_15CmifDomainProxyINS0_4hipc6client38Hipc2ClientSessionManagedProxyKindBaseINS6_18Hipc2ProxyKindBaseILNS5_6detail11MessageTypeE4EEEEEEEE14ObjectAssignerINS0_30MemoryResourceAllocationPolicyENS_14MemoryResourceEE14AllocateObjectINS_2am7service19ILibraryAppletProxyEEEvi
000000000029e5bc g    DF .text	000000000000009c _ZN7android6Parcel19writeInterfaceTokenERKNS_8String16E
00000000007ca4f0  w   DO .rodata	0000000000000106 _ZTSN2nn2sf4cmif6client6detail13CmifProxyImplINS_2am7service22IGlobalStateControllerENS2_15CmifDomainProxyINS0_4hipc6client38Hipc2ClientSessionManagedProxyKindBaseINSA_18Hipc2ProxyKindBaseILNS9_6detail11MessageTypeE4EEEEEEENS0_30MemoryResourceAllocationPolicyES7_EE
0000000000341cfc  w   DF .text	000000000000005c _ZNKSt3__18time_getIcNS_19istreambuf_iteratorIcNS_11char_traitsIcEEEEE10__get_hourERiRS4_S4_RjRKNS_5ctypeIcEE
0000000000177c58 g    DF .text	0000000000000020 _ZN2nn3ssl7Context12GetContextIdEPm
000000000018aae4 g    DF .text	0000000000000040 _ZN2nn5audio15ReleaseSplitterEPNS0_19AudioRendererConfigEPNS0_12SplitterTypeE
00000000003e0d18 g    DF .text	0000000000000094 strtoll
000000000008f24c g    DF .text	0000000000000034 _ZN2nn2os21UnlinkMultiWaitHolderEPNS0_19MultiWaitHolderTypeE
000000000002e2c8 g    DF .text	00000000000002d4 _ZN2nn5image6detail31GetBufferSizeForJpegCompressionEPmRKNS0_9DimensionENS0_17JpegSamplingRatioE
0000000000258790 g    DF .text	000000000000013c nvdcSetCmu
00000000000402cc g    DF .text	0000000000000044 _ZN2nn4util30ConvertStringUtf16NativeToUtf8EPciPKti
000000000006f544 g    DF .text	000000000000003c _ZN2nn4lmem15CreateFrameHeapEPvmi
00000000002d2338 g    DF .text	0000000000000090 _ZN7android10VectorImpl12appendVectorERKS0_
0000000000822520  w   DO .rodata	000000000000002f _ZTSNSt3__113basic_istreamIcNS_11char_traitsIcEEEE
0000000000803fd0  w   DO .rodata	0000000000000053 _ZTSN2nn3hid6detail8RingLifoINS0_18SixAxisSensorStateELi16ENS1_13AtomicStorageIS3_EEEE
000000000007228c g    DF .text	0000000000000230 nnmem_nlib_vdprintf
00000000003e78f8  w   DF .text	0000000000000004 __nnmusl_pthread_once_lock_finalize
000000000021a470 g    DF .text	0000000000000074 _ZN2nn3hid6detail24SetSupportedNpadStyleSetENS_4util10BitFlagSetILi32ENS0_12NpadStyleTagEEE
000000000094bb98  w   DO .data	0000000000000120 _ZTVN2nn2sf6detail38ObjectImplFactoryWithStatefulAllocatorINS0_4cmif6client16CmifProxyFactoryINS_2am7service18ICommonStateGetterENS4_15CmifDomainProxyINS0_4hipc6client38Hipc2ClientSessionManagedProxyKindBaseINSB_18Hipc2ProxyKindBaseILNSA_6detail11MessageTypeE4EEEEEEENS0_30MemoryResourceAllocationPolicyEE13ServiceObjectESJ_E6ObjectE
0000000000182bfc g    DF .text	000000000000005c _ZN2nn3ntc4shim30EnsureNetworkClockAvailabilityEv
0000000000318a44  w   DF .text	0000000000000008 _ZN2nn2sf6detail38ObjectImplFactoryWithStatefulAllocatorINS0_4cmif6client16CmifProxyFactoryINS_3pcv6detail11IPcvServiceENS0_4hipc6client18Hipc2ProxyKindBaseILNS9_6detail11MessageTypeE4EEENS0_30MemoryResourceAllocationPolicyEE13ServiceObjectESF_E6Object12AddReferenceEv
0000000000041c88 g    DF .text	0000000000000254 _ZN2nn4edid6detail21GetEstablishedTimingIEPFbPKNS0_15DisplayModeInfoEPKNS0_17DisplayTimingInfoEPKNS0_13ImageSizeInfoEPvESB_h
00000000001a3570 g    DF .text	000000000000005c _ZNK2nn5audio6server10PoolMapper3MapEPNS1_14MemoryPoolInfoE
000000000095da38  w   DO .data	00000000000000e0 _ZTVN2nn2sf6detail39ObjectImplFactoryWithStatelessAllocatorINS0_4cmif6client16CmifProxyFactoryINS_8irsensor15IIrSensorServerENS0_4hipc6client18Hipc2ProxyKindBaseILNS8_6detail11MessageTypeE4EEENS0_25StatelessAllocationPolicyINS0_22ExpHeapStaticAllocatorILm16384ENS6_6detail14IrSensorServerEEEEEE13ServiceObjectESJ_E6ObjectE
00000000007cec90  w   DO .rodata	00000000000000fa _ZTSN2nn2sf4cmif6client6detail9CmifProxyINS_4bcat6detail3ipc12IBcatServiceENS2_15CmifDomainProxyINS0_4hipc6client38Hipc2ClientSessionManagedProxyKindBaseINSB_18Hipc2ProxyKindBaseILNSA_6detail11MessageTypeE4EEEEEEENS0_30MemoryResourceAllocationPolicyEvEE
00000000000c2278 g    DF .text	0000000000000028 _ZN2nn7account13ProfileEditorD1Ev
00000000000c2a40 g    DF .text	000000000000004c _ZN2nn2am20GetDisplayControllerEv
00000000000665e0 g    DF .text	0000000000000010 _ZN2nn2fs18IsSaveDataExistingERKNS0_6UserIdE
0000000000070320 g    DF .text	0000000000000028 _ZN2nn4lmem6detail23GetExpHeapTotalFreeSizeEPNS1_8HeapHeadE
000000000018d7ac g    DF .text	0000000000000008 _ZNK2nn5audio6common10NodeStates12GetNodeCountEv
0000000000238f80 g    DF .text	0000000000000140 _ZN2nn8irsensor6detail13StatusManager9ClearLifoERKNS0_14IrCameraHandleE
0000000000297d3c g    DF .text	0000000000000148 _ZN7android8BnMemory10onTransactEjRKNS_6ParcelEPS1_j
0000000000824000 g    DO .rodata	000000000000001e _ZTSNSt3__119__shared_weak_countE
0000000000286de4 g    DF .text	0000000000000014 NvRmGpuRegOpsSessionClose
000000000013f76c g    DF .text	0000000000000134 _ZN2nn3nfp29StartNicknameAndOwnerSettingsEPNS0_7TagInfoEPNS0_12DeviceHandleEPbPNS0_12RegisterInfoERKNS0_24AmiiboSettingsStartParamE
000000000017eb1c g    DF .text	0000000000000018 _ZN2nn4time39AsyncEnsureNetworkClockAvailabilityTask9StartTaskEv
00000000002696b8 g    DF .text	000000000000008c NvRmChipGetCapabilityBool
000000000006b244 g    DF .text	000000000000008c _ZN2nn2fs16SaveDataImporterC2EONS_2sf13SharedPointerINS_5fssrv2sf17ISaveDataImporterEEE
00000000007c3e30  w   DO .rodata	0000000000000028 _ZTSN2nn7account24IBaasAccessTokenAccessorE
000000000011dd20 g    DF .text	00000000000000b4 _ZN2nn7friends9SetOptionEiz
00000000001c3288 g    DF .text	0000000000000010 _ZN2nn3mii6detail16Ver3StoreDataRaw12SetLocalonlyEi
000000000021e1e4 g    DF .text	00000000000000b8 _ZN2nn3hid6detail20BindNfcActivateEventERjPNS_2os15SystemEventTypeENS3_14EventClearModeE
000000000022dd58 g    DF .text	0000000000000060 _ZN2nn3hid20GetTouchScreenStatesILm14EEEiPNS0_16TouchScreenStateIXT_EEEi
00000000000d6ea4 g    DF .text	0000000000000044 _ZN2nn4bcat21DeliveryCacheProgress6DetachEv
000000000095c9c8 g    DO .data	0000000000000028 _ZTVN2nn3hid15VibrationWriterE
00000000000c5dc4  w   DF .text	0000000000000058 _ZN2nn2sf6detail38ObjectImplFactoryWithStatefulAllocatorINS0_4cmif6client16CmifProxyFactoryINS_2am7service18ICommonStateGetterENS4_15CmifDomainProxyINS0_4hipc6client38Hipc2ClientSessionManagedProxyKindBaseINSB_18Hipc2ProxyKindBaseILNSA_6detail11MessageTypeE4EEEEEEENS0_30MemoryResourceAllocationPolicyEE13ServiceObjectESJ_E6Object7ReleaseEv
00000000003ab0d4 g    DF .text	0000000000000004 pthread_getschedparam
000000000036c13c g    DF .text	0000000000000034 _ZNSt3__19strstreamD0Ev
000000000024ee80  w   DF .text	0000000000000004 _ZNK2nn2sf13SharedPointerINS_6capsrv2sf30IMovieWriteStreamServiceObjectEE19FunctionForBoolTypeEv
00000000002204fc g    DF .text	0000000000000068 _ZN2nn3hid6detail18SharedMemoryHolder10InitializeEv
0000000000155a10 g    DF .text	0000000000000060 _ZN2nn4nifm8ShutdownEv
000000000004d76c g    DF .text	0000000000000084 _ZN2nn2fs6detail18FileSystemAccessor25CleanDirectoryRecursivelyEPKc
0000000000328050 g    DF .text	0000000000000108 _ZNSt3__120__threads_data_queue12acquire_nodeEv
00000000003de58c g    DF .text	0000000000000074 snprintf
0000000000089cc4 g    DF .text	0000000000000024 _ZN2nn3mem17StandardAllocatorC2EPvm
00000000001e3540 g    DF .text	0000000000000048 __term_heap
0000000000360ed0 g    DF .text	0000000000000008 _ZNKSt3__119__shared_weak_count13__get_deleterERKSt9type_info
000000000013f514 g    DF .text	00000000000000c4 _ZN2nn3nfp18DeleteRegisterInfoERKNS0_12DeviceHandleE
00000000002c6274 g    DF .text	00000000000000bc _ZN7android21SurfaceComposerClient8setLayerERKNS_2spINS_7IBinderEEEi
0000000000979220 g    DO .data	0000000000000010 _ZTINSt3__18__c_nodeE
00000000000c6de0  w   DF .text	0000000000000024 _ZN2nn2sf4cmif6client6detail13CmifProxyImplINS_2am7service15ISelfControllerENS2_15CmifDomainProxyINS0_4hipc6client38Hipc2ClientSessionManagedProxyKindBaseINSA_18Hipc2ProxyKindBaseILNS9_6detail11MessageTypeE4EEEEEEENS0_30MemoryResourceAllocationPolicyES7_E36_nn_sf_sync_SetRestartMessageEnabledEb
00000000001af888 g    DF .text	00000000000000ac _ZN2nn5audio3dsp8ApplyMixEPiPKiii
0000000000953700  w   DO .data	0000000000000048 _ZTIN2nn2sf4cmif6client6detail13CmifProxyImplINS_4nifm6detail15IGeneralServiceENS2_15CmifDomainProxyINS0_4hipc6client38Hipc2ClientSessionManagedProxyKindBaseINSA_18Hipc2ProxyKindBaseILNS9_6detail11MessageTypeE4EEEEEEENS0_25StatelessAllocationPolicyINS0_22ExpHeapStaticAllocatorILm16384ENS6_21ServiceProviderClient30CreateNifmUserServiceObjectTagEEEEES7_EE
00000000003e5eb4 g    DF .text	0000000000000158 __nnmusl_PRead
0000000000060a88 g    DF .text	0000000000000148 _ZN2nn2fs34OpenGameCardDetectionEventNotifierEPNSt3__110unique_ptrINS0_14IEventNotifierENS1_14default_deleteIS3_EEEE
00000000002cd794 g    DF .text	0000000000000060 _ZNK7android7RefBase14forceIncStrongEPKv
00000000003cc2a8 g    DF .text	00000000000001c0 log10
00000000001568c4 g    DF .text	0000000000000018 _ZN2nn4nifm38SetRequestConnectionConfirmationOptionENS0_13RequestHandleENS0_28ConnectionConfirmationOptionE
0000000000234c48  w   DF .text	000000000000002c _ZN2nn2sf4cmif6client6detail13CmifProxyImplINS_3hid16IHidSystemServerENS0_4hipc6client18Hipc2ProxyKindBaseILNS7_6detail11MessageTypeE4EEENS0_25StatelessAllocationPolicyINS0_22ExpHeapStaticAllocatorILm16384ENS5_6detail15HidSystemServerEEEEES6_E41_nn_sf_sync_GetPlayReportControllerUsagesENS0_3OutIlvEERKNS0_8OutArrayINS5_6system25PlayReportControllerUsageEEE
0000000000123904 g    DF .text	0000000000000008 _ZNK2nn7friends13FriendSetting12GetNewlyFlagEv
000000000022044c  w   DF .text	0000000000000004 _ZN2nn3hid6detail8RingLifoINS1_15UniquePadConfigELi1ENS1_13AtomicStorageIS3_EEED2Ev
000000000022fb3c g    DF .text	0000000000000048 _ZNK2nn3hid23VibrationNodeConnection11IsConnectedEv
0000000000358b6c g    DF .text	0000000000000170 _ZNKSt3__114__codecvt_utf8IDsE9do_lengthER11__mbstate_tPKcS5_m
00000000007b6f50  w   DO .rodata	0000000000000020 _ZTSN2nn3htc4tenv15IServiceManagerE
0000000000015968 g    DF .text	0000000000000364 _ZN2nn5image6detail4jpeg23jpeg_default_colorspaceEPNS2_20jpeg_compress_structE
00000000007b87a0 g    DO .rodata	0000000000000036 _ZTSN2nn2os6detail36MultiWaitHolderOfMessageQueueNotFullE
000000000019c4f4 g    DF .text	0000000000000044 _ZN2nn5audio6server24AudioRendererManagerImplD0Ev
00000000008223ac g    DO .rodata	0000000000000004 _ZNSt3__18ios_base8showbaseE
0000000000172708  w   DF .text	0000000000000008 _ZThn16_N2nn2sf4cmif6client6detail13CmifProxyImplINS_8settings28IFirmwareDebugSettingsServerENS0_4hipc6client18Hipc2ProxyKindBaseILNS7_6detail11MessageTypeE4EEENS0_25StatelessAllocationPolicyINS0_22ExpHeapStaticAllocatorILm16384ES6_EEEES6_E17GetCmifBaseObjectEv
000000000012a6fc  w   DF .text	0000000000000020 _ZN2nn2sf4cmif6client6detail13CmifProxyImplINS_7friends6detail3ipc20INotificationServiceENS2_15CmifDomainProxyINS0_4hipc6client38Hipc2ClientSessionManagedProxyKindBaseINSB_18Hipc2ProxyKindBaseILNSA_6detail11MessageTypeE4EEEEEEENS0_30MemoryResourceAllocationPolicyES8_E20_nn_sf_sync_GetEventENS0_3OutINS0_12NativeHandleEvEE
000000000018021c g    DF .text	000000000000006c _ZN2nn4time6detail7service21ServiceProviderClientD2Ev
0000000000152b40  w   DF .text	0000000000000024 _ZN2nn2sf4cmif6client6detail13CmifProxyImplINS_4nifm6detail8IRequestENS2_15CmifDomainProxyINS0_4hipc6client38Hipc2ClientSessionManagedProxyKindBaseINSA_18Hipc2ProxyKindBaseILNS9_6detail11MessageTypeE4EEEEEEENS0_25StatelessAllocationPolicyINS0_22ExpHeapStaticAllocatorILm16384ENS6_21ServiceProviderClient30CreateNifmUserServiceObjectTagEEEEES7_E38_nn_sf_sync_UnregisterSocketDescriptorEi
00000000002592a4 g    DF .text	0000000000000008 nvdcEnableVblank
00000000000c1cf4 g    DF .text	0000000000000030 _ZN2nn7account48NintendoAccountApplicationAuthorizationProcedureC2ERKNS0_3UidEPNS0_4http15IOAuthProcedureE
00000000001bafb0 g    DF .text	0000000000000008 _ZNK2nn3mii6detail24NfpStoreDataExtentionRaw13GetGlassColorEv
00000000003dd80c g    DF .text	000000000000008c __ftello
00000000001d5c0c g    DF .text	00000000000000cc _ZN2nn2vi6detail18SystemServiceProxyC2Ev
00000000003cab1c g    DF .text	0000000000000074 frexp
0000000000264794 g    DF .text	0000000000000004 multimedia_DebugVprintf
000000000094dca0  w   DO .data	0000000000000038 _ZTIN2nn2sf6detail38ObjectImplFactoryWithStatefulAllocatorINS0_4cmif6client16CmifProxyFactoryINS_2am7service26ILibraryAppletSelfAccessorENS4_15CmifDomainProxyINS0_4hipc6client38Hipc2ClientSessionManagedProxyKindBaseINSB_18Hipc2ProxyKindBaseILNSA_6detail11MessageTypeE4EEEEEEENS0_30MemoryResourceAllocationPolicyEE13ServiceObjectESJ_E6ObjectE
000000000025a160 g    DF .text	0000000000000188 nvdcGetModeDB2
00000000003e92b8 g    DF .text	000000000000000c __nnmusl_ErrnoLocation
00000000001e0a48 g    DF .text	00000000000000d0 FSS_get_glyph_metrics
00000000003dfc14 g    DF .text	0000000000000040 vwprintf
0000000000804a10 g    DO .rodata	0000000000000020 _ZN2nn4util10BitFlagSetILi256ENS_3hid11KeyboardKeyEE4FlagILi17EE4MaskE
00000000007f0c90 g    DO .rodata	0000000000000021 _ZTSN2nn5audio6server12DetailAspectE
00000000000cea24  w   DF .text	0000000000000020 _ZN2nn2sf4cmif6client6detail13CmifProxyImplINS_2am7service21IApplicationFunctionsENS2_15CmifDomainProxyINS0_4hipc6client38Hipc2ClientSessionManagedProxyKindBaseINSA_18Hipc2ProxyKindBaseILNS9_6detail11MessageTypeE4EEEEEEENS0_30MemoryResourceAllocationPolicyES7_E54_nn_sf_sync_BeginBlockingHomeButtonShortAndLongPressedEl
0000000000357f58 g    DF .text	0000000000000024 _ZNSt3__17codecvtIDic11__mbstate_tED0Ev
000000000018d9c4 g    DF .text	0000000000000030 _ZN2nn5audio13DelayLineTickEPNS0_11FXDelayLineEi
0000000000295458 g    DF .text	0000000000000078 _ZTv0_n24_N7android7BBinderD0Ev
0000000000232bd4  w   DF .text	0000000000000008 _ZThn16_N2nn2sf4cmif6client6detail13CmifProxyImplINS_3hid15IAppletResourceENS0_4hipc6client18Hipc2ProxyKindBaseILNS7_6detail11MessageTypeE4EEENS0_25StatelessAllocationPolicyINS0_22ExpHeapStaticAllocatorILm16384ENS5_6detail9HidServerEEEEES6_E17GetCmifBaseObjectEv
00000000003d3460 g    DF .text	000000000000002c rand
000000000094fb40  w   DO .data	0000000000000018 _ZTIN2nn4bcat6detail3ipc29IDeliveryCacheProgressServiceE
0000000000954fe0  w   DO .data	0000000000000038 _ZTIN2nn2sf6detail39ObjectImplFactoryWithStatelessAllocatorINS0_4cmif6client16CmifProxyFactoryINS_8settings24ISettingsItemKeyIteratorENS0_4hipc6client18Hipc2ProxyKindBaseILNS8_6detail11MessageTypeE4EEENS0_25StatelessAllocationPolicyINS0_22ExpHeapStaticAllocatorILm16384ENS6_28IFirmwareDebugSettingsServerEEEEEE13ServiceObjectESI_E6ObjectE
0000000000162998  w   DF .text	0000000000000264 _ZN2nn2sf4cmif6client34CmifDomainProxyClientCoreProcessorINS0_4hipc6client38Hipc2ClientSessionManagedProxyKindBaseINS5_18Hipc2ProxyKindBaseILNS4_6detail11MessageTypeE4EEEEENS1_6detail14CoreMethodInfoINSt3__15tupleIJNSC_18OutRawArgumentInfoILm8ELm4ELl0EEENSC_21OutHandleArgumentInfoILi0ELi1EEENSG_ILm4ELm4ELl8EEENSC_18BufferArgumentInfoILi0ELi6ELm0EEENSC_17InRawArgumentInfoILm16ELm8ELl0EEEEEELm16ELm12ELb0EEESP_E7ProcessEPNS2_23CmifDomainClientMessageISB_E15ProxyBaseObjectENS2_24OutRawClientArgumentTypeILm8ELm4EEENS2_27OutHandleClientArgumentTypeENSW_ILm4ELm4EEENS2_24BufferClientArgumentTypeENS2_23InRawClientArgumentTypeILm16ELm8EvEEj
0000000000805450 g    DO .rodata	0000000000000020 _ZN2nn4util10BitFlagSetILi256ENS_3hid11KeyboardKeyEE4FlagILi99EE4MaskE
0000000000065b94  w   DF .text	000000000000000c _ZN2nn2fs26ReadOnlyFileSystemTemplateINSt3__110unique_ptrINS0_3fsa11IFileSystemENS2_14default_deleteIS5_EEEEE17DoCreateDirectoryEPKc
00000000001712c4  w   DF .text	0000000000000020 _ZN2nn2sf4cmif6client6detail13CmifProxyImplINS_8settings22IFactorySettingsServerENS0_4hipc6client18Hipc2ProxyKindBaseILNS7_6detail11MessageTypeE4EEENS0_25StatelessAllocationPolicyINS0_22ExpHeapStaticAllocatorILm16384ES6_EEEES6_E31_nn_sf_sync_GetSpeakerParameterENS0_3OutINS5_7factory16SpeakerParameterEvEE
0000000000124ad4 g    DF .text	0000000000000038 _ZN2nn7friends6detail20AsyncContextInternal6CancelEv
0000000000234c74  w   DF .text	0000000000000020 _ZN2nn2sf4cmif6client6detail13CmifProxyImplINS_3hid16IHidSystemServerENS0_4hipc6client18Hipc2ProxyKindBaseILNS7_6detail11MessageTypeE4EEENS0_25StatelessAllocationPolicyINS0_22ExpHeapStaticAllocatorILm16384ENS5_6detail15HidSystemServerEEEEES6_E56_nn_sf_sync_AcquirePlayReportRegisteredDeviceUpdateEventENS0_3OutINS0_12NativeHandleEvEE
00000000002ce464 g    DF .text	0000000000000054 _ZN7android8String165setToERKS0_
000000000094fc90  w   DO .data	0000000000000018 _ZTIN2nn4bcat6detail3ipc28IDeliveryCacheStorageServiceE
00000000003130a0 g    DF .text	0000000000000248 _ZN2nn3fgm7Request10InitializeENS0_6ModuleEjNS_2os14EventClearModeE
00000000000a8cac  w   DF .text	000000000000021c _ZN2nn2sf4hipc6client24Hipc2ClientCoreProcessorILNS1_6detail11MessageTypeE4ENS0_4cmif6detail14CoreMethodInfoINSt3__15tupleIJNS7_18OutRawArgumentInfoILm4ELm4ELl0EEENSB_ILm4ELm4ELl4EEENS7_17InRawArgumentInfoILm4ELm4ELl0EEENS7_18BufferArgumentInfoILi0ELi33ELm0EEENSE_ILm4ELm4ELl4EEENSG_ILi1ELi33ELm0EEENSE_ILm4ELm4ELl8EEEEEELm12ELm8ELb0EEESL_E7ProcessEPNS2_26Hipc2ClientProxyBaseObjectENS6_6client24OutRawClientArgumentTypeILm4ELm4EEESS_NSQ_23InRawClientArgumentTypeILm4ELm4EvEENSQ_24BufferClientArgumentTypeESU_SV_SU_j
0000000000335e84  w   DF .text	0000000000000480 _ZNKSt3__17num_getIcNS_19istreambuf_iteratorIcNS_11char_traitsIcEEEEE17__do_get_unsignedImEES4_S4_S4_RNS_8ios_baseERjRT_
00000000000118e8 g    DF .text	00000000000000e0 _ZN2nn5image6detail4jpeg23jinit_c_main_controllerEPNS2_20jpeg_compress_structEb
00000000007fd3a8 g    DO .rodata	0000000000000e58 _ZN2nn3mii6detail26RandomMiiFacelineMakeTableE
00000000001d62fc g    DF .text	00000000000000f8 _ZN2nn2vi6detail18SystemServiceProxy26InitializeRelayServiceImplEv
000000000025d0bc g    DF .text	000000000000000c NvOsStat
00000000001bcd74 g    DF .text	0000000000000004 _ZN2nn3mii6detail12StoreDataRaw15SetEyebrowScaleEi
00000000001890f4 g    DF .text	0000000000000014 _ZN2nn5audio14MemoryPoolInfoC2Ev
000000000097bc30  w   DO .data	0000000000000038 _ZTINSt3__115time_get_bynameIwNS_19istreambuf_iteratorIwNS_11char_traitsIwEEEEEE
00000000000b4528 g    DF .text	0000000000000034 _ZN2nn7account21DebugSetUserStateOpenERKNS0_3UidE
0000000000122460 g    DF .text	0000000000000008 _ZNK2nn7friends13FriendRequest16GetRequestStatusEv
0000000000359798 g    DF .text	000000000000000c _ZNKSt3__115__codecvt_utf16IDsLb1EE10do_unshiftER11__mbstate_tPcS4_RS4_
0000000000344638 g    DF .text	000000000000029c _ZNSt3__118__time_get_storageIcEC1EPKc
00000000000dd4ac g    DF .text	0000000000000384 comb_filter
00000000001a4d50 g    DF .text	0000000000000008 _ZNK2nn5audio6server12SinkInfoBase10ShouldSkipEv
000000000019ede4 g    DF .text	00000000000000a0 _ZN2nn5audio6server11EntryAspectC2EPNS1_16CommandGeneratorENS0_20PerformanceEntryTypeEj
00000000002cdeac g    DF .text	0000000000000010 _ZNK7android12SharedBuffer11attemptEditEv
00000000003c3314  w   DF .text	0000000000000014 alphasort64
00000000000b8680  w   DF .text	0000000000000158 _ZN2nn2sf4cmif6client34CmifDomainProxyClientCoreProcessorINS0_4hipc6client38Hipc2ClientSessionManagedProxyKindBaseINS5_18Hipc2ProxyKindBaseILNS4_6detail11MessageTypeE4EEEEENS1_6detail14CoreMethodInfoINSt3__15tupleIJNSC_18OutRawArgumentInfoILm4ELm4ELl0EEENSC_17InRawArgumentInfoILm8ELm8ELl0EEEEEELm8ELm4ELb0EEESK_E7ProcessEPNS2_23CmifDomainClientMessageISB_E15ProxyBaseObjectENS2_24OutRawClientArgumentTypeILm4ELm4EEENS2_23InRawClientArgumentTypeILm8ELm8EvEEj
000000000009bba0 g    DF .text	000000000000000c _ZN2nn2sf4hipc6detail25HipcMessageBufferAccessor12SetProcessIdEm
000000000017d3cc g    DF .text	000000000000007c _ZN2nn4time25AdjustableUserSystemClock3nowEv
00000000001d3d6c g    DF .text	0000000000000038 _ZN2nn2vi26GetDisplayIdWithValidationEPKNS0_7DisplayE
0000000000318700 g    DF .text	0000000000000068 _ZN2nn3pcv14ReleaseControlENS0_6ModuleE
00000000000ac9bc g    DF .text	000000000000006c _ZN2nn6socket8resolver9GetOptionENS1_6Option4typeERm
00000000001608f8  w   DF .text	000000000000002c _ZN2nn2sf4cmif6client6detail13CmifProxyImplINS_4pctl6detail3ipc23IParentalControlServiceENS2_15CmifDomainProxyINS0_4hipc6client38Hipc2ClientSessionManagedProxyKindBaseINSB_18Hipc2ProxyKindBaseILNSA_6detail11MessageTypeE4EEEEEEENS0_30MemoryResourceAllocationPolicyES8_E50_nn_sf_sync_UpdateFreeCommunicationApplicationListERKNS0_7InArrayINS5_32FreeCommunicationApplicationInfoEEE
000000000018b2e8 g    DF .text	00000000000001a0 _ZN2nn5audio19SplitterInfoManager19AcquireSplitterInfoEiii
000000000022c26c g    DF .text	000000000000004c _ZN2nn3hid29GetNpadHandheldActivationModeEv
00000000001c5ebc g    DF .text	0000000000000080 _ZN2nn3mii6detail21ServiceProviderClientD2Ev
0000000000222bc8 g    DF .text	00000000000000e8 _ZN2nn3hid6detail20GetTouchScreenStatesILm3EEENS_6ResultEPiPNS0_16TouchScreenStateIXT_EEEi
000000000023df34 g    DF .text	00000000000000b8 _ZN22nerd_gillette_internal5otete7jaimev114DecodeShapeROKERNS1_13ShapeInPacketEPKhmPmRKNS1_17IntensityInPacketE
00000000007c79e0  w   DO .rodata	0000000000000117 _ZTSN2nn2sf4cmif6client6detail13CmifProxyImplINS_2am7service15IAppletAccessorENS2_15CmifDomainProxyINS0_4hipc6client38Hipc2ClientSessionManagedProxyKindBaseINSA_18Hipc2ProxyKindBaseILNS9_6detail11MessageTypeE4EEEEEEENS0_30MemoryResourceAllocationPolicyENS6_20IApplicationAccessorEEE
000000000004adec g    DF .text	00000000000000f8 _ZN2nn2fs11FileStorage5WriteElPKvm
00000000007b1000 g    DO .rodata	000000000000001a _ZTSN2nn2fs15RomFsFileSystemE
0000000000042790 g    DF .text	0000000000000008 _ZN2nn4edid6detail10InitializeEPNS0_4EdidE
000000000004ed70 g    DF .text	000000000000008c _ZN2nn2fs9CloseFileENS0_10FileHandleE
00000000007cea30  w   DO .rodata	0000000000000149 _ZTSN2nn2sf6detail38ObjectImplFactoryWithStatefulAllocatorINS0_4cmif6client16CmifProxyFactoryINS_4bcat6detail3ipc12IBcatServiceENS4_15CmifDomainProxyINS0_4hipc6client38Hipc2ClientSessionManagedProxyKindBaseINSC_18Hipc2ProxyKindBaseILNSB_6detail11MessageTypeE4EEEEEEENS0_30MemoryResourceAllocationPolicyEE13ServiceObjectESK_E6ObjectE
000000000010ca68 g    DF .text	00000000000000e4 frame_size_select
00000000003cc5f8 g    DF .text	00000000000001d8 log1p
000000000018ba14 g    DF .text	000000000000002c _ZN2nn5audio23SplitterDestinationDataC1Ei
00000000007c56a0  w   DO .rodata	0000000000000105 _ZTSN2nn2sf4cmif6client16CmifProxyFactoryINS_2am7service13ILockAccessorENS2_15CmifDomainProxyINS0_4hipc6client38Hipc2ClientSessionManagedProxyKindBaseINS9_18Hipc2ProxyKindBaseILNS8_6detail11MessageTypeE4EEEEEEENS0_30MemoryResourceAllocationPolicyEE13ServiceObjectE
000000000014fad0 g    DF .text	0000000000000098 _ZN2nn3ngc6detail9CalcRank1EjPKmPKjPKh
000000000022e2b8 g    DF .text	0000000000000044 _ZN2nn3hid5debug28SetTouchScreenAutoPilotStateILm15EEEvRKNS1_25TouchScreenAutoPilotStateIXT_EEE
000000000022f9dc g    DF .text	0000000000000028 _ZN2nn3hid23VibrationNodeConnectionC1EPNS0_13VibrationNodeES3_
00000000002b3464 g    DF .text	0000000000000034 _ZN7android12ConsumerBaseD0Ev
0000000000091500 g    DF .text	0000000000000004 nnosGetUsedTlsSlotCount
00000000000a1a94 g    DF .text	0000000000000004 nnsocketBind
000000000012062c g    DF .text	0000000000000174 _ZN2nn7friends15GetProfileExtraEPNS0_12AsyncContextEPNS0_12ProfileExtraERKNS_7account3UidERKNS0_10FriendCodeE
00000000001e28c0 g    DF .text	0000000000000004 FSS_inverse_map_char
00000000007b0d30  w   DO .rodata	0000000000000023 _ZTSN2nn3spl6detail16IRandomInterfaceE
00000000002d0ce0 g    DF .text	0000000000000004 _ZN7android7String816convertToResPathEv
000000000008f32c g    DF .text	0000000000000008 _ZN2nn2os26GetMultiWaitHolderUserDataEPKNS0_19MultiWaitHolderTypeE
00000000001d9d14 g    DF .text	0000000000000008 _ZN2nn6fontll18ScalableFontEngine22GetPointerToWorkBufferEv
000000000027470c g    DF .text	0000000000000004 NvRmChannelModuleMutexUnlock
0000000000353cf4 g    DF .text	000000000000005c _ZNSt3__16localeC1ERKNS_12basic_stringIcNS_11char_traitsIcEENS_9allocatorIcEEEE
00000000001a7814 g    DF .text	0000000000000048 _ZN2nn5audio6server24AudioRendererManagerImpl15AudioDeviceImpl26SetAudioDeviceOutputVolumeERKNS_2sf8InBufferEf
00000000000814a0 g    DF .text	0000000000000254 nnmem_nlib_mutex_trylock_for
00000000001a7c24  w   DF .text	0000000000000004 _ZN2nn2sf22UnmanagedServiceObjectINS_5audio6detail21IAudioRendererManagerENS2_6server24AudioRendererManagerImplEE7ReleaseEv
000000000009623c g    DF .text	00000000000000f8 _ZN2nn2os6detail27InterruptEventImplByHorizon9TimedWaitENS_8TimeSpanE
00000000001261ec  w   DF .text	0000000000000030 _ZN2nn2sf4cmif6client6detail13CmifProxyImplINS_7friends6detail3ipc14IFriendServiceENS2_15CmifDomainProxyINS0_4hipc6client38Hipc2ClientSessionManagedProxyKindBaseINSB_18Hipc2ProxyKindBaseILNSA_6detail11MessageTypeE4EEEEEEENS0_30MemoryResourceAllocationPolicyES8_E54_nn_sf_sync_SendFriendRequestWithNintendoNetworkIdInfoERKNS_7account3UidENSL_23NetworkServiceAccountIdEiRKNS5_7MiiNameERKNS5_16MiiImageUrlParamESS_SV_
00000000007d4bb9 g    DO .rodata	0000000000000002 silk_stereo_only_code_mid_iCDF
0000000000224c90  w   DF .text	00000000000001e4 _ZNK2nn3hid6detail8RingLifoINS0_16TouchScreenStateILm16EEELi16ENS1_29TouchScreenStateAtomicStorageEE8ReadImplINS3_ILm9EEEEEiPT_i
00000000007b0f50  w   DO .rodata	0000000000000012 _ZTSN2nn2fs8IStorageE
000000000094c850  w   DO .data	0000000000000018 _ZTIN2nn2sf4cmif6client16CmifProxyFactoryINS_2am7service15IDebugFunctionsENS2_15CmifDomainProxyINS0_4hipc6client38Hipc2ClientSessionManagedProxyKindBaseINS9_18Hipc2ProxyKindBaseILNS8_6detail11MessageTypeE4EEEEEEENS0_30MemoryResourceAllocationPolicyEE13ServiceObjectE
00000000001467d4 g    DF .text	0000000000000030 _ZN2nn3ngc6detail12BinaryWriter4InitENS2_13EndianSettingE
00000000003286d4 g    DF .text	0000000000000354 _ZNSt3__18ios_base7copyfmtERKS0_
000000000004e1c8 g    DF .text	0000000000000058 _ZN2nn2fs6detail10MountTable18CanAcceptMountNameEPKc
00000000000615c8 g    DF .text	0000000000000168 _ZN2nn2fs19GetGameCardAsicInfoEPNS_2gc14RmaInformationEPKvm
00000000000ca9d8  w   DF .text	0000000000000008 _ZN2nn2sf6detail38ObjectImplFactoryWithStatefulAllocatorINS0_4cmif6client16CmifProxyFactoryINS_2am7service21ILibraryAppletCreatorENS4_15CmifDomainProxyINS0_4hipc6client38Hipc2ClientSessionManagedProxyKindBaseINSB_18Hipc2ProxyKindBaseILNSA_6detail11MessageTypeE4EEEEEEENS0_30MemoryResourceAllocationPolicyEE13ServiceObjectESJ_E6Object12AddReferenceEv
000000000013a648 g    DF .text	000000000000001c _ZN2nn3nfc14StartDetectionERKNS0_12DeviceHandleE
00000000001cfa40  w   DF .text	000000000000014c _ZN2nn2sf4hipc6client24Hipc2ClientCoreProcessorILNS1_6detail11MessageTypeE4ENS0_4cmif6detail14CoreMethodInfoINSt3__15tupleIJNS7_17InRawArgumentInfoILm8ELm8ELl64EEENSB_ILm8ELm8ELl72EEENSB_ILm36ELm4ELl0EEENSB_ILm16ELm4ELl36EEENSB_ILm4ELm4ELl52EEENSB_ILm4ELm4ELl56EEEEEELm80ELm0ELb0EEESI_E7ProcessEPNS2_26Hipc2ClientProxyBaseObjectENS6_6client23InRawClientArgumentTypeILm8ELm8EvEESP_NSO_ILm36ELm4EvEENSO_ILm16ELm4EvEENSO_ILm4ELm4EvEESS_j
0000000000366dcc  w   DF .text	00000000000000d8 _ZNKSt3__112basic_stringIwNS_11char_traitsIwEENS_9allocatorIwEEE5rfindEPKwmm
000000000019bf44 g    DF .text	0000000000000008 _ZN2nn5audio6server17AudioRenderSystem17SignalSystemEventEv
00000000003ccb28 g    DF .text	0000000000000158 log2f
000000000003bc0c g    DF .text	0000000000000010 _ZN2nn4util10StringPool12SetSignatureEv
00000000000aebb8  w   DF .text	00000000000001c0 _ZN2nn2sf4hipc6client24Hipc2ClientCoreProcessorILNS1_6detail11MessageTypeE4ENS0_4cmif6detail14CoreMethodInfoINSt3__15tupleIJNS7_17InRawArgumentInfoILm4ELm4ELl4EEENSB_ILm8ELm8ELl8EEENSB_ILm1ELm1ELl0EEENS7_18BufferArgumentInfoILi0ELi5ELm0EEENS7_18OutRawArgumentInfoILm4ELm4ELl0EEENSH_ILm4ELm4ELl4EEENSF_ILi1ELi6ELm0EEENSH_ILm4ELm4ELl8EEEEEELm16ELm12ELb1EEESM_E7ProcessEPNS2_26Hipc2ClientProxyBaseObjectENS6_6client23InRawClientArgumentTypeILm4ELm4EvEENSS_ILm8ELm8EvEENSS_ILm1ELm1EvEENSR_24BufferClientArgumentTypeENSR_24OutRawClientArgumentTypeILm4ELm4EEESY_SW_SY_j
0000000000367308  w   DF .text	0000000000000098 _ZNKSt3__112basic_stringIwNS_11char_traitsIwEENS_9allocatorIwEEE7compareEPKw
000000000009169c g    DF .text	0000000000000010 _ZN2nn2os6detail21WaitInterProcessEventEPNS1_21InterProcessEventTypeE
00000000001b9948 g    DF .text	0000000000000044 _ZN2nn3mii6detail11CoreDataRaw11SetEyeColorEi
000000000020f08c g    DF .text	00000000000000c4 check_sfnt
000000000019a388 g    DF .text	00000000000000cc _ZN2nn5audio27GetFinalOutputRecorderStateEPKNS0_19FinalOutputRecorderE
00000000003ccc80 g    DF .text	000000000000001c log2l
00000000000d6020 g    DF .text	0000000000000008 _ZN2nn4bcat22DeliveryCacheDirectoryC2Ev
000000000025cf64 g    DF .text	0000000000000004 NvOsAlloc
0000000000361cfc g    DF .text	0000000000000060 _ZNSt3__111regex_errorC1ENS_15regex_constants10error_typeE
00000000001bd11c g    DF .text	00000000000000c4 _ZN2nn3mii6detail34ModifyVer3StoreDataNicknameInvalidEPNS0_8NicknameE
00000000003a988c g    DF .text	000000000000000c __ofl_unlock
00000000003147a0  w   DF .text	0000000000000040 _ZN2nn2sf4cmif6client6detail13CmifProxyImplINS_3fgm2sf9IDebuggerENS0_4hipc6client18Hipc2ProxyKindBaseILNS8_6detail11MessageTypeE4EEENS0_25StatelessAllocationPolicyINS0_22ExpHeapStaticAllocatorILm16384ENS5_8DebuggerEEEEES7_E16_nn_sf_sync_ReadERKNS0_9OutBufferENS0_3OutIjvEESO_SO_
00000000001658f4 g    DF .text	0000000000000010 _ZN2nn5prepo16SystemPlayReport5ClearEv
0000000000158908 g    DF .text	0000000000000058 _ZN2nn3nsd22GetNasServiceSettingExEPNS0_17NasServiceSettingERKNS0_14NasServiceNameE
000000000016dc8c g    DF .text	0000000000000070 _ZN2nn8settings6detail13GetLdnChannelEPi
0000000000151b18  w   DF .text	00000000000000b4 _ZN2nn2sf4cmif6client32GetClientProcessorWithObjectBaseINS2_15CmifDomainProxyINS0_4hipc6client38Hipc2ClientSessionManagedProxyKindBaseINS6_18Hipc2ProxyKindBaseILNS5_6detail11MessageTypeE4EEEEEEEE14ObjectAssignerINS0_25StatelessAllocationPolicyINS0_22ExpHeapStaticAllocatorILm16384ENS_4nifm6detail21ServiceProviderClient30CreateNifmUserServiceObjectTagEEEEENS0_6detail23StatelessDummyAllocatorEE14AllocateObjectINSJ_15IGeneralServiceEEEvi
00000000003ddc80  w   DF .text	0000000000000078 __isoc99_fwscanf
000000000009ecf4  w   DF .text	0000000000000004 _ZN2nn2sf22UnmanagedServiceObjectINS0_4hipc6detail12IHipcManagerENS2_6server34HipcServerSessionManagerWithDomain15HipcManagerImplEE12AddReferenceEv
0000000000355d04 g    DF .text	00000000000000e0 _ZNSt3__112ctype_bynameIcEC1ERKNS_12basic_stringIcNS_11char_traitsIcEENS_9allocatorIcEEEEm
000000000009c610 g    DF .text	00000000000000b0 _ZN2nn2sf4hipc6server6detail29HipcAllInOneServerManagerBase16ProcessAsSessionEPNS_2os19MultiWaitHolderTypeEPvm
00000000000b13b4 g    DF .text	0000000000000014 _ZN2nn6socket6detail11GetNameInfoEPK8sockaddrjPcjS5_jiPKNS0_14ResolverOptionEm
000000000021ae98 g    DF .text	000000000000008c _ZN2nn3hid6detail20GetNpadJoyAssignmentEPNS0_21NpadJoyAssignmentModeERKj
0000000000171214  w   DF .text	0000000000000024 _ZN2nn2sf4cmif6client6detail13CmifProxyImplINS_8settings22IFactorySettingsServerENS0_4hipc6client18Hipc2ProxyKindBaseILNS7_6detail11MessageTypeE4EEENS0_25StatelessAllocationPolicyINS0_22ExpHeapStaticAllocatorILm16384ES6_EEEES6_E29_nn_sf_sync_GetSslCertificateENS0_3OutINS5_7factory14SslCertificateEvEE
000000000000406c g    DF .text	0000000000000144 _ZN2nn6crypto6detail8p256_mulEPNS1_10p256_pointEPKjiPKS2_PKNS1_10p256_curveE
0000000000182bec g    DF .text	0000000000000010 _ZNK2nn4time6detail20MonotonicSystemClock10IsAdjustedEv
00000000000bb40c  w   DF .text	0000000000000090 _ZN2nn2sf4cmif6client6detail13CmifProxyImplINS_7account4baas24IManagerForSystemServiceENS2_15CmifDomainProxyINS0_4hipc6client38Hipc2ClientSessionManagedProxyKindBaseINSA_18Hipc2ProxyKindBaseILNS9_6detail11MessageTypeE4EEEEEEENS0_25StatelessAllocationPolicyINS0_22ExpHeapStaticAllocatorILm2048ENS5_6detail12ObjectHolder24ObjectHolderAllocatorTagEEEEENS6_14IAdministratorEE56_nn_sf_sync_RefreshNintendoAccountUserResourceCacheAsyncENS0_3OutINS0_13SharedPointerINSK_13IAsyncContextEEEvEE
0000000000160f50  w   DF .text	0000000000000024 _ZN2nn2sf4cmif6client6detail13CmifProxyImplINS_4pctl6detail3ipc23IParentalControlServiceENS2_15CmifDomainProxyINS0_4hipc6client38Hipc2ClientSessionManagedProxyKindBaseINSB_18Hipc2ProxyKindBaseILNSA_6detail11MessageTypeE4EEEEEEENS0_30MemoryResourceAllocationPolicyES8_E31_nn_sf_sync_FinishUnlinkPairingENS6_9AsyncDataEb
000000000026cd3c g    DF .text	0000000000000068 NvRmSyncGetFd
00000000001a32d4 g    DF .text	0000000000000008 _ZN2nn5audio6server11AddressInfo7SetPoolEPNS1_14MemoryPoolInfoE
00000000007e90cc g    DO .rodata	0000000000000004 _ZN2nn5audio14DelayParameter24SupportedChannelCountMaxE
000000000005f828 g    DF .text	0000000000000028 _ZN2nn2fs6detail24FileServiceObjectAdapterD2Ev
00000000007e7d80  w   DO .rodata	0000000000000178 _ZTSN2nn2sf4cmif6client6detail9CmifProxyINS_7timesrv6detail7service16ITimeZoneServiceENS2_15CmifDomainProxyINS0_4hipc6client38Hipc2ClientSessionManagedProxyKindBaseINSB_18Hipc2ProxyKindBaseILNSA_6detail11MessageTypeE4EEEEEEENS0_25StatelessAllocationPolicyINS0_22ExpHeapStaticAllocatorILm16384ENS_4time6detail7service21ServiceProviderClient30CreateTimeUserServiceObjectTagEEEEEvEE
000000000036b394 g    DF .text	000000000000006c _ZNSt3__112strstreambuf6__initEPclS1_
0000000000239b74 g    DF .text	000000000000002c _ZN2nn8irsensor6detail15IrSensorSession25GetWindowOfInterestConfigERKNS0_14IrCameraHandleE
00000000002c560c g    DF .text	000000000000001c _ZN7android21SurfaceComposerClient14setClientARUIDERKN2nn6applet20AppletResourceUserIdE
0000000000355258 g    DF .text	0000000000000058 _ZNKSt3__15ctypeIwE5do_isEPKwS3_Pt
000000000017eab4 g    DF .text	0000000000000004 _ZN2nn4time38CancelEnsuringNetworkClockAvailabilityEv
000000000095d190  w   DO .data	0000000000000018 _ZTIN2nn2sf4cmif6client16CmifProxyFactoryINS_3hid15IAppletResourceENS0_4hipc6client18Hipc2ProxyKindBaseILNS6_6detail11MessageTypeE4EEENS0_25StatelessAllocationPolicyINS0_22ExpHeapStaticAllocatorILm16384ENS4_6detail9HidServerEEEEEE13ServiceObjectE
000000000023b0b8 g    DF .text	0000000000000018 _ZN2nn8irsensor28GetTeraPluginProcessorStatesEPNS0_24TeraPluginProcessorStateEPiiljiRKNS0_14IrCameraHandleE
00000000002cf074 g    DF .text	0000000000000038 _ZN7android7String8C1EPKDi
0000000000167bd8 g    DF .text	0000000000000044 _ZN2nn8settings6system18SetAudioOutputModeENS1_15AudioOutputModeENS1_21AudioOutputModeTargetE
0000000000955ed0  w   DO .data	0000000000000038 _ZTIN2nn2sf6detail39ObjectImplFactoryWithStatelessAllocatorINS0_4cmif6client16CmifProxyFactoryINS_7timesrv6detail7service14IStaticServiceENS4_15CmifDomainProxyINS0_4hipc6client38Hipc2ClientSessionManagedProxyKindBaseINSC_18Hipc2ProxyKindBaseILNSB_6detail11MessageTypeE4EEEEEEENS0_25StatelessAllocationPolicyINS0_22ExpHeapStaticAllocatorILm16384ENS_4time6detail7service21ServiceProviderClient30CreateTimeUserServiceObjectTagEEEEEE13ServiceObjectESS_E6ObjectE
00000000001a1d54 g    DF .text	00000000000001b4 _ZN2nn5audio6server11InfoUpdater18UpdateSplitterInfoERNS1_15SplitterContextE
00000000001a4d60 g    DF .text	0000000000000008 _ZN2nn5audio6server12SinkInfoBase7CleanUpEv
000000000039f5e8 g    DF .text	0000000000000068 __lesf2
0000000000346fbc  w   DF .text	0000000000000008 _ZNKSt3__110moneypunctIcLb1EE14do_frac_digitsEv
000000000012a820  w   DF .text	0000000000000008 _ZN2nn2sf6detail38ObjectImplFactoryWithStatefulAllocatorINS0_4cmif6client16CmifProxyFactoryINS_7friends6detail3ipc28IDaemonSuspendSessionServiceENS4_15CmifDomainProxyINS0_4hipc6client38Hipc2ClientSessionManagedProxyKindBaseINSC_18Hipc2ProxyKindBaseILNSB_6detail11MessageTypeE4EEEEEEENS0_30MemoryResourceAllocationPolicyEE13ServiceObjectESK_E6Object12AddReferenceEv
000000000095b908  w   DO .data	0000000000000010 _ZTIN2nn3hid6detail8RingLifoINS0_10MouseStateELi16ENS1_13AtomicStorageIS3_EEEE
00000000008041e0  w   DO .rodata	0000000000000024 _ZTSN2nn3hid6detail17CaptureButtonLifoE
000000000016e564 g    DF .text	0000000000000070 _ZN2nn8settings6detail23GetExternalRtcResetFlagEPb
00000000001d9c6c g    DF .text	0000000000000004 _ZN2nn6fontll18ScalableFontEngineD1Ev
0000000000217ccc g    DF .text	00000000000000bc _ZN2nn3hid6detail32BindJoyDetachOnBluetoothOffEventEPNS_2os15SystemEventTypeENS2_14EventClearModeE
0000000000221100 g    DF .text	00000000000000c8 _ZN2nn3hid6detail20BindSleepButtonEventEPNS_2os15SystemEventTypeENS2_14EventClearModeE
00000000001b5724 g    DF .text	0000000000000034 _ZN2nn2la21CommonArgumentsWriterC2Ej
00000000002589c8 g    DF .text	00000000000002e0 nvdcSetCsc
00000000002cf010 g    DF .text	0000000000000038 _ZN7android7String8C1EPKDs
0000000000a80cc0  w   DO .bss	0000000000000010 _ZNSt3__110moneypunctIwLb0EE2idE
00000000003e75e0 g    DF .text	0000000000000018 __nnmusl_MutexUnlock
00000000000b7860  w   DF .text	0000000000000020 _ZN2nn2sf4cmif6client6detail13CmifProxyImplINS_7account19IAccountServiceBaseENS2_15CmifDomainProxyINS0_4hipc6client38Hipc2ClientSessionManagedProxyKindBaseINS9_18Hipc2ProxyKindBaseILNS8_6detail11MessageTypeE4EEEEEEENS0_25StatelessAllocationPolicyINS0_22ExpHeapStaticAllocatorILm2048ENS5_6detail12ObjectHolder24ObjectHolderAllocatorTagEEEEENS5_31IAccountServiceForSystemServiceEE29_nn_sf_sync_GetLastOpenedUserENS0_3OutINS5_3UidEvEE
000000000012d31c g    DF .text	00000000000000cc _ZN2nn2fs15GetSaveDataSizeEPlS1_RKNS_7account3UidE
00000000000c5e1c  w   DF .text	0000000000000008 _ZN2nn2sf4cmif6client6detail13CmifProxyImplINS_2am7service18ICommonStateGetterENS2_15CmifDomainProxyINS0_4hipc6client38Hipc2ClientSessionManagedProxyKindBaseINSA_18Hipc2ProxyKindBaseILNS9_6detail11MessageTypeE4EEEEEEENS0_30MemoryResourceAllocationPolicyES7_E12GetProxyInfoEv
000000000011a51c g    DF .text	0000000000000094 _ZN2nn3err9ShowErrorENS_6ResultE
00000000009458a0  w   DO .data	0000000000000018 _ZTIN2nn2os6detail33MultiWaitHolderOfNativeWaitObjectE
0000000000179a94 g    DF .text	00000000000000d4 _ZN2nn3ssl10Connection13GetCipherInfoEPNS1_10CipherInfoE
000000000004f4ac g    DF .text	000000000000001c _ZN2nn2fs10CreateFileEPKcl
00000000002d0ce4 g    DF .text	0000000000000034 _ZN7android12uptimeMillisEv
000000000006ae00 g    DF .text	0000000000000008 _ZN2nn2fs30SaveDataTransferSizeCalculatorC2Ev
0000000000945fa0 g    DO .data	0000000000000018 _ZTIN2nn2sf4hipc6server6detail29HipcAllInOneServerManagerBaseE
0000000000946300  w   DO .data	0000000000000010 _ZTIN2nn2sf6detail27UnmanagedEmplacedImplHolderINS0_4hipc6server34HipcServerSessionManagerWithDomain15HipcManagerImplEEE
0000000000237bfc  w   DF .text	00000000000002b4 _ZNK2nn8irsensor6detail8RingLifoINS0_28PointingProcessorMarkerStateELi6EE4ReadEPS3_ij
00000000000829fc  w   DF .text	0000000000000120 _ZN2nn7nlibsdk4heap12TlsHeapCache15AllocFunc_Mode0INSt3__117integral_constantIbLb0EEEEEPvPS2_m
00000000000b987c  w   DF .text	0000000000000114 _ZN2nn2sf4hipc6client34HipcSimpleClientSessionManagerBase4Impl18InitializeByHandleINS_7account31IAccountServiceForAdministratorENS0_25StatelessAllocationPolicyINS0_22ExpHeapStaticAllocatorILm2048ENS6_6detail12ObjectHolder24ObjectHolderAllocatorTagEEEEEEENS_6ResultEPNS0_13SharedPointerIT_EENS_3svc6HandleE
00000000001c78d4 g    DF .text	0000000000000008 _ZN2nn3mii13AppletManagerC1Ev
00000000002733e0 g    DF .text	0000000000000084 NvRmStreamFlush
000000000021e6ac g    DF .text	0000000000000074 _ZN2nn3hid6detail18DeactivateIrSensorERjNS_6applet20AppletResourceUserIdE
00000000003d3370 g    DF .text	0000000000000034 drand48
00000000002632cc g    DF .text	0000000000000080 NvOsEventPoolLink
00000000002157ac g    DF .text	000000000000007c _ZN2nn3hid6detail17StopSixAxisSensorERKNS0_26ConsoleSixAxisSensorHandleE
0000000000130fd8  w   DF .text	00000000000001d8 _ZN2nn2sf4cmif6client34CmifDomainProxyClientCoreProcessorINS0_4hipc6client38Hipc2ClientSessionManagedProxyKindBaseINS5_18Hipc2ProxyKindBaseILNS4_6detail11MessageTypeE4EEEEENS1_6detail14CoreMethodInfoINSt3__15tupleIJNSC_18OutRawArgumentInfoILm4ELm4ELl0EEENSC_21OutObjectArgumentInfoILi0ELi0EEEEEELm0ELm4ELb0EEESK_E21ProcessWithOutObjectsEPNS2_23CmifDomainClientMessageISB_E15ProxyBaseObjectENS2_24OutRawClientArgumentTypeILm4ELm4EEENS2_27OutObjectClientArgumentTypeEjPNS0_13SharedPointerINS0_14IServiceObjectEEE
000000000022bf34 g    DF .text	0000000000000054 _ZN2nn3hid20GetNpadJoyAssignmentERKj
0000000000173568 g    DF .text	0000000000000138 _ZN2nn8settings6detail25CreateSettingsServerProxyEPNS_2sf13SharedPointerINS0_15ISettingsServerEEE
00000000001c774c g    DF .text	0000000000000008 _ZNK2nn3mii11AppletInput7GetModeEv
0000000000238c6c g    DF .text	000000000000004c _ZN2nn8irsensor6detail13StatusManager18AllocateMomentLifoERKNS0_14IrCameraHandleE
00000000003341b0 g    DF .text	0000000000000004 _ZNSt3__117__widen_from_utf8ILm16EED1Ev
00000000002c5f00 g    DF .text	000000000000002c _ZN7android21SurfaceComposerClient17getBuiltInDisplayEi
0000000000214c5c g    DF .text	0000000000000170 _ZN2nn3hid6detail13GetXpadStatesEPiPNS0_14BasicXpadStateEiRKNS0_11BasicXpadIdE
0000000000360d6c g    DF .text	0000000000000040 _ZNSt3__114__shared_count16__release_sharedEv
00000000000d9778  w   DF .text	0000000000000158 _ZN2nn2sf4cmif6client34CmifDomainProxyClientCoreProcessorINS0_4hipc6client38Hipc2ClientSessionManagedProxyKindBaseINS5_18Hipc2ProxyKindBaseILNS4_6detail11MessageTypeE4EEEEENS1_6detail14CoreMethodInfoINSt3__15tupleIJNSC_17InRawArgumentInfoILm32ELm1ELl0EEEEEELm32ELm0ELb0EEESI_E7ProcessEPNS2_23CmifDomainClientMessageISB_E15ProxyBaseObjectENS2_23InRawClientArgumentTypeILm32ELm1EvEEj
0000000000236114  w   DF .text	0000000000000008 _ZN2nn2sf4cmif6client6detail13CmifProxyImplINS_3hid19IHidTemporaryServerENS0_4hipc6client18Hipc2ProxyKindBaseILNS7_6detail11MessageTypeE4EEENS0_25StatelessAllocationPolicyINS0_22ExpHeapStaticAllocatorILm16384ENS5_6detail18HidTemporaryServerEEEEES6_E12GetProxyInfoEv
00000000000b60a4  w   DF .text	0000000000000028 _ZN2nn2sf4cmif6client6detail13CmifProxyImplINS_7account4baas12IManagerBaseENS2_15CmifDomainProxyINS0_4hipc6client38Hipc2ClientSessionManagedProxyKindBaseINSA_18Hipc2ProxyKindBaseILNS9_6detail11MessageTypeE4EEEEEEENS0_25StatelessAllocationPolicyINS0_22ExpHeapStaticAllocatorILm2048ENS5_6detail12ObjectHolder24ObjectHolderAllocatorTagEEEEENS6_22IManagerForApplicationEE28_nn_sf_sync_LoadIdTokenCacheENS0_3OutIjvEERKNS0_9OutBufferE
00000000000ceae4  w   DF .text	0000000000000024 _ZN2nn2sf4cmif6client6detail13CmifProxyImplINS_2am7service21IApplicationFunctionsENS2_15CmifDomainProxyINS0_4hipc6client38Hipc2ClientSessionManagedProxyKindBaseINSA_18Hipc2ProxyKindBaseILNS9_6detail11MessageTypeE4EEEEEEENS0_30MemoryResourceAllocationPolicyES7_E47_nn_sf_sync_SetMediaPlaybackStateForApplicationEb
00000000007cf380  w   DO .rodata	0000000000000035 _ZTSN2nn4bcat6detail3ipc29IDeliveryCacheProgressServiceE
000000000036cef8 g    DF .text	0000000000000080 _ZNSt3__119__thread_local_dataEv
000000000032f05c  w   DF .text	0000000000000004 _ZNSt3__113basic_ostreamIcNS_11char_traitsIcEEED2Ev
00000000003c680c g    DF .text	0000000000000208 atan
00000000003e3490 g    DF .text	0000000000000030 wcspbrk
000000000009d9b0  w   DF .text	00000000000000f0 _ZNK2nn2sf4hipc6server17HipcServerMessage18GetInNativeHandlesEPNS0_12NativeHandleE
000000000014916c g    DF .text	000000000000004c _ZNK2nn3ngc6detail2Bp7MemSizeEv
000000000009bb88 g    DF .text	000000000000000c _ZN2nn2sf4hipc6detail25HipcMessageBufferAccessor6SetTagEt
0000000000110288 g    DF .text	0000000000000e70 opus_encoder_ctl
0000000000172f50  w   DF .text	0000000000000028 _ZN2nn2sf4cmif6client6detail13CmifProxyImplINS_8settings24ISettingsItemKeyIteratorENS0_4hipc6client18Hipc2ProxyKindBaseILNS7_6detail11MessageTypeE4EEENS0_25StatelessAllocationPolicyINS0_22ExpHeapStaticAllocatorILm16384ENS5_28IFirmwareDebugSettingsServerEEEEES6_E18_nn_sf_sync_GetKeyENS0_3OutImvEERKNS0_9OutBufferE
000000000018deac g    DF .text	00000000000000f4 _ZN2nn5audio41I3DL2ReverbGetRequiredDelayLineBufferSizeEii
00000000000b7e08  w   DF .text	0000000000000010 _ZN2nn2sf4cmif6client6detail13CmifProxyImplINS_7account19IAccountServiceBaseENS2_15CmifDomainProxyINS0_4hipc6client38Hipc2ClientSessionManagedProxyKindBaseINS9_18Hipc2ProxyKindBaseILNS8_6detail11MessageTypeE4EEEEEEENS0_25StatelessAllocationPolicyINS0_22ExpHeapStaticAllocatorILm2048ENS5_6detail12ObjectHolder24ObjectHolderAllocatorTagEEEEENS5_31IAccountServiceForSystemServiceEE17GetCmifBaseObjectEv
000000000036ce24 g    DF .text	0000000000000038 _ZNSt3__16thread6detachEv
0000000000046d50 g    DF .text	0000000000000090 _ZN2nn2fs6detail30OutputAccessLogForPreconditionEbNS_2os4TickES3_PKcNS0_10FileHandleES5_z
0000000000155230 g    DF .text	000000000000007c _ZN2nn4nifm6detail27GetScanRequestClientPointerEPPNS1_17ScanRequestClientE
00000000001bc894 g    DF .text	0000000000000004 _ZNK2nn3mii6detail12StoreDataRaw8GetMoleYEv
000000000015ebe8 g    DF .text	0000000000000008 _ZN2nn4pctl18PairingAccountInfoC2Ev
00000000003a5b60 g    DF .text	0000000000000024 __atomic_load_1
00000000003a5b84 g    DF .text	0000000000000024 __atomic_load_2
0000000000324560 g    DF .text	00000000000000bc _ZNSt3__124__libcpp_debug_exceptionC1ERKNS_19__libcpp_debug_infoE
00000000000e8940 g    DF .text	0000000000000024 ec_decode
00000000001710fc  w   DF .text	000000000000002c _ZN2nn2sf4cmif6client6detail13CmifProxyImplINS_8settings22IFactorySettingsServerENS0_4hipc6client18Hipc2ProxyKindBaseILNS7_6detail11MessageTypeE4EEENS0_25StatelessAllocationPolicyINS0_22ExpHeapStaticAllocatorILm16384ES6_EEEES6_E38_nn_sf_sync_GetWirelessLanCountryCodesENS0_3OutIivEERKNS0_8OutArrayINS5_7factory11CountryCodeEEE
00000000003a5ba8 g    DF .text	0000000000000024 __atomic_load_4
00000000002c3940 g    DF .text	000000000000002c _ZN7android14SurfaceControl17setLayerStackMaskEi
00000000001cea18  w   DF .text	0000000000000020 _ZN2nn2sf4cmif6client6detail13CmifProxyImplINS_5visrv2sf21ISystemDisplayServiceENS0_4hipc6client18Hipc2ProxyKindBaseILNS8_6detail11MessageTypeE4EEENS0_30MemoryResourceAllocationPolicyES7_E36_nn_sf_sync_AcquireSharedFrameBufferENS0_3OutIlvEENSG_INS_2vi6native10NativeSyncEvEENSG_INSI_7fbshare27SharedLayerTextureIndexListEvEENSM_17SharedLayerHandleE
00000000003a5bcc g    DF .text	0000000000000024 __atomic_load_8
0000000000329710  w   DF .text	0000000000000048 _ZNSt3__115basic_streambufIwNS_11char_traitsIwEEEaSERKS3_
00000000000a1bf4 g    DF .text	0000000000000004 nnsocketGetHostByNameWithOptions
0000000000803f40  w   DO .rodata	000000000000005a _ZTSN2nn3hid6detail8RingLifoINS0_6system18NpadSystemExtStateELi16ENS1_13AtomicStorageIS4_EEEE
00000000002302b8 g    DF .text	000000000000003c _ZN2nn3hid15VibrationTarget24GetVibrationDeviceHandleEv
00000000002346d0  w   DF .text	0000000000000008 _ZN2nn2sf6detail39ObjectImplFactoryWithStatelessAllocatorINS0_4cmif6client16CmifProxyFactoryINS_3hid16IHidSystemServerENS0_4hipc6client18Hipc2ProxyKindBaseILNS8_6detail11MessageTypeE4EEENS0_25StatelessAllocationPolicyINS0_22ExpHeapStaticAllocatorILm16384ENS6_6detail15HidSystemServerEEEEEE13ServiceObjectESJ_E6Object12AddReferenceEv
0000000000120e14 g    DF .text	0000000000000020 _ZN2nn7friends14GetMiiImageUrlEPNS0_3UrlERKNS0_16MiiImageUrlParamE
000000000004eee8 g    DF .text	0000000000000130 _ZN2nn2fs8ReadFileEPmNS0_10FileHandleElPvmRKNS0_10ReadOptionE
00000000000c8050  w   DF .text	0000000000000020 _ZN2nn2sf4cmif6client6detail13CmifProxyImplINS_2am7service18IDisplayControllerENS2_15CmifDomainProxyINS0_4hipc6client38Hipc2ClientSessionManagedProxyKindBaseINSA_18Hipc2ProxyKindBaseILNS9_6detail11MessageTypeE4EEEEEEENS0_30MemoryResourceAllocationPolicyES7_E46_nn_sf_sync_ReleaseLastForegroundCaptureBufferEv
00000000007ae530 g    DO .rodata	0000000000000040 _ZN2nn4util18MatrixRowMajor4x3f16ConstantIdentityE
000000000032f0a4  w   DF .text	0000000000000030 _ZTv0_n24_NSt3__113basic_ostreamIcNS_11char_traitsIcEEED0Ev
0000000000090614 g    DF .text	0000000000000008 _ZN2nn2os21GetThreadSuspendCountEPKNS0_10ThreadTypeE
000000000012cba8 g    DF .text	0000000000000054 _ZN2nn2fs13MountSaveDataEPKcNS_3ncm13ApplicationIdERKNS_7account3UidE
000000000096d578 g    DO .data	00000000000000e0 _ZTVN7android12ConsumerBaseE
00000000001c7a20 g    DF .text	0000000000000008 _ZN2nn3mii13AppletManager16SetResultSuccessEv
00000000003614cc g    DF .text	0000000000000030 _ZNSt3__121recursive_timed_mutexC1Ev
00000000002366ec g    DF .text	0000000000000078 _ZN2nn8irsensor6detail25GetIrCameraInternalStatusEPNS0_22IrCameraInternalStatusERKNS0_14IrCameraHandleE
00000000003332b4 g    DF .text	0000000000000060 _ZNSt3__117iostream_categoryEv
0000000000954e50  w   DO .data	0000000000000018 _ZTIN2nn2sf4cmif6client6detail9CmifProxyINS_8settings28IFirmwareDebugSettingsServerENS0_4hipc6client18Hipc2ProxyKindBaseILNS7_6detail11MessageTypeE4EEENS0_25StatelessAllocationPolicyINS0_22ExpHeapStaticAllocatorILm16384ES6_EEEEvEE
000000000097d100 g    DO .data	0000000000000050 _ZTCNSt3__110istrstreamE0_NS_13basic_istreamIcNS_11char_traitsIcEEEE
0000000000170e24 g    DF .text	0000000000000058 _ZN2nn8settings6detail24ResetDebugPadKeyboardMapEv
0000000000198958 g    DF .text	00000000000000e8 _ZN2nn5audio19RegisterBufferEventEPNS0_8AudioOutEPNS_2os11SystemEventE
000000000080d390  w   DO .rodata	000000000000013f _ZTSN2nn2sf6detail39ObjectImplFactoryWithStatelessAllocatorINS0_4cmif6client16CmifProxyFactoryINS_8irsensor15IIrSensorServerENS0_4hipc6client18Hipc2ProxyKindBaseILNS8_6detail11MessageTypeE4EEENS0_25StatelessAllocationPolicyINS0_22ExpHeapStaticAllocatorILm16384ENS6_6detail14IrSensorServerEEEEEE13ServiceObjectESJ_E6ObjectE
0000000000188298 g    DF .text	000000000000000c _ZN2nn5audio22GetI3dl2ReverbRoomGainEPKNS0_15I3dl2ReverbTypeE
00000000002c9e20 g    DF .text	0000000000000020 _ZNK7android13GraphicBuffer16getFlattenedSizeEv
0000000000052754 g    DF .text	00000000000000c4 _ZN2nn2fs48OverrideSaveDataTransferTokenSignVerificationKeyEPKvm
0000000000173820  w   DF .text	00000000000000b0 _ZN2nn2sf6detail39ObjectImplFactoryWithStatelessAllocatorINS0_4cmif6client16CmifProxyFactoryINS_8settings15ISettingsServerENS0_4hipc6client18Hipc2ProxyKindBaseILNS8_6detail11MessageTypeE4EEENS0_25StatelessAllocationPolicyINS0_22ExpHeapStaticAllocatorILm16384ES7_EEEEE13ServiceObjectESH_E6Object11DisposeImplEv
00000000002349cc  w   DF .text	0000000000000024 _ZN2nn2sf4cmif6client6detail13CmifProxyImplINS_3hid16IHidSystemServerENS0_4hipc6client18Hipc2ProxyKindBaseILNS7_6detail11MessageTypeE4EEENS0_25StatelessAllocationPolicyINS0_22ExpHeapStaticAllocatorILm16384ENS5_6detail15HidSystemServerEEEEES6_E33_nn_sf_sync_GetNpadSystemExtStyleENS0_3OutIlvEESL_j
0000000000239a54 g    DF .text	0000000000000058 _ZN2nn8irsensor6detail15IrSensorSession23StopImageProcessorAsyncERKNS0_14IrCameraHandleE
000000000036c620 g    DF .text	00000000000000ec _ZNSt3__112system_error6__initERKNS_10error_codeENS_12basic_stringIcNS_11char_traitsIcEENS_9allocatorIcEEEE
00000000000c5fe4  w   DF .text	000000000000004c _ZN2nn2sf4cmif6client6detail13CmifProxyImplINS_2am7service18ICommonStateGetterENS2_15CmifDomainProxyINS0_4hipc6client38Hipc2ClientSessionManagedProxyKindBaseINSA_18Hipc2ProxyKindBaseILNS9_6detail11MessageTypeE4EEEEEEENS0_30MemoryResourceAllocationPolicyES7_E32_nn_sf_sync_PushToGeneralChannelENS0_13SharedPointerINS6_8IStorageEEE
0000000000189ca0 g    DF .text	0000000000000018 _ZN2nn5audio24PerformanceBufferManagerC2Ev
0000000000945778 g    DO .data	0000000000000038 _ZTVN2nn2os6detail26MultiWaitHolderOfSemaphoreE
0000000000125b7c  w   DF .text	0000000000000024 _ZN2nn2sf4cmif6client6detail13CmifProxyImplINS_7friends6detail3ipc14IFriendServiceENS2_15CmifDomainProxyINS0_4hipc6client38Hipc2ClientSessionManagedProxyKindBaseINSB_18Hipc2ProxyKindBaseILNSA_6detail11MessageTypeE4EEEEEEENS0_30MemoryResourceAllocationPolicyES8_E30_nn_sf_sync_GetProfileImageUrlENS0_3OutINS5_3UrlEvEERKSM_i
000000000039f34c g    DF .text	0000000000000068 __ledf2
000000000009a2dc g    DF .text	000000000000002c _ZN2nn2sf4cmif6server23CmifServerDomainManager6DomainC1EPS3_
000000000014b61c g    DF .text	0000000000000014 _ZN2nn3ngc6detail17MemoryInputStreamD1Ev
000000000032ea30  w   DF .text	0000000000000148 _ZNSt3__113basic_istreamIwNS_11char_traitsIwEEE5ungetEv
000000000018feec g    DF .text	0000000000000064 _ZN2nn5audio23RequestSuspendAudioOutsENS_6applet20AppletResourceUserIdENS_8TimeSpanE
00000000001cdc44  w   DF .text	0000000000000008 _ZN2nn2sf4cmif6client6detail13CmifProxyImplIN3nns9hosbinder16IHOSBinderDriverENS0_4hipc6client18Hipc2ProxyKindBaseILNS8_6detail11MessageTypeE4EEENS0_30MemoryResourceAllocationPolicyES7_E12GetProxyInfoEv
00000000001e2820 g    DF .text	0000000000000020 FSS_resize
00000000002c37d8 g    DF .text	0000000000000098 _ZN7android14SurfaceControl7destroyEv
0000000000331294  w   DF .text	00000000000001b4 _ZNSt3__113basic_ostreamIwNS_11char_traitsIwEEElsEb
00000000007b0d80  w   DO .rodata	0000000000000018 _ZTSN2nn2sf13ISharedObjectE
0000000000285fb8 g    DF .text	000000000000003c nvgr_import_nvrmsurface
0000000000183cd0 g    DF .text	000000000000000c _ZN2nn3aoc6detail15GetObjectHolderEv
00000000003323f4  w   DF .text	00000000000001bc _ZNSt3__113basic_ostreamIwNS_11char_traitsIwEEElsEd
0000000000070a4c g    DF .text	0000000000000008 _ZN2nn4lmem6detail16GetNextBlockRearEPNS1_8HeapHeadE
0000000000093bf8 g    DF .text	0000000000000054 _ZN2nn2os6detail10RngManager17GenerateRandomU64Ev
00000000000b7528  w   DF .text	0000000000000108 _ZN2nn7account6detail12ObjectHolder11AcquireImplINS0_31IAccountServiceForSystemServiceEEENS_6ResultEPPT_PKc
00000000003325b0  w   DF .text	00000000000001b4 _ZNSt3__113basic_ostreamIwNS_11char_traitsIwEEElsEe
0000000000332238  w   DF .text	00000000000001bc _ZNSt3__113basic_ostreamIwNS_11char_traitsIwEEElsEf
00000000008236f0  w   DO .rodata	0000000000000019 _ZTSNSt3__114__num_put_baseE
00000000000c9c48  w   DF .text	0000000000000020 _ZN2nn2sf4cmif6client6detail13CmifProxyImplINS_2am7service22ILibraryAppletAccessorENS2_15CmifDomainProxyINS0_4hipc6client38Hipc2ClientSessionManagedProxyKindBaseINSA_18Hipc2ProxyKindBaseILNS9_6detail11MessageTypeE4EEEEEEENS0_30MemoryResourceAllocationPolicyES7_E41_nn_sf_sync_GetPopInteractiveOutDataEventENS0_3OutINS0_12NativeHandleEvEE
0000000000319a70  w   DF .text	000000000000004c _ZZN2nn2sf31SimpleAllInOneHipcClientManagerILm3EE27InitializeShimLibraryHolderINS_3pcv17IImmediateManagerEEENS_6ResultEPNS0_23ShimLibraryObjectHolderIT_EEPKcPNS_14MemoryResourceEENUlPvE_8__invokeESF_
00000000009592f0  w   DO .data	0000000000000018 _ZTIN2nn2sf22UnmanagedServiceObjectINS_5audio6detail21IAudioRendererManagerENS2_6server24AudioRendererManagerImplEEE
00000000003e3918 g    DF .text	0000000000000004 wcswcs
000000000011bdcc g    DF .text	0000000000000144 _ZN2nn3err6detail34TryParseApplicationErrorCodeStringEPNS_2ns28ApplicationErrorCodeCategoryEPjPKc
00000000001b9ce8 g    DF .text	0000000000000048 _ZN2nn3mii6detail11CoreDataRaw11SetNoseTypeEi
000000000021dd30 g    DF .text	0000000000000088 _ZN2nn3hid6detail10HasBatteryEPbS2_RKj
00000000003317d8  w   DF .text	00000000000001dc _ZNSt3__113basic_ostreamIwNS_11char_traitsIwEEElsEi
00000000003d33a4 g    DF .text	000000000000001c lcong48
0000000000000024 g    DF .text	000000000000013c .protected _init
000000000006fb6c g    DF .text	000000000000004c _ZN2nn4lmem27GetUnitHeapAllocatableCountEPNS0_6detail8HeapHeadE
000000000080ba60  w   DO .rodata	000000000000012f _ZTSN2nn2sf6detail39ObjectImplFactoryWithStatelessAllocatorINS0_4cmif6client16CmifProxyFactoryINS_3hid10IHidServerENS0_4hipc6client18Hipc2ProxyKindBaseILNS8_6detail11MessageTypeE4EEENS0_25StatelessAllocationPolicyINS0_22ExpHeapStaticAllocatorILm16384ENS6_6detail9HidServerEEEEEE13ServiceObjectESJ_E6ObjectE
00000000003319b4  w   DF .text	00000000000001b4 _ZNSt3__113basic_ostreamIwNS_11char_traitsIwEEElsEj
0000000000331b68  w   DF .text	00000000000001b4 _ZNSt3__113basic_ostreamIwNS_11char_traitsIwEEElsEl
0000000000331d1c  w   DF .text	00000000000001b4 _ZNSt3__113basic_ostreamIwNS_11char_traitsIwEEElsEm
00000000000eeb94 g    DF .text	00000000000010f8 compute_allocation
00000000000ba4c0  w   DF .text	0000000000000090 _ZN2nn2sf4cmif6client6detail13CmifProxyImplINS_7account31IAccountServiceForAdministratorENS2_15CmifDomainProxyINS0_4hipc6client38Hipc2ClientSessionManagedProxyKindBaseINS9_18Hipc2ProxyKindBaseILNS8_6detail11MessageTypeE4EEEEEEENS0_25StatelessAllocationPolicyINS0_22ExpHeapStaticAllocatorILm2048ENS5_6detail12ObjectHolder24ObjectHolderAllocatorTagEEEEES6_E35_nn_sf_sync_SuspendBackgroundDaemonENS0_3OutINS0_13SharedPointerINSJ_14ISessionObjectEEEvEE
00000000001372e0  w   DF .text	0000000000000018 _ZN2nn2sf13SharedPointerINS_3nfc6detail7ISystemEED2Ev
0000000000341e14  w   DF .text	0000000000000060 _ZNKSt3__18time_getIcNS_19istreambuf_iteratorIcNS_11char_traitsIcEEEEE11__get_monthERiRS4_S4_RjRKNS_5ctypeIcEE
0000000000008328  w   DF .text	00000000000003dc _ZN2nn6crypto6detail19XtsModeAes128Helper15ProcessUnrolledE12__Uint8x16_tRPhRPKhRiPKvb
000000000008e464 g    DF .text	0000000000000054 _ZN2nn2os17CreateSystemEventEPNS0_15SystemEventTypeENS0_14EventClearModeEb
00000000002256a4  w   DF .text	0000000000000234 _ZNK2nn3hid6detail8RingLifoINS0_16TouchScreenStateILm16EEELi16ENS1_29TouchScreenStateAtomicStorageEE8ReadImplINS3_ILm14EEEEEiPT_i
0000000000331448  w   DF .text	00000000000001dc _ZNSt3__113basic_ostreamIwNS_11char_traitsIwEEElsEs
0000000000331624  w   DF .text	00000000000001b4 _ZNSt3__113basic_ostreamIwNS_11char_traitsIwEEElsEt
00000000001b4940 g    DF .text	00000000000000c0 _ZN2nn2la18StartLibraryAppletENS_6applet19LibraryAppletHandleEb
00000000003b1ef0 g    DF .text	0000000000000828 pow
00000000007e0740  w   DO .rodata	0000000000000160 _ZTSN2nn2sf4cmif6client6detail13CmifProxyImplINS_4nifm6detail15IGeneralServiceENS2_15CmifDomainProxyINS0_4hipc6client38Hipc2ClientSessionManagedProxyKindBaseINSA_18Hipc2ProxyKindBaseILNS9_6detail11MessageTypeE4EEEEEEENS0_25StatelessAllocationPolicyINS0_22ExpHeapStaticAllocatorILm16384ENS6_21ServiceProviderClient30CreateNifmUserServiceObjectTagEEEEES7_EE
0000000000122970 g    DF .text	0000000000000008 _ZNK2nn7friends11PlayHistory12GetAccountIdEv
0000000000331ed0  w   DF .text	00000000000001b4 _ZNSt3__113basic_ostreamIwNS_11char_traitsIwEEElsEx
00000000003c2c2c  w   DF .text	0000000000000084 iswprint_l
00000000009dc750  w   DO .bss	0000000000000030 _ZZN2nn5prepo6detail17ShimLibraryGlobal11GetInstanceEvE8instance
0000000000231420  w   DF .text	000000000000011c _ZN2nn2sf4hipc6client24Hipc2ClientCoreProcessorILNS1_6detail11MessageTypeE4ENS0_4cmif6detail14CoreMethodInfoINSt3__15tupleIJNS7_17InRawArgumentInfoILm4ELm4ELl0EEENSB_ILm8ELm8ELl16EEENSB_ILm4ELm4ELl4EEENSB_ILm4ELm4ELl8EEEEEELm24ELm0ELb1EEESG_E7ProcessEPNS2_26Hipc2ClientProxyBaseObjectENS6_6client23InRawClientArgumentTypeILm4ELm4EvEENSM_ILm8ELm8EvEESN_SN_j
0000000000332084  w   DF .text	00000000000001b4 _ZNSt3__113basic_ostreamIwNS_11char_traitsIwEEElsEy
00000000003c4ddc  w   DF .text	00000000000002d4 newlocale
000000000097d568 g    DO .data	0000000000000028 _ZTVSt16bad_array_length
00000000001a303c g    DF .text	0000000000000008 _ZNK2nn5audio6server13EffectContext8GetCountEv
0000000000233ef8  w   DF .text	00000000000000b0 _ZN2nn2sf6detail39ObjectImplFactoryWithStatelessAllocatorINS0_4cmif6client16CmifProxyFactoryINS_3hid26IActiveVibrationDeviceListENS0_4hipc6client18Hipc2ProxyKindBaseILNS8_6detail11MessageTypeE4EEENS0_25StatelessAllocationPolicyINS0_22ExpHeapStaticAllocatorILm16384ENS6_6detail9HidServerEEEEEE13ServiceObjectESJ_E6Object11DisposeImplEv
00000000002563f4 g    DF .text	0000000000000104 _ZN2nn3web14ShowWebPageArg14SetCallbackUrlEPKc
00000000000c6ca8  w   DF .text	0000000000000020 _ZN2nn2sf4cmif6client6detail13CmifProxyImplINS_2am7service15ISelfControllerENS2_15CmifDomainProxyINS0_4hipc6client38Hipc2ClientSessionManagedProxyKindBaseINSA_18Hipc2ProxyKindBaseILNS9_6detail11MessageTypeE4EEEEEEENS0_30MemoryResourceAllocationPolicyES7_E20_nn_sf_sync_LockExitEv
0000000000804d50 g    DO .rodata	0000000000000020 _ZN2nn4util10BitFlagSetILi256ENS_3hid11KeyboardKeyEE4FlagILi43EE4MaskE
00000000003dbd1c g    DF .text	0000000000000094 lsearch
000000000018ba00 g    DF .text	000000000000000c _ZN2nn5audio12SplitterInfo13MarkAsUpdatedEv
00000000001bcef4 g    DF .text	0000000000000040 _ZN2nn3mii6detail11UtilityImpl14GetRandomRangeEii
00000000003dd568 g    DF .text	00000000000000a8 __fseeko_unlocked
0000000000292198 g    DF .text	0000000000000034 NvWsiGetDisplayCaps
000000000036353c  w   DF .text	0000000000000138 _ZNSt3__112basic_stringIcNS_11char_traitsIcEENS_9allocatorIcEEE21__grow_by_and_replaceEmmmmmmPKc
000000000024ed00 g    DF .text	0000000000000014 _ZN2nn6capsrv12LibraryStateC1Ev
000000000011baa0 g    DF .text	0000000000000008 _ZNK2nn3err14SystemErrorArg20GetFullScreenMessageEv
0000000000977e80  w   DO .data	0000000000000018 _ZTIN2nn2sf4cmif6client16CmifProxyFactoryINS_3fgm2sf8ISessionENS2_15CmifDomainProxyINS0_4hipc6client38Hipc2ClientSessionManagedProxyKindBaseINS9_18Hipc2ProxyKindBaseILNS8_6detail11MessageTypeE4EEEEEEENS0_30MemoryResourceAllocationPolicyEE13ServiceObjectE
000000000032533c g    DF .text	0000000000000138 _ZNKSt3__111__libcpp_db17__find_c_and_lockEPv
00000000001c56d8 g    DF .text	0000000000000020 _ZNK2nn3mii8Database11IsAvailableEv
00000000002cbc2c g    DF .text	0000000000000018 _ZN7android6Region7andSelfERKNS_4RectE
00000000003146d4 g    DF .text	0000000000000060 _ZN2nn3fgm8DebuggerD1Ev
00000000000333fc g    DF .text	0000000000000254 nnutilZlib_deflateCopy
000000000008d770  w   DF .text	0000000000000170 _ZN2nn2os6detail18WaitLightEventImplEPNS0_14LightEventTypeE
000000000010cb4c g    DF .text	0000000000000a9c compute_frame_size
000000000014c830 g    DF .text	0000000000000018 _ZNK2nn3ngc6detail3Set12GetBitVectorEv
0000000000956d38 g    DO .data	0000000000000008 _ZN2nn5audio6common11SupportTags20AudioUsbDeviceOutputE
00000000001b9fb4 g    DF .text	0000000000000048 _ZN2nn3mii6detail11CoreDataRaw15SetMustacheTypeEi
00000000003ba13c g    DF .text	0000000000000014 ccosf
0000000000121ce8 g    DF .text	000000000000002c _ZN2nn7friends12AsyncContextD1Ev
00000000003e0dac g    DF .text	0000000000000094 strtoul
0000000000080c04 g    DF .text	0000000000000010 nnmem_nlib_mempagesize
0000000000269204 g    DF .text	00000000000000b4 NvOsDrvMapSharedMem
00000000003ba150 g    DF .text	000000000000028c ccosh
00000000000b9f7c  w   DF .text	0000000000000020 _ZN2nn2sf4cmif6client6detail13CmifProxyImplINS_7account31IAccountServiceForSystemServiceENS2_15CmifDomainProxyINS0_4hipc6client38Hipc2ClientSessionManagedProxyKindBaseINS9_18Hipc2ProxyKindBaseILNS8_6detail11MessageTypeE4EEEEEEENS0_25StatelessAllocationPolicyINS0_22ExpHeapStaticAllocatorILm2048ENS5_6detail12ObjectHolder24ObjectHolderAllocatorTagEEEEENS5_31IAccountServiceForAdministratorEE34_nn_sf_sync_ClearSaveDataThumbnailERKNS5_3UidENS_13ApplicationIdE
000000000036d648 g    DF .text	0000000000000024 _ZNSt3__120__libcpp_thread_joinEPNS_10shared_ptrINS_21__horizon_thread_dataEEE
000000000032c9c4  w   DF .text	0000000000000004 _ZNSt3__113basic_istreamIwNS_11char_traitsIwEEErsEPFRS3_S4_E
0000000000803be0  w   DO .rodata	0000000000000051 _ZTSN2nn3hid6detail8RingLifoINS0_16NpadFullKeyStateELi16ENS1_13AtomicStorageIS3_EEEE
00000000003624d0 g    DF .text	000000000000008c _ZNSt11logic_errorC2ERKNSt3__112basic_stringIcNS0_11char_traitsIcEENS0_9allocatorIcEEEE
000000000018a728 g    DF .text	0000000000000008 _ZNK2nn5audio8SinkInfo7GetTypeEv
00000000003ba688 g    DF .text	000000000000002c ccosl
00000000000b48a0  w   DF .text	0000000000000008 _ZN2nn2sf4cmif6client6detail13CmifProxyImplINS_7account19IAccountServiceBaseENS2_15CmifDomainProxyINS0_4hipc6client38Hipc2ClientSessionManagedProxyKindBaseINS9_18Hipc2ProxyKindBaseILNS8_6detail11MessageTypeE4EEEEEEENS0_25StatelessAllocationPolicyINS0_22ExpHeapStaticAllocatorILm2048ENS5_6detail12ObjectHolder24ObjectHolderAllocatorTagEEEEENS5_29IAccountServiceForApplicationEE12GetProxyInfoEv
0000000000234ba8  w   DF .text	0000000000000020 _ZN2nn2sf4cmif6client6detail13CmifProxyImplINS_3hid16IHidSystemServerENS0_4hipc6client18Hipc2ProxyKindBaseILNS7_6detail11MessageTypeE4EEENS0_25StatelessAllocationPolicyINS0_22ExpHeapStaticAllocatorILm16384ENS5_6detail15HidSystemServerEEEEES6_E39_nn_sf_sync_BeginPermitVibrationSessionENS_6applet20AppletResourceUserIdE
00000000003abff0 g    DF .text	0000000000000004 access
0000000000144c30 g    DF .text	0000000000000004 _ZN2nn3ngc6detail14ContentsReaderD2Ev
0000000000146f98 g    DF .text	00000000000001b0 _ZN2nn3ngc6detail12BinaryWriter10WriteArrayEPKtm
0000000000316df4  w   DF .text	00000000000001e4 _ZN2nn2sf4hipc6client24Hipc2ClientCoreProcessorILNS1_6detail11MessageTypeE4ENS0_4cmif6detail14CoreMethodInfoINSt3__15tupleIJNS7_18BufferArgumentInfoILi0ELi6ELm0EEENSB_ILi1ELi9ELm0EEEEEELm0ELm0ELb0EEESE_E7ProcessEPNS2_26Hipc2ClientProxyBaseObjectENS6_6client24BufferClientArgumentTypeESK_j
0000000000174474  w   DF .text	0000000000000024 _ZN2nn2sf4cmif6client6detail13CmifProxyImplINS_8settings21ISystemSettingsServerENS0_4hipc6client18Hipc2ProxyKindBaseILNS7_6detail11MessageTypeE4EEENS0_25StatelessAllocationPolicyINS0_22ExpHeapStaticAllocatorILm16384ES6_EEEES6_E36_nn_sf_sync_SetVibrationMasterVolumeEf
0000000000823bd0  w   DO .rodata	0000000000000023 _ZTSNSt3__117moneypunct_bynameIcLb1EEE
00000000001c6c88  w   DF .text	0000000000000180 _ZN2nn2sf4cmif6client34CmifDomainProxyClientCoreProcessorINS0_4hipc6client38Hipc2ClientSessionManagedProxyKindBaseINS5_18Hipc2ProxyKindBaseILNS4_6detail11MessageTypeE4EEEEENS1_6detail14CoreMethodInfoINSt3__15tupleIJNSC_18OutRawArgumentInfoILm68ELm4ELl0EEENSC_17InRawArgumentInfoILm68ELm4ELl0EEENSI_ILm4ELm4ELl68EEEEEELm72ELm68ELb0EEESL_E7ProcessEPNS2_23CmifDomainClientMessageISB_E15ProxyBaseObjectENS2_24OutRawClientArgumentTypeILm68ELm4EEENS2_23InRawClientArgumentTypeILm68ELm4EvEENSU_ILm4ELm4EvEEj
00000000000a6730  w   DF .text	0000000000000200 _ZN2nn2sf4hipc6client24Hipc2ClientCoreProcessorILNS1_6detail11MessageTypeE4ENS0_4cmif6detail14CoreMethodInfoINSt3__15tupleIJNS7_18OutRawArgumentInfoILm4ELm4ELl0EEENSB_ILm4ELm4ELl4EEENS7_18BufferArgumentInfoILi0ELi33ELm0EEENS7_17InRawArgumentInfoILm4ELm4ELl0EEEEEELm4ELm8ELb0EEESI_E7ProcessEPNS2_26Hipc2ClientProxyBaseObjectENS6_6client24OutRawClientArgumentTypeILm4ELm4EEESP_NSN_24BufferClientArgumentTypeENSN_23InRawClientArgumentTypeILm4ELm4EvEEj
000000000022a14c g    DF .text	0000000000000008 _ZNK2nn3hid15KeyCodeComposer14GetOutputCountEv
0000000000395c9c g    DF .text	0000000000000018 _ZSt13get_terminatev
00000000000b7da8  w   DF .text	0000000000000020 _ZN2nn2sf4cmif6client6detail13CmifProxyImplINS_7account31IAccountServiceForSystemServiceENS2_15CmifDomainProxyINS0_4hipc6client38Hipc2ClientSessionManagedProxyKindBaseINS9_18Hipc2ProxyKindBaseILNS8_6detail11MessageTypeE4EEEEEEENS0_25StatelessAllocationPolicyINS0_22ExpHeapStaticAllocatorILm2048ENS5_6detail12ObjectHolder24ObjectHolderAllocatorTagEEEEES6_E44_nn_sf_sync_DebugInvalidateTokenCacheForUserERKNS5_3UidE
00000000002ccec0 g    DF .text	0000000000000158 _ZN7android6Region9unflattenEPKvm
000000000015cbd8 g    DF .text	0000000000000100 _ZN2nn2oe23EnableGamePlayRecordingEPvm
00000000001ba08c g    DF .text	0000000000000048 _ZN2nn3mii6detail11CoreDataRaw12SetGlassTypeEi
00000000000a1890 g    DF .text	0000000000000004 _ZN2nn6socket7ConnectEiPK8sockaddrj
00000000000b4940  w   DF .text	0000000000000020 _ZN2nn2sf4cmif6client6detail13CmifProxyImplINS_7account19IAccountServiceBaseENS2_15CmifDomainProxyINS0_4hipc6client38Hipc2ClientSessionManagedProxyKindBaseINS9_18Hipc2ProxyKindBaseILNS8_6detail11MessageTypeE4EEEEEEENS0_25StatelessAllocationPolicyINS0_22ExpHeapStaticAllocatorILm2048ENS5_6detail12ObjectHolder24ObjectHolderAllocatorTagEEEEENS5_29IAccountServiceForApplicationEE29_nn_sf_sync_GetLastOpenedUserENS0_3OutINS5_3UidEvEE
000000000014d1b0 g    DF .text	0000000000000078 _ZNK2nn3ngc6detail3Set7Select1Ej
000000000015b248 g    DF .text	0000000000000054 _ZN2nn2oe20NotifyRunningForTestEv
00000000001a0bb0 g    DF .text	0000000000000028 _ZN2nn5audio6server30CommandProcessingTimeEstimator8EstimateERKNS0_13VolumeCommandE
000000000003ef34 g    DF .text	00000000000000d0 _ZN2nn4util12FormatStringEPFvmPKciEmS2_z
000000000018c14c g    DF .text	000000000000000c _ZN2nn5audio14GetVoiceVolumeEPKNS0_9VoiceTypeE
00000000000762e0 g    DF .text	0000000000000064 nnmem_nlib_utf16_to_utf32char
00000000008011f0  w   DO .rodata	00000000000000ba _ZTSN2nn2sf4cmif6client6detail9CmifProxyINS_5visrv2sf26IApplicationDisplayServiceENS0_4hipc6client18Hipc2ProxyKindBaseILNS8_6detail11MessageTypeE4EEENS0_30MemoryResourceAllocationPolicyEvEE
0000000000973f60 g    DO .data	0000000000000070 _ZTTN7android23BnSurfaceComposerClientE
0000000000947760  w   DO .data	0000000000000048 _ZTIN2nn2sf4cmif6client6detail13CmifProxyImplINS_7account4baas18IGuestLoginRequestENS2_15CmifDomainProxyINS0_4hipc6client38Hipc2ClientSessionManagedProxyKindBaseINSA_18Hipc2ProxyKindBaseILNS9_6detail11MessageTypeE4EEEEEEENS0_25StatelessAllocationPolicyINS0_22ExpHeapStaticAllocatorILm2048ENS5_6detail12ObjectHolder24ObjectHolderAllocatorTagEEEEES7_EE
0000000000166b90  w   DF .text	000000000000032c _ZZN2nn2sf40SimpleAllInOneHipcSubDomainClientManagerILm1EE27InitializeShimLibraryHolderINS_5prepo6detail3ipc13IPrepoServiceEEENS_6ResultEPNS0_23ShimLibraryObjectHolderIT_EEPKcPNS_14MemoryResourceEENUlPNS0_13SharedPointerIS7_EEE_clESJ_
0000000000151474 g    DF .text	000000000000006c _ZN2nn4nifm6detail21ServiceProviderClientD2Ev
00000000001c9a80 g    DF .text	00000000000000a4 _ZN2nn5swkbd16SetGuideTextUtf8EPNS0_14KeyboardConfigEPKc
000000000020e71c g    DF .text	0000000000000424 scale_font_ttf
00000000001bcdc4 g    DF .text	0000000000000004 _ZN2nn3mii6detail12StoreDataRaw13SetGlassScaleEi
00000000000a1970 g    DF .text	0000000000000004 _ZN2nn6socket8InetPtonEiPKcPv
0000000000158c3c g    DF .text	00000000000000cc _ZN2nn3nsd6detail3ipc11GetDeviceIdEPNS0_8DeviceIdE
0000000000801ec0  w   DO .rodata	00000000000000bd _ZTSN2nn2sf4cmif6client6detail13CmifProxyImplINS_5visrv2sf22IManagerDisplayServiceENS0_4hipc6client18Hipc2ProxyKindBaseILNS8_6detail11MessageTypeE4EEENS0_30MemoryResourceAllocationPolicyES7_EE
000000000022eb1c g    DF .text	000000000000007c _ZN2nn3hid22GetVibrationDeviceInfoEPNS0_19VibrationDeviceInfoERKNS0_21VibrationDeviceHandleE
000000000036d2e4 g    DF .text	0000000000000034 _ZNSt3__115__thread_structC2Ev
00000000001586d0 g    DF .text	0000000000000044 _ZN2nn3nsd18GetCurrentSaveDataEPNS0_8SaveDataE
00000000001c78cc g    DF .text	0000000000000008 _ZNK2nn3mii12AppletOutput22GetUpdateMiiImageIndexEv
0000000000326208 g    DF .text	0000000000000014 _ZNSt13exception_ptrC2ERKS_
00000000000b7520  w   DF .text	0000000000000008 _ZThn32_N2nn2sf4cmif6client6detail13CmifProxyImplINS_7account4baas18IGuestLoginRequestENS2_15CmifDomainProxyINS0_4hipc6client38Hipc2ClientSessionManagedProxyKindBaseINSA_18Hipc2ProxyKindBaseILNS9_6detail11MessageTypeE4EEEEEEENS0_25StatelessAllocationPolicyINS0_22ExpHeapStaticAllocatorILm2048ENS5_6detail12ObjectHolder24ObjectHolderAllocatorTagEEEEES7_E17GetCmifBaseObjectEv
00000000001222c8 g    DF .text	0000000000000008 _ZNK2nn7friends18FriendDetailedInfo8GetExtraEv
00000000007ce7f0  w   DO .rodata	00000000000000fd _ZTSN2nn2sf4cmif6client6detail9CmifProxyINS_4bcat6detail3ipc15IServiceCreatorENS2_15CmifDomainProxyINS0_4hipc6client38Hipc2ClientSessionManagedProxyKindBaseINSB_18Hipc2ProxyKindBaseILNSA_6detail11MessageTypeE4EEEEEEENS0_30MemoryResourceAllocationPolicyEvEE
000000000017109c  w   DF .text	0000000000000020 _ZN2nn2sf4cmif6client6detail13CmifProxyImplINS_8settings22IFactorySettingsServerENS0_4hipc6client18Hipc2ProxyKindBaseILNS7_6detail11MessageTypeE4EEENS0_25StatelessAllocationPolicyINS0_22ExpHeapStaticAllocatorILm16384ES6_EEEES6_E29_nn_sf_sync_GetGyroscopeScaleENS0_3OutINS5_7factory14GyroscopeScaleEvEE
000000000022c834 g    DF .text	0000000000000064 _ZN2nn3hid6system21SendConnectionTriggerENS_9bluetooth7AddressE
0000000000229198 g    DF .text	0000000000000044 _ZN2nn3hid5debug29UnsetHomeButtonAutoPilotStateEv
00000000002643f0 g    DF .text	0000000000000094 NvOsSnprintf
00000000002c38f4 g    DF .text	000000000000002c _ZN7android14SurfaceControl13setLayerStackEi
0000000000059128  w   DF .text	0000000000000178 _ZN2nn2sf4cmif6client34CmifDomainProxyClientCoreProcessorINS0_4hipc6client38Hipc2ClientSessionManagedProxyKindBaseINS5_18Hipc2ProxyKindBaseILNS4_6detail11MessageTypeE4EEEEENS1_6detail14CoreMethodInfoINSt3__15tupleIJNSC_17InRawArgumentInfoILm64ELm8ELl0EEENSG_ILm64ELm8ELl64EEEEEELm128ELm0ELb0EEESJ_E7ProcessEPNS2_23CmifDomainClientMessageISB_E15ProxyBaseObjectENS2_23InRawClientArgumentTypeILm64ELm8EvEESR_j
00000000001d7844 g    DF .text	00000000000000a8 _ZN2nn6fontll6detail11ReadXValuesEPtS2_PPKht
000000000021cbe8 g    DF .text	0000000000000074 _ZN2nn3hid6detail26ResetAccelerometerPlayModeENS0_19SixAxisSensorHandleE
000000000018fdac g    DF .text	0000000000000074 _ZN2nn5audio30SetAudioInsProcessMasterVolumeENS_6applet20AppletResourceUserIdEfNS_8TimeSpanE
00000000001bcd64 g    DF .text	0000000000000004 _ZN2nn3mii6detail12StoreDataRaw7SetEyeXEi
0000000000156e30 g    DF .text	0000000000000004 _ZN2nn4nifm7Request9GetHandleEv
000000000013474c g    DF .text	0000000000000004 _ZN2nn4htcs6detail25virtual_socket_collection7SetSizeEi
000000000006f3c0 g    DF .text	0000000000000018 _ZN2nn4lmem36GetExpHeapAllocationDirectionOfBlockEPKv
00000000007ca890  w   DO .rodata	00000000000000fc _ZTSN2nn2sf4cmif6client6detail9CmifProxyINS_2am7service19IApplicationCreatorENS2_15CmifDomainProxyINS0_4hipc6client38Hipc2ClientSessionManagedProxyKindBaseINSA_18Hipc2ProxyKindBaseILNS9_6detail11MessageTypeE4EEEEEEENS0_30MemoryResourceAllocationPolicyEvEE
00000000002cbf90 g    DF .text	00000000000000dc _ZNK7android6Region9operationERKS0_i
000000000006c7b0 g    DF .text	0000000000000030 _ZN2nn2fs6detail27StorageServiceObjectAdapterC2EONS_2sf13SharedPointerINS_5fssrv2sf8IStorageEEE
00000000000b4b1c  w   DF .text	0000000000000090 _ZN2nn2sf4cmif6client6detail13CmifProxyImplINS_7account29IAccountServiceForApplicationENS2_15CmifDomainProxyINS0_4hipc6client38Hipc2ClientSessionManagedProxyKindBaseINS9_18Hipc2ProxyKindBaseILNS8_6detail11MessageTypeE4EEEEEEENS0_25StatelessAllocationPolicyINS0_22ExpHeapStaticAllocatorILm2048ENS5_6detail12ObjectHolder24ObjectHolderAllocatorTagEEEEES6_E40_nn_sf_sync_AuthenticateApplicationAsyncENS0_3OutINS0_13SharedPointerINSJ_13IAsyncContextEEEvEE
0000000000223ab4 g    DF .text	0000000000000090 _ZN2nn3hid6detail28SetTouchScreenAutoPilotStateILm5EEENS_6ResultERKNS0_5debug25TouchScreenAutoPilotStateIXT_EEE
0000000000226490 g    DF .text	00000000000000a8 _ZN2nn3hid6detail39IsSixAxisSensorUserCalibrationSupportedEPbNS0_6system25UniqueSixAxisSensorHandleE
000000000032c9c8  w   DF .text	0000000000000030 _ZNSt3__113basic_istreamIwNS_11char_traitsIwEEErsEPFRNS_9basic_iosIwS2_EES6_E
000000000011ac2c g    DF .text	0000000000000244 _ZN2nn3err45CreateErrorViewerStartupParamForRecordedErrorEPvPmmPKcS4_NS_4time9PosixTimeE
000000000017cf68  w   DF .text	0000000000000004 _ZN2nn4time6detail25AdjustableSystemClockBaseINS0_26StandardNetworkSystemClockEED2Ev
0000000000247c2c g    DF .text	0000000000000c44 _ZN22nerd_gillette_internal5otete7jaimev123DecodeFullSilhouetteROKERNS_30ContiguousStorageContainerBaseINS_15NumericalVectorIsLm2EEELb1EEERNS0_14InputBitStreamERKNS1_23FullSilhouetteCodecDataE
000000000006bd88 g    DF .text	000000000000015c _ZN2nn2fs26GetSdCardProtectedAreaSizeEPl
0000000000942688  w   DO .data	0000000000000010 _ZTIN2nn2sf13ISharedObjectE
00000000001bcce0 g    DF .text	0000000000000034 _ZN2nn3mii6detail12StoreDataRaw14BuildMiiEditorEPNS1_11UtilityImplENS0_6GenderE
0000000000298bb0 g    DF .text	0000000000000034 _ZN7android12BnMemoryHeapD2Ev
00000000009456c8 g    DO .data	0000000000000010 _ZN2nn2os6detail22g_CommandLineParameterE
00000000001ce134  w   DF .text	0000000000000200 _ZN2nn2sf4hipc6client24Hipc2ClientCoreProcessorILNS1_6detail11MessageTypeE4ENS0_4cmif6detail14CoreMethodInfoINSt3__15tupleIJNS7_17InRawArgumentInfoILm4ELm4ELl0EEENSB_ILm4ELm4ELl4EEENS7_18BufferArgumentInfoILi0ELi33ELm0EEENSE_ILi1ELi34ELm0EEENSB_ILm4ELm4ELl8EEEEEELm12ELm0ELb0EEESI_E7ProcessEPNS2_26Hipc2ClientProxyBaseObjectENS6_6client23InRawClientArgumentTypeILm4ELm4EvEESP_NSN_24BufferClientArgumentTypeESQ_SP_j
00000000001d16bc  w   DF .text	0000000000000198 _ZN2nn2sf4hipc6client24Hipc2ClientCoreProcessorILNS1_6detail11MessageTypeE4ENS0_4cmif6detail14CoreMethodInfoINSt3__15tupleIJNS7_17InRawArgumentInfoILm8ELm8ELl24EEENSB_ILm8ELm8ELl32EEENSB_ILm4ELm4ELl0EEENSB_ILm4ELm4ELl4EEENSB_ILm4ELm4ELl8EEENSB_ILm4ELm4ELl12EEENSB_ILm4ELm4ELl16EEENS7_18BufferArgumentInfoILi0ELi5ELm0EEENSB_ILm4ELm4ELl20EEEEEELm40ELm0ELb0EEESM_E7ProcessEPNS2_26Hipc2ClientProxyBaseObjectENS6_6client23InRawClientArgumentTypeILm8ELm8EvEEST_NSS_ILm4ELm4EvEESU_SU_SU_SU_NSR_24BufferClientArgumentTypeESU_j
0000000000329bcc  w   DF .text	0000000000000030 _ZTv0_n24_NSt3__113basic_istreamIcNS_11char_traitsIcEEED0Ev
0000000000135f98 g    DF .text	0000000000000030 _ZN2nn2lm6detail20LogPacketTransmitter19PushLogSessionBeginEv
0000000000188c78 g    DF .text	00000000000000e0 _ZN2nn5audio13EffectManager24UpdateEffectsInParameterEPv
0000000000396764 g    DF .text	0000000000000054 _ZNSt15underflow_errorD1Ev
0000000000986c98 g    DO .data	0000000000000008 __stdin_used
00000000000fa2b4 g    DF .text	0000000000000200 silk_decode_pulses
000000000095bef8  w   DO .data	0000000000000010 _ZTIN2nn3hid6detail8RingLifoINS1_33SixAxisSensorUserCalibrationStateELi1ENS1_13AtomicStorageIS3_EEEE
00000000000bda08 g    DF .text	0000000000000024 _ZN2nn7account12AsyncContext6CancelEv
00000000001f8710 g    DF .text	0000000000000040 fnt_RoundToHalfGrid
0000000000091474 g    DF .text	0000000000000004 nnosJamMessageQueue
0000000000258788 g    DF .text	0000000000000008 nvdcGetCapabilities
00000000007d4c8c g    DO .rodata	0000000000000015 silk_pitch_delta_iCDF
000000000012d8f8 g    DF .text	00000000000000e8 _ZN2nn2fs24GetFileTimeStampForDebugEPNS0_13FileTimeStampEPKc
000000000094f948  w   DO .data	00000000000000a8 _ZTVN2nn2sf6detail38ObjectImplFactoryWithStatefulAllocatorINS0_4cmif6client16CmifProxyFactoryINS_4bcat6detail3ipc12IBcatServiceENS4_15CmifDomainProxyINS0_4hipc6client38Hipc2ClientSessionManagedProxyKindBaseINSC_18Hipc2ProxyKindBaseILNSB_6detail11MessageTypeE4EEEEEEENS0_30MemoryResourceAllocationPolicyEE13ServiceObjectESK_E6ObjectE
00000000002d34bc g    DF .text	0000000000000014 _ZN7android16SortedVectorImplaSERKS0_
00000000000da6b4 g    DF .text	0000000000000094 haar1
0000000000270134 g    DF .text	0000000000000004 NvRmMemUnmap
000000000097e470 g    DO .data	0000000000000018 _ZTIN10__cxxabiv121__vmi_class_type_infoE
00000000002347bc  w   DF .text	0000000000000020 _ZN2nn2sf4cmif6client6detail13CmifProxyImplINS_3hid16IHidSystemServerENS0_4hipc6client18Hipc2ProxyKindBaseILNS7_6detail11MessageTypeE4EEENS0_25StatelessAllocationPolicyINS0_22ExpHeapStaticAllocatorILm16384ENS5_6detail15HidSystemServerEEEEES6_E43_nn_sf_sync_AcquireCaptureButtonEventHandleENS0_3OutINS0_12NativeHandleEvEENS_6applet20AppletResourceUserIdE
00000000002286a0 g    DF .text	0000000000000044 _ZN2nn3hid6system22InitializeAudioControlEv
00000000007b9250  w   DO .rodata	0000000000000029 _ZTSN2nn2sf4hipc6server18Hipc2ServerMessageE
00000000000c93d0  w   DF .text	0000000000000008 _ZN2nn2sf6detail38ObjectImplFactoryWithStatefulAllocatorINS0_4cmif6client16CmifProxyFactoryINS_2am7service25IProcessWindingControllerENS4_15CmifDomainProxyINS0_4hipc6client38Hipc2ClientSessionManagedProxyKindBaseINSB_18Hipc2ProxyKindBaseILNSA_6detail11MessageTypeE4EEEEEEENS0_30MemoryResourceAllocationPolicyEE13ServiceObjectESJ_E6Object12AddReferenceEv
00000000001b263c g    DF .text	0000000000000108 _ZN2nn2ec6detail20ShowShopSettingsImplENS1_10LaunchModeERKNS_7account3UidENS0_8SourceIdE
0000000000091358 g    DF .text	0000000000000004 nnosReleaseSemaphoreCount
000000000094dc60  w   DO .data	0000000000000018 _ZTIN2nn2sf4cmif6client6detail9CmifProxyINS_2am7service26ILibraryAppletSelfAccessorENS2_15CmifDomainProxyINS0_4hipc6client38Hipc2ClientSessionManagedProxyKindBaseINSA_18Hipc2ProxyKindBaseILNS9_6detail11MessageTypeE4EEEEEEENS0_30MemoryResourceAllocationPolicyEvEE
00000000001ca840 g    DF .text	0000000000000034 _ZN2nn5swkbd6detail18InlineKeyboardImpl12SetInputTextERKNS0_9InputTextE
000000000022b600 g    DF .text	0000000000000048 _ZN2nn3hid28SetControlPadRestrictionTypeENS_4util10BitFlagSetILi32ENS0_12NpadStyleTagEEENS0_25ControlPadRestrictionTypeE
0000000000225b1c  w   DF .text	0000000000000254 _ZNK2nn3hid6detail8RingLifoINS0_16TouchScreenStateILm16EEELi16ENS1_29TouchScreenStateAtomicStorageEE8ReadImplIS4_EEiPT_i
0000000000823c30  w   DO .rodata	0000000000000023 _ZTSNSt3__117moneypunct_bynameIwLb1EEE
000000000022bcd8 g    DF .text	0000000000000044 _ZN2nn3hid6system10HasBatteryEPbS2_RKj
000000000023ab18 g    DF .text	0000000000000044 _ZN2nn8irsensor23StopImageProcessorAsyncERKNS0_14IrCameraHandleE
000000000006e9d4  w   DF .text	00000000000001ec _ZN2nn2sf4cmif6client34CmifDomainProxyClientCoreProcessorINS0_4hipc6client38Hipc2ClientSessionManagedProxyKindBaseINS5_18Hipc2ProxyKindBaseILNS4_6detail11MessageTypeE4EEEEENS1_6detail14CoreMethodInfoINSt3__15tupleIJNSC_18OutRawArgumentInfoILm8ELm8ELl0EEENSC_18BufferArgumentInfoILi0ELi6ELm0EEENSC_17InRawArgumentInfoILm64ELm1ELl0EEEEEELm64ELm8ELb0EEESM_E7ProcessEPNS2_23CmifDomainClientMessageISB_E15ProxyBaseObjectENS2_24OutRawClientArgumentTypeILm8ELm8EEENS2_24BufferClientArgumentTypeENS2_23InRawClientArgumentTypeILm64ELm1EvEEj
000000000009cc38 g    DF .text	0000000000000028 _ZN2nn2sf4hipc6server6detail29HipcAllInOneServerManagerBase8LoopAutoEv
000000000033a24c  w   DF .text	000000000000048c _ZNKSt3__17num_getIwNS_19istreambuf_iteratorIwNS_11char_traitsIwEEEEE23__do_get_floating_pointIfEES4_S4_S4_RNS_8ios_baseERjRT_
0000000000396688 g    DF .text	0000000000000004 _ZNSt9exceptionD1Ev
00000000001d5018 g    DF .text	0000000000000010 _ZN2nn2vi19AllocateLayerHolderEv
0000000000045750 g    DF .text	0000000000000058 _ZN2nn4diag6detail22InvokeSdkAbortObserverERKNS0_12SdkAbortInfoE
0000000000008100  w   DF .text	0000000000000008 _ZN2nn6crypto6detail11XtsModeImplINS1_20XtsModeGenericHelperEEC1Ev
000000000018aee0 g    DF .text	0000000000000044 _ZN2nn5audio20GetSplitterMixVolumeEPKNS0_12SplitterTypeEiPKNS0_10SubMixTypeEii
000000000003d774 g    DF .text	000000000000009c _ZN2nn4util6TinyMt10InitializeEj
00000000007db230  w   DO .rodata	0000000000000021 _ZTSN2nn3nfc6detail14ISystemManagerE
00000000001bd0e8 g    DF .text	0000000000000008 _ZNK2nn3mii6detail12Ver3AuthorId7IsValidEv
00000000001c6374  w   DF .text	0000000000000010 _ZN2nn2sf4cmif6client6detail13CmifProxyImplINS_3mii6detail14IStaticServiceENS2_15CmifDomainProxyINS0_4hipc6client38Hipc2ClientSessionManagedProxyKindBaseINSA_18Hipc2ProxyKindBaseILNS9_6detail11MessageTypeE4EEEEEEENS0_25StatelessAllocationPolicyINS0_22ExpHeapStaticAllocatorILm16384ENS6_21ServiceProviderClient30CreateNifmUserServiceObjectTagEEEEES7_E17GetCmifBaseObjectEv
00000000002ae1e4 g    DF .text	0000000000000430 _ZN7android15BufferQueueCoreC1ERKNS_2spINS_19IGraphicBufferAllocEEE
00000000002c9a68 g    DF .text	00000000000000d0 _ZN7android13GraphicBuffer10reallocateEjjij
0000000000029930 g    DF .text	00000000000002c8 _ZN2nn5image6detail4jpeg14jpeg_idct_5x10EPNS2_22jpeg_decompress_structEPNS2_19jpeg_component_infoEPsPPhi
0000000000946388  w   DO .data	0000000000000008 _ZN2nn2sf4cmif6server6detail30CmifProcessFunctionTableGetterINS2_22CmifDomainServerObjectEvE7s_TableE
000000000017b3c8  w   DF .text	0000000000000008 _ZN2nn2sf4cmif6client6detail13CmifProxyImplINS_3ssl2sf14ISslConnectionENS2_15CmifDomainProxyINS0_4hipc6client38Hipc2ClientSessionManagedProxyKindBaseINSA_18Hipc2ProxyKindBaseILNS9_6detail11MessageTypeE4EEEEEEENS0_24StatefulAllocationPolicyINS0_16ExpHeapAllocatorEEES7_E12GetProxyInfoEv
000000000017d204  w   DF .text	0000000000000004 _ZN2nn4time6detail25AdjustableSystemClockBaseINS0_23StandardUserSystemClockEED2Ev
000000000094dc80  w   DO .data	0000000000000018 _ZTIN2nn2sf4cmif6client16CmifProxyFactoryINS_2am7service26ILibraryAppletSelfAccessorENS2_15CmifDomainProxyINS0_4hipc6client38Hipc2ClientSessionManagedProxyKindBaseINS9_18Hipc2ProxyKindBaseILNS8_6detail11MessageTypeE4EEEEEEENS0_30MemoryResourceAllocationPolicyEE13ServiceObjectE
000000000097d960 g    DO .data	0000000000000018 _ZTISt10bad_typeid
0000000000075edc g    DF .text	00000000000000dc nnmem_nlib_utf16ncpy_
000000000009d260 g    DF .text	0000000000000144 _ZN2nn2sf4hipc6server24HipcServerSessionManager24Process2InvokeMethodImplEONS0_4cmif6server20CmifServerObjectInfoEPNS2_17HipcServerSessionEPvmSA_m
000000000022fdd0 g    DF .text	0000000000000008 _ZNK2nn3hid15VibrationPlayer9IsPlayingEv
000000000008e09c g    DF .text	00000000000000b4 _ZN2nn2os15ClearTimerEventEPNS0_14TimerEventTypeE
0000000000946030  w   DO .data	0000000000000010 _ZTIN2nn2sf4hipc6server28HipcServerSessionManagerBaseE
0000000000331234  w   DF .text	0000000000000030 _ZNSt3__113basic_ostreamIwNS_11char_traitsIwEEElsEPFRNS_9basic_iosIwS2_EES6_E
00000000001a08bc g    DF .text	00000000000001c8 _ZN2nn5audio6server16CommandGenerator20GenerateSinkCommandsEv
00000000000d40cc g    DF .text	00000000000000a8 _ZN2nn6applet14GetStorageSizeENS0_13StorageHandleE
00000000007e92c0 g    DO .rodata	0000000000000004 _ZN2nn5audio2PIE
000000000018baa4 g    DF .text	0000000000000014 _ZN2nn5audio23SplitterDestinationData12SetMixVolumeEfi
0000000000264520 g    DF .text	0000000000000004 NvOsDebugVprintf
0000000000160458  w   DF .text	0000000000000008 _ZThn32_N2nn2sf4cmif6client6detail13CmifProxyImplINS_4pctl6detail3ipc30IParentalControlServiceFactoryENS2_15CmifDomainProxyINS0_4hipc6client38Hipc2ClientSessionManagedProxyKindBaseINSB_18Hipc2ProxyKindBaseILNSA_6detail11MessageTypeE4EEEEEEENS0_30MemoryResourceAllocationPolicyES8_E17GetCmifBaseObjectEv
00000000000b80e8  w   DF .text	0000000000000020 _ZN2nn2sf4cmif6client6detail13CmifProxyImplINS_7account4baas12IManagerBaseENS2_15CmifDomainProxyINS0_4hipc6client38Hipc2ClientSessionManagedProxyKindBaseINSA_18Hipc2ProxyKindBaseILNS9_6detail11MessageTypeE4EEEEEEENS0_25StatelessAllocationPolicyINS0_22ExpHeapStaticAllocatorILm2048ENS5_6detail12ObjectHolder24ObjectHolderAllocatorTagEEEEENS6_24IManagerForSystemServiceEE24_nn_sf_sync_GetAccountIdENS0_3OutINS5_23NetworkServiceAccountIdEvEE
0000000000187f90 g    DF .text	0000000000000048 _ZN2nn5audio17RemoveI3dl2ReverbEPNS0_19AudioRendererConfigEPNS0_15I3dl2ReverbTypeEPNS0_10SubMixTypeE
0000000000357444 g    DF .text	00000000000000d4 _ZNKSt3__17codecvtIwc11__mbstate_tE11do_encodingEv
00000000000473d4 g    DF .text	0000000000000048 _ZN2nn2fs23ScopedAutoAbortDisablerC1Ev
00000000001f0254 g    DF .text	000000000000037c fixed_norm
000000000014af4c g    DF .text	0000000000000010 _ZN2nn3ngc6detail11InputStream14GetWorkBuffer_EPm
000000000019c1d8 g    DF .text	0000000000000034 _ZN2nn5audio6server24AudioRendererManagerImpl17AudioRendererImpl17RequestUpdateAutoERKNS_2sf9OutBufferES7_RKNS4_8InBufferE
00000000000c1940 g    DF .text	0000000000000018 _ZN2nn7account8NotifierC2EPNS0_6detail9INotifierE
00000000002205c4 g    DF .text	0000000000000040 _ZN2nn3hid6detail18SharedMemoryHolder8FinalizeEv
00000000001af814 g    DF .text	0000000000000074 _ZN2nn5audio3dsp9ApplyMix2EPiPKiii
00000000001cbdf0  w   DF .text	0000000000000018 _ZN2nn2sf13SharedPointerINS_5visrv2sf21ISystemDisplayServiceEED2Ev
00000000001d25ac  w   DF .text	000000000000004c _ZZN2nn2sf31SimpleAllInOneHipcClientManagerILm10EE27InitializeShimLibraryHolderINS_5visrv2sf23IApplicationRootServiceEEENS_6ResultEPNS0_23ShimLibraryObjectHolderIT_EEPKcPNS_14MemoryResourceEENUlPvE_8__invokeESG_
00000000001536e4  w   DF .text	00000000000001dc _ZN2nn2sf4cmif6client34CmifDomainProxyClientCoreProcessorINS0_4hipc6client38Hipc2ClientSessionManagedProxyKindBaseINS5_18Hipc2ProxyKindBaseILNS4_6detail11MessageTypeE4EEEEENS1_6detail14CoreMethodInfoINSt3__15tupleIJNSC_18BufferArgumentInfoILi0ELi10ELm0EEENSC_18OutRawArgumentInfoILm4ELm4ELl0EEENSC_17InRawArgumentInfoILm4ELm4ELl0EEEEEELm4ELm4ELb0EEESM_E7ProcessEPNS2_23CmifDomainClientMessageISB_E15ProxyBaseObjectENS2_24BufferClientArgumentTypeENS2_24OutRawClientArgumentTypeILm4ELm4EEENS2_23InRawClientArgumentTypeILm4ELm4EvEEj
0000000000a83490 g    DO .bss	0000000000000008 __environ
00000000008052f0 g    DO .rodata	0000000000000020 _ZN2nn4util10BitFlagSetILi256ENS_3hid11KeyboardKeyEE4FlagILi88EE4MaskE
0000000000118684 g    DF .text	0000000000000008 _ZNK2nn5codec11OpusEncoder21GetPreSkipSampleCountEv
0000000000172590  w   DF .text	00000000000000a0 _ZN2nn2sf4cmif6client6detail13CmifProxyImplINS_8settings28IFirmwareDebugSettingsServerENS0_4hipc6client18Hipc2ProxyKindBaseILNS7_6detail11MessageTypeE4EEENS0_25StatelessAllocationPolicyINS0_22ExpHeapStaticAllocatorILm16384ES6_EEEES6_E41_nn_sf_sync_CreateSettingsItemKeyIteratorENS0_3OutINS0_13SharedPointerINS5_24ISettingsItemKeyIteratorEEEvEERKNS5_12SettingsNameE
000000000034af94  w   DF .text	00000000000013a8 _ZNSt3__19money_getIwNS_19istreambuf_iteratorIwNS_11char_traitsIwEEEEE8__do_getERS4_S4_bRKNS_6localeEjRjRbRKNS_5ctypeIwEERNS_10unique_ptrIwPFvPvEEERPwSM_
00000000001155cc g    DF .text	0000000000000008 opus_multistream_encoder_init
00000000001c3228 g    DF .text	0000000000000010 _ZN2nn3mii6detail16Ver3StoreDataRaw13SetBirthMonthEi
00000000009563d0  w   DO .data	0000000000000018 _ZTIN2nn3ntc6detail7service14IStaticServiceE
00000000000956e8 g    DF .text	00000000000000e4 _ZN2nn2os6detail26ThreadManagerImplByHorizonC2EPNS0_10ThreadTypeE
000000000006567c g    DF .text	0000000000000098 _ZN2nn2fs11CanMountRomENS_13ApplicationIdE
000000000022c1e4 g    DF .text	0000000000000044 _ZN2nn3hid20StopLrAssignmentModeEv
0000000000259f1c g    DF .text	00000000000000c4 nvdcGetModeDB
000000000035b7e8 g    DF .text	0000000000000224 _ZNKSt3__120__time_get_c_storageIwE8__monthsEv
00000000007caaa0  w   DO .rodata	0000000000000026 _ZTSN2nn2am7service19IApplicationCreatorE
00000000001c6448  w   DF .text	0000000000000074 _ZN2nn2sf6detail39ObjectImplFactoryWithStatelessAllocatorINS0_4cmif6client16CmifProxyFactoryINS_3mii6detail16IDatabaseServiceENS4_15CmifDomainProxyINS0_4hipc6client38Hipc2ClientSessionManagedProxyKindBaseINSB_18Hipc2ProxyKindBaseILNSA_6detail11MessageTypeE4EEEEEEENS0_25StatelessAllocationPolicyINS0_22ExpHeapStaticAllocatorILm16384ENS7_21ServiceProviderClient30CreateNifmUserServiceObjectTagEEEEEE13ServiceObjectESO_E6Object7ReleaseEv
000000000006eda0 g    DF .text	0000000000000004 nninitFinalizeSdkModule
00000000000940c8 g    DF .text	000000000000011c _ZN2nn2os6detail11VammManager14AllocateMemoryEPmm
00000000001183f0 g    DF .text	000000000000003c _ZN2nn5codec11OpusEncoder8FinalizeEv
000000000018dcdc g    DF .text	0000000000000048 _ZN2nn5audio18Axfx2DelaySetDelayEPNS0_14Axfx2DelayLineEi
000000000008fc14 g    DF .text	0000000000000040 _ZN2nn2os12SdkMutexType4LockEv
000000000094dde0  w   DO .data	0000000000000018 _ZTIN2nn2sf4cmif6client16CmifProxyFactoryINS_6grcsrv17IGameMovieTrimmerENS2_15CmifDomainProxyINS0_4hipc6client38Hipc2ClientSessionManagedProxyKindBaseINS8_18Hipc2ProxyKindBaseILNS7_6detail11MessageTypeE4EEEEEEENS0_30MemoryResourceAllocationPolicyEE13ServiceObjectE
0000000000238ac8 g    DF .text	00000000000000b0 _ZN2nn8irsensor6detail13StatusManager22SetIrSensorAruidStatusERKNS_6applet20AppletResourceUserIdENS_4util10BitFlagSetILi32ENS1_16AppletStatusFlagEEE
00000000000914a8 g    DF .text	0000000000000004 nnosTryWaitAny
00000000001c9f70 g    DF .text	0000000000000010 _ZN2nn5swkbd14InlineKeyboard17UnsetCustomizeDicEv
0000000000239230 g    DF .text	0000000000000034 _ZN2nn8irsensor6detail20InternalErrorHandlerC2Ev
0000000000354488 g    DF .text	0000000000000020 _ZNSt3__16locale2id6__initEv
00000000000c7e38  w   DF .text	0000000000000058 _ZN2nn2sf6detail38ObjectImplFactoryWithStatefulAllocatorINS0_4cmif6client16CmifProxyFactoryINS_2am7service18IDisplayControllerENS4_15CmifDomainProxyINS0_4hipc6client38Hipc2ClientSessionManagedProxyKindBaseINSB_18Hipc2ProxyKindBaseILNSA_6detail11MessageTypeE4EEEEEEENS0_30MemoryResourceAllocationPolicyEE13ServiceObjectESJ_E6Object7ReleaseEv
00000000001a5078 g    DF .text	000000000000000c _ZN2nn5audio6server11SinkContext10InitializeEPNS1_12SinkInfoBaseEi
0000000000346fa4  w   DF .text	0000000000000018 _ZNKSt3__110moneypunctIcLb1EE16do_negative_signEv
00000000003e3104 g    DF .text	0000000000000004 wcscasecmp_l
0000000000154598  w   DF .text	000000000000016c _ZN2nn2sf4cmif6client34CmifDomainProxyClientCoreProcessorINS0_4hipc6client38Hipc2ClientSessionManagedProxyKindBaseINS5_18Hipc2ProxyKindBaseILNS4_6detail11MessageTypeE4EEEEENS1_6detail14CoreMethodInfoINSt3__15tupleIJNSC_18OutRawArgumentInfoILm13ELm1ELl0EEENSG_ILm9ELm1ELl13EEEEEELm0ELm22ELb0EEESJ_E7ProcessEPNS2_23CmifDomainClientMessageISB_E15ProxyBaseObjectENS2_24OutRawClientArgumentTypeILm13ELm1EEENSQ_ILm9ELm1EEEj
00000000002d336c g    DF .text	00000000000000ac _ZN7android10VectorImpl6resizeEm
000000000012ab48 g    DF .text	0000000000000214 _ZN2nn2fs31QueryMountAddOnContentCacheSizeEPmNS_13ApplicationIdEi
000000000014cfc0 g    DF .text	000000000000004c _ZN2nn3ngc6detail3Set6TurnOnEj
000000000023027c g    DF .text	000000000000003c _ZNK2nn3hid15VibrationTarget26IsVibrationDeviceHandleSetEv
00000000002c720c g    DF .text	000000000000009c _ZN7android21SurfaceComposerClient11setRGBRangeERKNS_2spINS_7IBinderEEEi
0000000000a684e8 g    DO .bss	0000000000000020 _ZN7android9SingletonINS_8ComposerEE5sLockE
00000000002ca4a8 g    DF .text	00000000000001cc _ZNK7android22GraphicBufferAllocator4dumpERNS_7String8E
0000000000161f60  w   DF .text	0000000000000240 _ZN2nn2sf4cmif6client34CmifDomainProxyClientCoreProcessorINS0_4hipc6client38Hipc2ClientSessionManagedProxyKindBaseINS5_18Hipc2ProxyKindBaseILNS4_6detail11MessageTypeE4EEEEENS1_6detail14CoreMethodInfoINSt3__15tupleIJNSC_18OutRawArgumentInfoILm8ELm4ELl0EEENSC_21OutHandleArgumentInfoILi0ELi1EEENSC_18BufferArgumentInfoILi0ELi9ELm0EEEEEELm0ELm8ELb0EEESM_E7ProcessEPNS2_23CmifDomainClientMessageISB_E15ProxyBaseObjectENS2_24OutRawClientArgumentTypeILm8ELm4EEENS2_27OutHandleClientArgumentTypeENS2_24BufferClientArgumentTypeEj
0000000000328e90  w   DF .text	000000000000000c _ZNKSt3__115basic_streambufIcNS_11char_traitsIcEEE6getlocEv
000000000004e220 g    DF .text	00000000000000e8 _ZN2nn2fs6detail10MountTable7UnmountEPKc
000000000016d8b8 g    DF .text	0000000000000184 _ZN2nn8settings6detail16MakeLanguageCodeEPNS0_12LanguageCodeENS0_8LanguageE
00000000000ad770 g    DF .text	000000000000000c _ZN2nn6socket8resolver11GetAddrInfoEPKcS3_PK8addrinfoPPS4_
0000000000949608  w   DO .data	0000000000000020 _ZTVN2nn7account31NintendoAccountLinkageProcedureE
000000000019e4d0 g    DF .text	0000000000000140 _ZN2nn5audio6server13CommandBuffer32GenerateI3dl2ReverbEffectCommandEiPKNS0_20I3dl2ReverbParameterEPvbmj
00000000001c9f90 g    DF .text	0000000000000010 _ZN2nn5swkbd14InlineKeyboard14SetFooterAlphaEf
0000000000221518 g    DF .text	0000000000000070 _ZN2nn3hid6detail28SetSleepButtonAutoPilotStateERKNS0_5debug25SleepButtonAutoPilotStateE
00000000003137b4 g    DF .text	0000000000000064 _ZN2nn3fgm7Request15WaitWithTimeoutENS_8TimeSpanE
00000000003c5a14  w   DF .text	0000000000000074 wcsxfrm_l
00000000003db954 g    DF .text	0000000000000054 __hcreate_r
000000000094c260  w   DO .data	0000000000000038 _ZTIN2nn2sf6detail38ObjectImplFactoryWithStatefulAllocatorINS0_4cmif6client16CmifProxyFactoryINS_2am7service17IWindowControllerENS4_15CmifDomainProxyINS0_4hipc6client38Hipc2ClientSessionManagedProxyKindBaseINSB_18Hipc2ProxyKindBaseILNSA_6detail11MessageTypeE4EEEEEEENS0_30MemoryResourceAllocationPolicyEE13ServiceObjectESJ_E6ObjectE
00000000001b4568 g    DF .text	000000000000006c _ZN2nn7friends29ShowReceivedFriendRequestListERKNS_7account3UidE
000000000023d368  w   DF .text	0000000000000008 _ZN2nn2sf6detail39ObjectImplFactoryWithStatelessAllocatorINS0_4cmif6client16CmifProxyFactoryINS_8irsensor21IIrSensorSystemServerENS0_4hipc6client18Hipc2ProxyKindBaseILNS8_6detail11MessageTypeE4EEENS0_25StatelessAllocationPolicyINS0_22ExpHeapStaticAllocatorILm16384ENS6_6detail20IrSensorSystemServerEEEEEE13ServiceObjectESJ_E6Object12AddReferenceEv
00000000001181c4 g    DF .text	0000000000000014 _ZN2nn5codec11OpusEncoderD2Ev
0000000000141b80 g    DF .text	0000000000000168 _ZN2nn3ngc15ProfanityFilter19CheckProfanityWordsEPjjPPKtm
00000000001472f8 g    DF .text	00000000000001b0 _ZN2nn3ngc6detail12BinaryWriter10WriteArrayEPKym
00000000001788b0 g    DF .text	00000000000000c8 _ZN2nn3ssl10Connection11GetHostNameEPcPjj
000000000008ecfc g    DF .text	00000000000000b0 _ZN2nn2os19ReceiveMessageQueueEPmPNS0_16MessageQueueTypeE
00000000007b2cc0  w   DO .rodata	000000000000001b _ZTSN2nn5fssrv2sf10IDirectoryE
000000000015f024 g    DF .text	0000000000000008 _ZNK2nn4pctl11PairingInfo8GetStateEv
00000000007e2a90  w   DO .rodata	000000000000010c _ZTSN2nn2sf4cmif6client6detail9CmifProxyINS_4pctl6detail3ipc30IParentalControlServiceFactoryENS2_15CmifDomainProxyINS0_4hipc6client38Hipc2ClientSessionManagedProxyKindBaseINSB_18Hipc2ProxyKindBaseILNSA_6detail11MessageTypeE4EEEEEEENS0_30MemoryResourceAllocationPolicyEvEE
000000000003bbd4 g    DF .text	0000000000000010 _ZN2nn4util15RelocationTable12SetSignatureEv
00000000009a9140 g    DO .bss	0000000000000030 _ZN2nn2ro6detail8g_RoLockE
000000000012a73c  w   DF .text	0000000000000020 _ZN2nn2sf4cmif6client6detail13CmifProxyImplINS_7friends6detail3ipc20INotificationServiceENS2_15CmifDomainProxyINS0_4hipc6client38Hipc2ClientSessionManagedProxyKindBaseINSB_18Hipc2ProxyKindBaseILNSA_6detail11MessageTypeE4EEEEEEENS0_30MemoryResourceAllocationPolicyES8_E15_nn_sf_sync_PopENS0_3OutINS7_21SizedNotificationInfoEvEE
00000000001a7bc4 g    DF .text	0000000000000004 _ZN2nn5audio6common11DumpCommandEPKNS0_18PerformanceCommandE
00000000003d141c g    DF .text	0000000000000088 __tandf
00000000001d6d1c g    DF .text	0000000000000014 _ZN2nn2vi6native18NativeWindowHolder15GetNativeWindowEv
0000000000286f24 g    DF .text	0000000000000024 NvRmGpuTaskSchedulingGroupSetTimeslice
00000000003c79e4 g    DF .text	00000000000000bc cbrtf
00000000001224f4 g    DF .text	0000000000000008 _ZNK2nn7friends13FriendRequest7IsValidEv
0000000000234f18  w   DF .text	0000000000000020 _ZN2nn2sf4cmif6client6detail13CmifProxyImplINS_3hid16IHidSystemServerENS0_4hipc6client18Hipc2ProxyKindBaseILNS7_6detail11MessageTypeE4EEENS0_25StatelessAllocationPolicyINS0_22ExpHeapStaticAllocatorILm16384ENS5_6detail15HidSystemServerEEEEES6_E46_nn_sf_sync_CancelAnalogStickManualCalibrationENS5_6system11UniquePadIdEl
0000000000824110 g    DO .rodata	0000000000000013 _ZTSNSt3__19strstreamE
00000000003c7aa0 g    DF .text	000000000000024c cbrtl
00000000002d02d4 g    DF .text	00000000000000cc _ZN7android7String811setPathNameEPKcm
000000000036bbe4 g    DF .text	0000000000000098 _ZNSt3__112strstreambuf7seekposENS_4fposI11__mbstate_tEEj
00000000002cd018 g    DF .text	0000000000000048 _ZNK7android6Region15getSharedBufferEPm
00000000003e6cac g    DF .text	0000000000000018 __nnmusl_LockRecursiveLock
00000000000c5aa8  w   DF .text	0000000000000094 _ZN2nn2sf4cmif6client6detail13CmifProxyImplINS_2am7service21IStackableAppletProxyENS2_15CmifDomainProxyINS0_4hipc6client38Hipc2ClientSessionManagedProxyKindBaseINSA_18Hipc2ProxyKindBaseILNS9_6detail11MessageTypeE4EEEEEEENS0_30MemoryResourceAllocationPolicyENS6_18ISystemAppletProxyEE35_nn_sf_sync_GetLibraryAppletCreatorENS0_3OutINS0_13SharedPointerINS6_21ILibraryAppletCreatorEEEvEE
0000000000156264 g    DF .text	0000000000000088 _ZN2nn4nifm21GetCurrentAccessPointEPNS0_15AccessPointDataE
0000000000956cc0  w   DO .data	0000000000000018 _ZTIN2nn2sf4cmif6client16CmifProxyFactoryINS_6aocsrv6detail20IAddOnContentManagerENS0_4hipc6client18Hipc2ProxyKindBaseILNS7_6detail11MessageTypeE4EEENS0_30MemoryResourceAllocationPolicyEE13ServiceObjectE
0000000000093794  w   DF .text	0000000000000004 _ZN2nn2os6detail33MultiWaitHolderOfNativeWaitObject20RemoveFromObjectListEv
000000000019bb38 g    DF .text	0000000000000064 _ZNK2nn5audio6server17AudioRenderSystem26GetDspProcessingTimeBudgetEv
00000000001a27b8 g    DF .text	0000000000000060 _ZN2nn5audio6server14EffectInfoBase7CleanUpEv
0000000000399db8 g    DF .text	0000000000000064 _unw_remove_dynamic_fde
000000000007459c g    DF .text	00000000000000c4 nnmem_nlib_skipws
00000000001348c0 g    DF .text	00000000000002a8 _ZN2nn4htcs6detail25virtual_socket_collection11FetchSocketEiRi
0000000000135f54 g    DF .text	0000000000000008 _ZNK2nn2lm6detail15LogPacketHeader11GetSeverityEv
0000000000189350 g    DF .text	00000000000000b8 _ZN2nn5audio14MemoryPoolInfo5StoreEPKNS1_9OutStatusE
00000000007c3fb0  w   DO .rodata	0000000000000109 _ZTSN2nn2sf4cmif6client16CmifProxyFactoryINS_7account6detail13IAsyncContextENS2_15CmifDomainProxyINS0_4hipc6client38Hipc2ClientSessionManagedProxyKindBaseINS9_18Hipc2ProxyKindBaseILNS8_6detail11MessageTypeE4EEEEEEENS0_30MemoryResourceAllocationPolicyEE13ServiceObjectE
00000000000c9060  w   DF .text	0000000000000008 _ZN2nn2sf6detail38ObjectImplFactoryWithStatefulAllocatorINS0_4cmif6client16CmifProxyFactoryINS_2am7service15IAppletAccessorENS4_15CmifDomainProxyINS0_4hipc6client38Hipc2ClientSessionManagedProxyKindBaseINSB_18Hipc2ProxyKindBaseILNSA_6detail11MessageTypeE4EEEEEEENS0_30MemoryResourceAllocationPolicyEE13ServiceObjectESJ_E6Object12AddReferenceEv
0000000000179d70 g    DF .text	0000000000000018 nnsslInitialize
00000000000ae324 g    DF .text	000000000000003c _ZN2nn6socket8resolver3tls6Client22GetCurrentHErrorStringEv
00000000007b8df0  w   DO .rodata	000000000000001b _ZTSN2nn2sf4cmif11ICmifDomainE
0000000000258e98 g    DF .text	0000000000000008 nvdcFreeDisplays
00000000002540d8 g    DF .text	0000000000000008 _ZNK2nn3web26OfflineHtmlPageReturnValue14GetLastUrlSizeEv
00000000001bb118 g    DF .text	0000000000000004 _ZN2nn3mii6detail11GetDeviceIdEPNS1_8DeviceIdE
0000000000979518  w   DO .data	0000000000000050 _ZTVNSt3__113basic_istreamIcNS_11char_traitsIcEEEE
00000000003dfe00 g    DF .text	000000000000012c __stdio_exit
00000000003e6d7c g    DF .text	0000000000000034 __nnmusl_ClockGetRes
0000000000061da0 g    DF .text	0000000000000154 _ZN2nn2fs30GetGameCardDeviceIdForProdCardEPvmS1_m
0000000000127f0c  w   DF .text	0000000000000164 _ZN2nn2sf4cmif6client34CmifDomainProxyClientCoreProcessorINS0_4hipc6client38Hipc2ClientSessionManagedProxyKindBaseINS5_18Hipc2ProxyKindBaseILNS4_6detail11MessageTypeE4EEEEENS1_6detail14CoreMethodInfoINSt3__15tupleIJNSC_18OutRawArgumentInfoILm4ELm4ELl0EEENSC_17InRawArgumentInfoILm16ELm8ELl0EEEEEELm16ELm4ELb0EEESK_E7ProcessEPNS2_23CmifDomainClientMessageISB_E15ProxyBaseObjectENS2_24OutRawClientArgumentTypeILm4ELm4EEENS2_23InRawClientArgumentTypeILm16ELm8EvEEj
0000000000822d93  w   DO .rodata	0000000000000001 _ZNSt3__110moneypunctIwLb1EE4intlE
000000000004b894 g    DF .text	0000000000000108 _ZN2nn2fs15RomFsFileSystemD2Ev
000000000026f7b4 g    DF .text	00000000000000b0 NvRmMemGetFd
0000000000327018 g    DF .text	0000000000000054 _ZNSt3__16futureIvE3getEv
0000000000198d34 g    DF .text	0000000000000084 _ZN2nn5audio12ListAudioInsEPNS0_11AudioInInfoEi
000000000097b970  w   DO .data	0000000000000028 _ZTINSt3__19__num_getIwEE
0000000000396930 g    DF .text	000000000000005c _ZNSt12out_of_rangeD0Ev
000000000094f860  w   DO .data	0000000000000018 _ZTIN2nn4bcat6detail3ipc15IServiceCreatorE
00000000000f1818 g    DF .text	0000000000000708 silk_NLSF2A
00000000001687c4 g    DF .text	0000000000000044 _ZN2nn8settings6system28SetNetworkSystemClockContextERKNS_4time18SystemClockContextE
0000000000273504 g    DF .text	00000000000000c4 NvRmStreamFlushSync
0000000000822db4 g    DO .rodata	0000000000000004 _ZNSt3__16locale5ctypeE
000000000024cc2c g    DF .text	0000000000000044 _ZN2nn5album12LibraryState10InitializeEv
0000000000126138  w   DF .text	0000000000000028 _ZN2nn2sf4cmif6client6detail13CmifProxyImplINS_7friends6detail3ipc14IFriendServiceENS2_15CmifDomainProxyINS0_4hipc6client38Hipc2ClientSessionManagedProxyKindBaseINSB_18Hipc2ProxyKindBaseILNSA_6detail11MessageTypeE4EEEEEEENS0_30MemoryResourceAllocationPolicyES8_E45_nn_sf_sync_GetFacedFriendRequestProfileImageENS0_3OutIivEERKNS_7account3UidENSN_23NetworkServiceAccountIdERKNS0_9OutBufferE
00000000000bfdfc g    DF .text	0000000000000098 _ZN2nn7account28NetworkServiceAccountManager36EnsureNetworkServiceAccountAvailableENS0_32NintendoAccountStartupDialogTypeE
00000000007d7400  w   DO .rodata	000000000000014f _ZTSN2nn2sf6detail38ObjectImplFactoryWithStatefulAllocatorINS0_4cmif6client16CmifProxyFactoryINS_7friends6detail3ipc15IServiceCreatorENS4_15CmifDomainProxyINS0_4hipc6client38Hipc2ClientSessionManagedProxyKindBaseINSC_18Hipc2ProxyKindBaseILNSB_6detail11MessageTypeE4EEEEEEENS0_30MemoryResourceAllocationPolicyEE13ServiceObjectESK_E6ObjectE
0000000000150848 g    DF .text	00000000000000bc _ZN2nn4nifm6detail13RequestClient6SubmitEv
000000000026c434 g    DF .text	0000000000000078 NvRmSyncCreateFromSyncpoints
00000000000a19b0 g    DF .text	0000000000000004 _ZN2nn6socket4OpenEPKci
000000000094da40  w   DO .data	0000000000000018 _ZTIN2nn2sf4cmif6client6detail13CmifProxyImplINS_2am7service19ILibraryAppletProxyENS2_15CmifDomainProxyINS0_4hipc6client38Hipc2ClientSessionManagedProxyKindBaseINSA_18Hipc2ProxyKindBaseILNS9_6detail11MessageTypeE4EEEEEEENS0_30MemoryResourceAllocationPolicyES7_EE
00000000001fc6ac g    DF .text	00000000000000bc get_glyph_advance
00000000001b8ee0 g    DF .text	0000000000000038 _ZNK2nn3mii6detail11CoreDataRaw7GetEyeYEv
0000000000000d8c  w   DF .text	0000000000000344 _ZN2nn6crypto6detail11CtrModeImplINS0_12AesEncryptorILm16EEEE6UpdateEPvmPKvm
0000000000196f7c  w   DF .text	0000000000000100 _ZN2nn2sf4hipc6client24Hipc2ClientCoreProcessorILNS1_6detail11MessageTypeE4ENS0_4cmif6detail14CoreMethodInfoINSt3__15tupleIJNS7_17InRawArgumentInfoILm8ELm8ELl0EEENS7_18OutRawArgumentInfoILm8ELm8ELl0EEEEEELm8ELm8ELb0EEESF_E7ProcessEPNS2_26Hipc2ClientProxyBaseObjectENS6_6client23InRawClientArgumentTypeILm8ELm8EvEENSK_24OutRawClientArgumentTypeILm8ELm8EEEj
00000000002540c8 g    DF .text	0000000000000008 _ZNK2nn3web26OfflineHtmlPageReturnValue20GetOfflineExitReasonEv
0000000000805924 g    DO .rodata	0000000000000004 _ZN2nn3hid14KeyboardLayout9NorwegianE
0000000000169158 g    DF .text	0000000000000044 _ZN2nn8settings31SetApplicationOwnKeyboardLayoutENS0_14KeyboardLayoutE
0000000000285ed4 g    DF .text	0000000000000008 nvgr_get_usage
0000000000228fa0 g    DF .text	0000000000000044 _ZN2nn3hid6system18EnableHandheldHidsEv
000000000016b110 g    DF .text	0000000000000044 _ZN2nn8settings5fwdbg19SetHostFsMountPointERKNS0_6system16HostFsMountPointE
0000000000002080 g    DF .text	0000000000000050 _ZN2nn6crypto6detail10bigint_cmpEPKjS3_i
00000000003637d0  w   DF .text	0000000000000148 _ZNSt3__112basic_stringIcNS_11char_traitsIcEENS_9allocatorIcEEE6assignEmc
0000000000326604 g    DF .text	0000000000000014 _ZNSt3__117__assoc_sub_state16__on_zero_sharedEv
00000000000b7744  w   DF .text	0000000000000008 _ZN2nn2sf6detail39ObjectImplFactoryWithStatelessAllocatorINS0_4cmif6client16CmifProxyFactoryINS_7account31IAccountServiceForSystemServiceENS4_15CmifDomainProxyINS0_4hipc6client38Hipc2ClientSessionManagedProxyKindBaseINSA_18Hipc2ProxyKindBaseILNS9_6detail11MessageTypeE4EEEEEEENS0_25StatelessAllocationPolicyINS0_22ExpHeapStaticAllocatorILm2048ENS6_6detail12ObjectHolder24ObjectHolderAllocatorTagEEEEEE13ServiceObjectESO_E6Object12AddReferenceEv
00000000001a306c g    DF .text	0000000000000008 _ZNK2nn5audio6server14MemoryPoolInfo11GetLocationEv
000000000023479c  w   DF .text	0000000000000020 _ZN2nn2sf4cmif6client6detail13CmifProxyImplINS_3hid16IHidSystemServerENS0_4hipc6client18Hipc2ProxyKindBaseILNS7_6detail11MessageTypeE4EEENS0_25StatelessAllocationPolicyINS0_22ExpHeapStaticAllocatorILm16384ENS5_6detail15HidSystemServerEEEEES6_E31_nn_sf_sync_ActivateSleepButtonENS_6applet20AppletResourceUserIdE
00000000001ca108 g    DF .text	0000000000000010 _ZN2nn5swkbd14InlineKeyboard27SetFinishedKeyboardCallbackEPFvvE
000000000008ebc8 g    DF .text	0000000000000134 _ZN2nn2os20TimedJamMessageQueueEPNS0_16MessageQueueTypeEmNS_8TimeSpanE
00000000007d8650  w   DO .rodata	000000000000010c _ZTSN2nn2sf4cmif6client6detail13CmifProxyImplINS_7friends6detail3ipc20INotificationServiceENS2_15CmifDomainProxyINS0_4hipc6client38Hipc2ClientSessionManagedProxyKindBaseINSB_18Hipc2ProxyKindBaseILNSA_6detail11MessageTypeE4EEEEEEENS0_30MemoryResourceAllocationPolicyES8_EE
00000000002270d0 g    DF .text	0000000000000060 _ZN2nn3hid6detail26EnableUsbFullKeyControllerEb
00000000001190c8 g    DF .text	000000000000003c _ZN2nn5codec6detail20SetForceModeInternalEP11OpusEncoderNS0_14OpusCodingModeE
000000000006f5bc g    DF .text	0000000000000030 _ZN2nn4lmem16DestroyFrameHeapEPNS0_6detail8HeapHeadE
00000000000cdbb4  w   DF .text	0000000000000094 _ZN2nn2sf4cmif6client6detail13CmifProxyImplINS_2am7service18IAppletProxyCommonENS2_15CmifDomainProxyINS0_4hipc6client38Hipc2ClientSessionManagedProxyKindBaseINSA_18Hipc2ProxyKindBaseILNS9_6detail11MessageTypeE4EEEEEEENS0_30MemoryResourceAllocationPolicyENS6_19IOverlayAppletProxyEE29_nn_sf_sync_GetDebugFunctionsENS0_3OutINS0_13SharedPointerINS6_15IDebugFunctionsEEEvEE
0000000000156e48 g    DF .text	000000000000000c _ZN2nn4nifm17NetworkConnectionC2Ev
0000000000367018  w   DF .text	00000000000000a4 _ZNKSt3__112basic_stringIwNS_11char_traitsIwEENS_9allocatorIwEEE17find_first_not_ofEPKwmm
000000000003dd90 g    DF .text	0000000000000014 _ZN2nn4util6TinyMt12RestoreStateEPKNS1_5StateE
00000000009477d0  w   DO .data	0000000000000018 _ZTIN2nn2sf4cmif6client16CmifProxyFactoryINS_7account4baas18IGuestLoginRequestENS2_15CmifDomainProxyINS0_4hipc6client38Hipc2ClientSessionManagedProxyKindBaseINS9_18Hipc2ProxyKindBaseILNS8_6detail11MessageTypeE4EEEEEEENS0_25StatelessAllocationPolicyINS0_22ExpHeapStaticAllocatorILm2048ENS4_6detail12ObjectHolder24ObjectHolderAllocatorTagEEEEEE13ServiceObjectE
0000000000024118 g    DF .text	00000000000003f0 _ZN2nn5image6detail4jpeg15jpeg_idct_islowEPNS2_22jpeg_decompress_structEPNS2_19jpeg_component_infoEPsPPhi
00000000000912a8 g    DF .text	0000000000000010 _ZN2nn2os36GetVirtualAddressMemoryResourceUsageEv
00000000000a5758 g    DF .text	0000000000000004 _ZN2nn6socket6detail8InetAtonEPKcP7in_addr
00000000000c1d24 g    DF .text	0000000000000030 _ZN2nn7account48NintendoAccountApplicationAuthorizationProcedureC1EOS1_
00000000002ce954 g    DF .text	0000000000000044 _ZNK7android8String168findLastEDs
0000000000360d50 g    DF .text	0000000000000004 _ZNSt3__114__shared_countD0Ev
00000000000c8238  w   DF .text	00000000000001d8 _ZN2nn2sf4cmif6client34CmifDomainProxyClientCoreProcessorINS0_4hipc6client38Hipc2ClientSessionManagedProxyKindBaseINS5_18Hipc2ProxyKindBaseILNS4_6detail11MessageTypeE4EEEEENS1_6detail14CoreMethodInfoINSt3__15tupleIJNSC_18OutRawArgumentInfoILm1ELm1ELl0EEENSC_18BufferArgumentInfoILi0ELi6ELm0EEEEEELm0ELm1ELb0EEESK_E7ProcessEPNS2_23CmifDomainClientMessageISB_E15ProxyBaseObjectENS2_24OutRawClientArgumentTypeILm1ELm1EEENS2_24BufferClientArgumentTypeEj
000000000031647c g    DF .text	000000000000003c _ZN2nn3i2c18ExecuteCommandListEPvmRKNS0_10I2cSessionEPKvm
00000000003e30fc g    DF .text	0000000000000008 wcscasecmp
000000000004d0fc g    DF .text	0000000000000008 _ZN2nn2fs6detail12FileAccessor13GetWriteStateEv
0000000000099fa0 g    DF .text	00000000000000b4 _ZN2nn2sf33ScopedCurrentMemoryResourceSetterC2EPNS_14MemoryResourceE
00000000001e4e08 g    DF .text	000000000000014c getFDindex
0000000000161ad8  w   DF .text	00000000000001e8 _ZN2nn2sf4cmif6client34CmifDomainProxyClientCoreProcessorINS0_4hipc6client38Hipc2ClientSessionManagedProxyKindBaseINS5_18Hipc2ProxyKindBaseILNS4_6detail11MessageTypeE4EEEEENS1_6detail14CoreMethodInfoINSt3__15tupleIJNSC_18OutRawArgumentInfoILm4ELm4ELl0EEENSC_18BufferArgumentInfoILi0ELi10ELm0EEENSC_17InRawArgumentInfoILm16ELm8ELl0EEEEEELm16ELm4ELb0EEESM_E7ProcessEPNS2_23CmifDomainClientMessageISB_E15ProxyBaseObjectENS2_24OutRawClientArgumentTypeILm4ELm4EEENS2_24BufferClientArgumentTypeENS2_23InRawClientArgumentTypeILm16ELm8EvEEj
0000000000152938  w   DF .text	0000000000000024 _ZN2nn2sf4cmif6client6detail13CmifProxyImplINS_4nifm6detail8IRequestENS2_15CmifDomainProxyINS0_4hipc6client38Hipc2ClientSessionManagedProxyKindBaseINSA_18Hipc2ProxyKindBaseILNS9_6detail11MessageTypeE4EEEEEEENS0_25StatelessAllocationPolicyINS0_22ExpHeapStaticAllocatorILm16384ENS6_21ServiceProviderClient30CreateNifmUserServiceObjectTagEEEEES7_E43_nn_sf_sync_SetConnectionConfirmationOptionEa
0000000000184cec g    DF .text	000000000000003c _ZN2nn5audio27IsValidMixBufferSampleCountEii
00000000000bf3d0 g    DF .text	0000000000000010 _ZN2nn7account38ExternalNetworkServiceAccountRegistrarC1EOS1_
00000000002cce74 g    DF .text	000000000000000c _ZNK7android6Region16getFlattenedSizeEv
00000000003cf3e8 g    DF .text	00000000000000dc tanhf
00000000001b545c g    DF .text	0000000000000064 _ZN2nn2la27AppletToNifmArgumentsReader25ReadNetConnectReturnParamENS_6applet13StorageHandleE
000000000094cee0  w   DO .data	0000000000000018 _ZTIN2nn2sf4cmif6client6detail9CmifProxyINS_2am7service22ILibraryAppletAccessorENS2_15CmifDomainProxyINS0_4hipc6client38Hipc2ClientSessionManagedProxyKindBaseINSA_18Hipc2ProxyKindBaseILNS9_6detail11MessageTypeE4EEEEEEENS0_30MemoryResourceAllocationPolicyEvEE
00000000001582f4 g    DF .text	0000000000000004 _ZN2nn4nifm6detail12HttpPostDataD2Ev
00000000001c3488 g    DF .text	0000000000000010 _ZN2nn3mii6detail16Ver3StoreDataRaw13SetBeardColorEi
00000000002203e0  w   DF .text	0000000000000004 _ZN2nn3hid6detail8RingLifoINS0_16NpadFullKeyStateELi16ENS1_13AtomicStorageIS3_EEED2Ev
00000000000682a4 g    DF .text	0000000000000210 _ZN2nn2fs20CreateSystemSaveDataENS0_15SaveDataSpaceIdEmNS0_6UserIdEmllj
00000000001b6264 g    DF .text	0000000000000008 _ZNK2nn3mii21ParamCharInfoAccessor16GetEyebrowRotateEv
00000000003cf4c4 g    DF .text	000000000000001c tanhl
000000000018c088 g    DF .text	000000000000000c _ZN2nn5audio16GetVoicePriorityEPKNS0_9VoiceTypeE
000000000036b510 g    DF .text	0000000000000094 _ZNSt3__112strstreambufC1EPalS1_
00000000001cd918  w   DF .text	0000000000000020 _ZN2nn2sf4cmif6client6detail13CmifProxyImplINS_5visrv2sf26IApplicationDisplayServiceENS0_4hipc6client18Hipc2ProxyKindBaseILNS8_6detail11MessageTypeE4EEENS0_30MemoryResourceAllocationPolicyES7_E22_nn_sf_sync_CloseLayerEm
00000000000c059c g    DF .text	0000000000000034 _ZN2nn7account34NetworkServiceAccountAdministratorC1ERKNS0_3UidEPNS0_4baas14IAdministratorE
000000000036ccdc g    DF .text	0000000000000024 _ZNSt3__112system_errorD0Ev
0000000000069604 g    DF .text	0000000000000034 _ZN2nn2fs14VerifySaveDataEPbmPvm
000000000011cab4 g    DF .text	00000000000001c4 _ZN2nn7friends6detail16PresenceAccessor15GetKeyValueListEPiPNS2_8KeyValueEiPKcm
00000000003e9314 g    DF .text	0000000000000058 __musl_bytewise_strncmp
00000000001b1490 g    DF .text	0000000000000048 _ZN2nn2ec24ShowShopSubscriptionListENS_13ApplicationIdERKNS_7account10UserHandleE
00000000001248cc g    DF .text	00000000000000d8 _ZN2nn7friends6detail20AsyncContextInternal9CallAsyncEPKcPFNS_6ResultEPNS1_3ipc14IFriendServiceEPvES9_m
0000000000346d0c g    DF .text	00000000000000f8 _ZNKSt3__110__time_put8__do_putEPwRS1_PK2tmcc
000000000094bef8  w   DO .data	0000000000000150 _ZTVN2nn2sf6detail38ObjectImplFactoryWithStatefulAllocatorINS0_4cmif6client16CmifProxyFactoryINS_2am7service15ISelfControllerENS4_15CmifDomainProxyINS0_4hipc6client38Hipc2ClientSessionManagedProxyKindBaseINSB_18Hipc2ProxyKindBaseILNSA_6detail11MessageTypeE4EEEEEEENS0_30MemoryResourceAllocationPolicyEE13ServiceObjectESJ_E6ObjectE
0000000000186268 g    DF .text	000000000000007c _ZN2nn5audio25SetBufferMixerInputOutputEPNS0_15BufferMixerTypeEPKaS4_i
00000000001d4030 g    DF .text	000000000000009c _ZN2nn2vi29InitializeForIndirectProducerEv
00000000001458c8 g    DF .text	00000000000002fc _ZN2nn3ngc6detail11AhoCorasick6ImportEPNS1_12BinaryReaderE
000000000018da24 g    DF .text	0000000000000008 _ZN2nn5audio20DelayLineGetMaxDelayEPNS0_11FXDelayLineE
000000000026cdb4 g    DF .text	0000000000000008 NvRmSyncGetSemaphores
0000000000360d18 g    DF .text	0000000000000004 _ZNSt3__112bad_weak_ptrD1Ev
000000000002ecd8 g    DF .text	0000000000000018 _ZN2nn5image11JpegEncoder16SetSamplingRatioENS0_17JpegSamplingRatioE
00000000001c9b24 g    DF .text	0000000000000064 _ZN2nn5swkbd14SetInitialTextEPNS0_15ShowKeyboardArgEPKDs
00000000002a19a8 g    DF .text	0000000000000010 _ZN7android12ProcessState16getContextObjectERKNS_2spINS_7IBinderEEE
00000000002203cc  w   DF .text	0000000000000004 _ZN2nn3hid6detail8RingLifoINS0_13KeyboardStateELi16ENS1_13AtomicStorageIS3_EEED2Ev
000000000029e094 g    DF .text	0000000000000018 _ZN7android6Parcel15setDataCapacityEm
0000000000049be0  w   DF .text	0000000000000088 _ZN2nn2fs10SubStorage4ReadElPvm
00000000001d75a0 g    DF .text	0000000000000010 _ZN2nn2vi6buffer11BufferQueue20GetScanBufferAddressEPPvS4_
000000000005ad7c  w   DF .text	00000000000001e8 _ZN2nn2sf4cmif6client34CmifDomainProxyClientCoreProcessorINS0_4hipc6client38Hipc2ClientSessionManagedProxyKindBaseINS5_18Hipc2ProxyKindBaseILNS4_6detail11MessageTypeE4EEEEENS1_6detail14CoreMethodInfoINSt3__15tupleIJNSC_21OutObjectArgumentInfoILi0ELi0EEENSC_17InRawArgumentInfoILm1ELm1ELl0EEENSI_ILm8ELm8ELl8EEEEEELm16ELm0ELb0EEESL_E21ProcessWithOutObjectsEPNS2_23CmifDomainClientMessageISB_E15ProxyBaseObjectENS2_27OutObjectClientArgumentTypeENS2_23InRawClientArgumentTypeILm1ELm1EvEENST_ILm8ELm8EvEEjPNS0_13SharedPointerINS0_14IServiceObjectEEE
0000000000250024 g    DF .text	0000000000000044 _ZN2nn3ldn20AddAcceptFilterEntryERKNS0_8NodeInfoE
00000000009489f0  w   DO .data	0000000000000038 _ZTIN2nn2sf6detail39ObjectImplFactoryWithStatelessAllocatorINS0_4cmif6client16CmifProxyFactoryINS_7account3nas29IOAuthProcedureForExternalNsaENS4_15CmifDomainProxyINS0_4hipc6client38Hipc2ClientSessionManagedProxyKindBaseINSB_18Hipc2ProxyKindBaseILNSA_6detail11MessageTypeE4EEEEEEENS0_25StatelessAllocationPolicyINS0_22ExpHeapStaticAllocatorILm2048ENS6_6detail12ObjectHolder24ObjectHolderAllocatorTagEEEEEE13ServiceObjectESP_E6ObjectE
00000000003d43ac g    DF .text	0000000000001bb8 regcomp
000000000094ca60  w   DO .data	0000000000000038 _ZTIN2nn2sf6detail38ObjectImplFactoryWithStatefulAllocatorINS0_4cmif6client16CmifProxyFactoryINS_2am7service20IApplicationAccessorENS4_15CmifDomainProxyINS0_4hipc6client38Hipc2ClientSessionManagedProxyKindBaseINSB_18Hipc2ProxyKindBaseILNSA_6detail11MessageTypeE4EEEEEEENS0_30MemoryResourceAllocationPolicyEE13ServiceObjectESJ_E6ObjectE
0000000000171280  w   DF .text	0000000000000020 _ZN2nn2sf4cmif6client6detail13CmifProxyImplINS_8settings22IFactorySettingsServerENS0_4hipc6client18Hipc2ProxyKindBaseILNS7_6detail11MessageTypeE4EEENS0_25StatelessAllocationPolicyINS0_22ExpHeapStaticAllocatorILm16384ES6_EEEES6_E27_nn_sf_sync_GetEciDeviceKeyENS0_3OutINS5_7factory16EccB233DeviceKeyEvEE
000000000020ee8c g    DF .text	0000000000000200 get_scale_inputs
00000000000cb500  w   DF .text	0000000000000010 _ZN2nn2sf4cmif6client6detail13CmifProxyImplINS_2am7service18IHomeMenuFunctionsENS2_15CmifDomainProxyINS0_4hipc6client38Hipc2ClientSessionManagedProxyKindBaseINSA_18Hipc2ProxyKindBaseILNS9_6detail11MessageTypeE4EEEEEEENS0_30MemoryResourceAllocationPolicyES7_E17GetCmifBaseObjectEv
0000000000179f3c g    DF .text	0000000000000024 nnsslConnectionSetVerifyOption
00000000002cede8 g    DF .text	0000000000000018 _ZN7android7String8C2ERKS0_
000000000006f184 g    DF .text	0000000000000054 _ZN2nn4lmem25GetExpHeapAllocatableSizeEPNS0_6detail8HeapHeadEi
000000000029695c g    DF .text	0000000000000040 _ZTv0_n48_N7android8BpBinder20onIncStrongAttemptedEjPKv
00000000000cc4c0  w   DF .text	0000000000000020 _ZN2nn2sf4cmif6client6detail13CmifProxyImplINS_2am7service26ILibraryAppletSelfAccessorENS2_15CmifDomainProxyINS0_4hipc6client38Hipc2ClientSessionManagedProxyKindBaseINSA_18Hipc2ProxyKindBaseILNS9_6detail11MessageTypeE4EEEEEEENS0_30MemoryResourceAllocationPolicyES7_E32_nn_sf_sync_ExitProcessAndReturnEv
0000000000077f74 g    DF .text	00000000000001bc nnmem_nlib_fd_pwritev
0000000000047fe4 g    DF .text	0000000000000024 _ZN2nn2fs24HierarchicalRomFileTable17FindFileRecursiveEPNS1_8EntryKeyEPNS1_17DirectoryRomEntryEPKc
000000000008f838 g    DF .text	000000000000008c _ZN2nn2os19TryAcquireWriteLockEPNS0_20ReaderWriterLockTypeE
000000000009cdbc g    DF .text	000000000000001c _ZN2nn2sf4hipc6server21HipcServerSessionBase5ReplyEPvm
0000000000156eb0 g    DF .text	0000000000000014 _ZN2nn4nifm17NetworkConnection14GetSystemEventEv
000000000002f644 g    DF .text	0000000000000014 _ZN2nn5image11ExifBuilder11SetDateTimeEPKcm
000000000006aff4 g    DF .text	000000000000008c _ZN2nn2fs16SaveDataExporterC2EONS_2sf13SharedPointerINS_5fssrv2sf17ISaveDataExporterEEE
000000000031d5c8  w   DF .text	000000000000030c _ZNSt3__127__insertion_sort_incompleteIRNS_6__lessIssEEPsEEbT0_S5_T_
0000000000118d58 g    DF .text	0000000000000048 _ZN2nn5codec6detail18OpusPacketInternal19GetHeaderFromPacketEPNS2_6HeaderEPKh
000000000016896c g    DF .text	0000000000000044 _ZN2nn8settings24GetDebugPadGenericPadMapEPNS0_21DebugPadGenericPadMapE
0000000000959e60  w   DO .data	0000000000000048 _ZTIN2nn2sf4cmif6client6detail13CmifProxyImplINS_5visrv2sf26IApplicationDisplayServiceENS0_4hipc6client18Hipc2ProxyKindBaseILNS8_6detail11MessageTypeE4EEENS0_30MemoryResourceAllocationPolicyES7_EE
00000000001fc32c g    DF .text	0000000000000044 update_sp_ep
0000000000a80d68 g    DO .bss	0000000000000010 _ZNSt3__15ctypeIcE2idE
00000000001b67d0 g    DF .text	000000000000000c _ZN2nn3mii6detail15BufferAllocatorC2EPvm
00000000000aac50  w   DF .text	00000000000001f0 _ZN2nn2sf4cmif6client34CmifDomainProxyClientCoreProcessorINS0_4hipc6client38Hipc2ClientSessionManagedProxyKindBaseINS5_18Hipc2ProxyKindBaseILNS4_6detail11MessageTypeE4EEEEENS1_6detail14CoreMethodInfoINSt3__15tupleIJNSC_18OutRawArgumentInfoILm4ELm4ELl0EEENSG_ILm4ELm4ELl4EEENSC_17InRawArgumentInfoILm4ELm4ELl0EEENSC_18BufferArgumentInfoILi0ELi33ELm0EEEEEELm4ELm8ELb0EEESN_E7ProcessEPNS2_23CmifDomainClientMessageISB_E15ProxyBaseObjectENS2_24OutRawClientArgumentTypeILm4ELm4EEESV_NS2_23InRawClientArgumentTypeILm4ELm4EvEENS2_24BufferClientArgumentTypeEj
00000000000bf290 g    DF .text	0000000000000014 _ZN2nn7account33ExternalNetworkServiceAccountInfo4SwapERS1_
0000000000176ba0  w   DF .text	0000000000000158 _ZN2nn2sf4hipc6client24Hipc2ClientCoreProcessorILNS1_6detail11MessageTypeE4ENS0_4cmif6detail14CoreMethodInfoINSt3__15tupleIJNS7_18BufferArgumentInfoILi0ELi22ELm128EEEEEELm0ELm0ELb0EEESD_E7ProcessEPNS2_26Hipc2ClientProxyBaseObjectENS6_6client24BufferClientArgumentTypeEj
000000000004d128 g    DF .text	0000000000000128 _ZN2nn2fs6detail18FileSystemAccessorC2EPKcONSt3__110unique_ptrINS0_3fsa11IFileSystemENS5_14default_deleteIS8_EEEEONS6_INS7_25ICommonMountNameGeneratorENS9_ISD_EEEE
0000000000264b30 g    DF .text	0000000000000008 NvOsSharedMemAlloc
000000000004cd94 g    DF .text	00000000000000b8 _ZN2nn2fs6detail12FileAccessorD2Ev
0000000000a290e8 g    DO .bss	0000000000000008 _ZN2nn3hid13VibrationNode30DefaultVibrationSampleIntervalE
000000000026fe00 g    DF .text	00000000000000b0 NvRmMemGetId
0000000000126240  w   DF .text	0000000000000028 _ZN2nn2sf4cmif6client6detail13CmifProxyImplINS_7friends6detail3ipc14IFriendServiceENS2_15CmifDomainProxyINS0_4hipc6client38Hipc2ClientSessionManagedProxyKindBaseINSB_18Hipc2ProxyKindBaseILNSA_6detail11MessageTypeE4EEEEEEENS0_30MemoryResourceAllocationPolicyES8_E40_nn_sf_sync_BlockUserWithApplicationInfoERKNS_7account3UidENSL_23NetworkServiceAccountIdEiRKNS5_15ApplicationInfoERKNS5_15InAppScreenNameE
000000000032553c g    DF .text	000000000000015c _ZNSt3__111__libcpp_db9__erase_cEPv
000000000005c3d4  w   DF .text	0000000000000158 _ZN2nn2sf4cmif6client34CmifDomainProxyClientCoreProcessorINS0_4hipc6client38Hipc2ClientSessionManagedProxyKindBaseINS5_18Hipc2ProxyKindBaseILNS4_6detail11MessageTypeE4EEEEENS1_6detail14CoreMethodInfoINSt3__15tupleIJNSC_18OutRawArgumentInfoILm8ELm8ELl0EEENSC_17InRawArgumentInfoILm4ELm4ELl0EEEEEELm4ELm8ELb0EEESK_E7ProcessEPNS2_23CmifDomainClientMessageISB_E15ProxyBaseObjectENS2_24OutRawClientArgumentTypeILm8ELm8EEENS2_23InRawClientArgumentTypeILm4ELm4EvEEj
00000000000c8090  w   DF .text	0000000000000020 _ZN2nn2sf4cmif6client6detail13CmifProxyImplINS_2am7service18IDisplayControllerENS2_15CmifDomainProxyINS0_4hipc6client38Hipc2ClientSessionManagedProxyKindBaseINSA_18Hipc2ProxyKindBaseILNS9_6detail11MessageTypeE4EEEEEEENS0_30MemoryResourceAllocationPolicyES7_E44_nn_sf_sync_ReleaseCallerAppletCaptureBufferEv
000000000005d320  w   DF .text	0000000000000150 _ZN2nn2sf4cmif6client34CmifDomainProxyClientCoreProcessorINS0_4hipc6client38Hipc2ClientSessionManagedProxyKindBaseINS5_18Hipc2ProxyKindBaseILNS4_6detail11MessageTypeE4EEEEENS1_6detail14CoreMethodInfoINSt3__15tupleIJNSC_18OutRawArgumentInfoILm16ELm2ELl0EEEEEELm0ELm16ELb0EEESI_E7ProcessEPNS2_23CmifDomainClientMessageISB_E15ProxyBaseObjectENS2_24OutRawClientArgumentTypeILm16ELm2EEEj
000000000022845c g    DF .text	0000000000000060 _ZN2nn3hid6system33StartAnalogStickManualCalibrationENS1_11UniquePadIdENS1_19AnalogStickPositionE
0000000000259ecc g    DF .text	0000000000000048 nvdcGetMode
0000000000364b08  w   DF .text	00000000000000bc _ZNKSt3__112basic_stringIcNS_11char_traitsIcEENS_9allocatorIcEEE5rfindEPKcmm
00000000003c2664  w   DF .text	0000000000000010 isprint_l
000000000021402c g    DF .text	0000000000000010 nnfontllFsTellFile
000000000097bf18  w   DO .data	0000000000000010 _ZTINSt3__111__money_getIwEE
00000000000d7858 g    DF .text	00000000000001a0 _ZN2nn4bcat6detail3ipc10InitializeEv
00000000003b880c g    DF .text	00000000000000b4 memchr
000000000023d414  w   DF .text	0000000000000024 _ZN2nn2sf4cmif6client6detail13CmifProxyImplINS_8irsensor21IIrSensorSystemServerENS0_4hipc6client18Hipc2ProxyKindBaseILNS7_6detail11MessageTypeE4EEENS0_25StatelessAllocationPolicyINS0_22ExpHeapStaticAllocatorILm16384ENS5_6detail20IrSensorSystemServerEEEEES6_E34_nn_sf_sync_EnableAppletToGetInputENS_6applet20AppletResourceUserIdEb
0000000000361b88 g    DF .text	0000000000000024 _ZNSt19bad_optional_accessD0Ev
00000000000cb66c  w   DF .text	0000000000000024 _ZN2nn2sf4cmif6client6detail13CmifProxyImplINS_2am7service22IGlobalStateControllerENS2_15CmifDomainProxyINS0_4hipc6client38Hipc2ClientSessionManagedProxyKindBaseINSA_18Hipc2ProxyKindBaseILNS9_6detail11MessageTypeE4EEEEEEENS0_30MemoryResourceAllocationPolicyES7_E30_nn_sf_sync_StartSleepSequenceEb
00000000000d2e80 g    DF .text	00000000000000d0 _ZN2nn6applet17JoinLibraryAppletENS0_19LibraryAppletHandleE
0000000000056470  w   DF .text	00000000000001d4 _ZN2nn2sf4cmif6client34CmifDomainProxyClientCoreProcessorINS0_4hipc6client38Hipc2ClientSessionManagedProxyKindBaseINS5_18Hipc2ProxyKindBaseILNS4_6detail11MessageTypeE4EEEEENS1_6detail14CoreMethodInfoINSt3__15tupleIJNSC_18BufferArgumentInfoILi0ELi25ELm769EEENSG_ILi1ELi25ELm769EEEEEELm0ELm0ELb0EEESJ_E7ProcessEPNS2_23CmifDomainClientMessageISB_E15ProxyBaseObjectENS2_24BufferClientArgumentTypeESQ_j
0000000000286dcc g    DF .text	000000000000000c NvRmGpuChannelEventIdControl
0000000000975e90 g    DO .data	0000000000000028 _ZTIN7android6ThreadE
00000000009493b0  w   DO .data	0000000000000018 _ZTIN2nn2sf4cmif6client6detail9CmifProxyINS_7account24IBaasAccessTokenAccessorENS2_15CmifDomainProxyINS0_4hipc6client38Hipc2ClientSessionManagedProxyKindBaseINS9_18Hipc2ProxyKindBaseILNS8_6detail11MessageTypeE4EEEEEEENS0_30MemoryResourceAllocationPolicyEvEE
0000000000152314  w   DF .text	0000000000000010 _ZN2nn2sf4cmif6client6detail13CmifProxyImplINS_4nifm6detail15IGeneralServiceENS2_15CmifDomainProxyINS0_4hipc6client38Hipc2ClientSessionManagedProxyKindBaseINSA_18Hipc2ProxyKindBaseILNS9_6detail11MessageTypeE4EEEEEEENS0_25StatelessAllocationPolicyINS0_22ExpHeapStaticAllocatorILm16384ENS6_21ServiceProviderClient30CreateNifmUserServiceObjectTagEEEEES7_E17GetCmifBaseObjectEv
000000000021e180 g    DF .text	0000000000000064 _ZN2nn3hid6detail27ApplyNpadSystemCommonPolicyEv
00000000009a2dd8 g    DO .bss	0000000000000008 _ZN2nn2fs18g_AllReturnContextE
0000000000118ca8 g    DF .text	0000000000000018 _ZN2nn5codec25GetOpusPacketChannelCountEPKhm
0000000000187cb0  w   DF .text	0000000000000140 _ZN2nn5audio18AddI3dl2ReverbImplINS0_12FinalMixTypeEEENS_6ResultEPNS0_19AudioRendererConfigEPNS0_15I3dl2ReverbTypeEPvmPT_i
00000000000961c0 g    DF .text	000000000000007c _ZN2nn2os6detail27InterruptEventImplByHorizon7TryWaitEv
000000000097c5b0 g    DO .data	0000000000000018 _ZTINSt12experimental19bad_optional_accessE
000000000022c7f0 g    DF .text	0000000000000044 _ZN2nn3hid6system33BindConnectionTriggerTimeoutEventEPNS_2os15SystemEventTypeENS2_14EventClearModeE
000000000032b228  w   DF .text	00000000000000a0 _ZNSt3__113basic_istreamIcNS_11char_traitsIcEEE3getEPcl
00000000007a7e14 g    DO .rodata	0000000000000140 _ZN2nn5image6detail4jpeg18jpeg_natural_orderE
00000000000cad50  w   DF .text	0000000000000008 _ZThn32_N2nn2sf4cmif6client6detail13CmifProxyImplINS_2am7service21ILibraryAppletCreatorENS2_15CmifDomainProxyINS0_4hipc6client38Hipc2ClientSessionManagedProxyKindBaseINSA_18Hipc2ProxyKindBaseILNS9_6detail11MessageTypeE4EEEEEEENS0_30MemoryResourceAllocationPolicyES7_E17GetCmifBaseObjectEv
0000000000257090 g    DF .text	0000000000000120 _ZN2nn3web15ShowNewsPageArg20SetBootAsMediaPlayerEb
000000000036d670 g    DF .text	0000000000000004 _ZNSt3__135__libcpp_thread_available_core_maskEv
0000000000220438  w   DF .text	0000000000000004 _ZN2nn3hid6detail8RingLifoINS0_6system18CaptureButtonStateELi16ENS1_13AtomicStorageIS4_EEED2Ev
0000000000046a9c g    DF .text	0000000000000088 _ZN2nn2fs6detail15OutputAccessLogENS_6ResultENS_2os4TickES4_PKcNS1_23IdentifyAccessLogHandleES6_z
0000000000169c70 g    DF .text	0000000000000050 _ZN2nn8settings6system18IsExternalRtcResetEv
0000000000220650 g    DF .text	0000000000000008 _ZN2nn3hid6detail38GetSixAxisSensorHandleSixAxisSensorIdxERKNS0_19SixAxisSensorHandleE
0000000000231ef8  w   DF .text	0000000000000020 _ZN2nn2sf4cmif6client6detail13CmifProxyImplINS_3hid10IHidServerENS0_4hipc6client18Hipc2ProxyKindBaseILNS7_6detail11MessageTypeE4EEENS0_25StatelessAllocationPolicyINS0_22ExpHeapStaticAllocatorILm16384ENS5_6detail9HidServerEEEEES6_E36_nn_sf_sync_ReleaseXpadIdEventHandleEm
00000000000d4b28 g    DF .text	0000000000000054 _ZN2nn6applet19BeginVrModeInternalEv
00000000001bcd58 g    DF .text	0000000000000004 _ZN2nn3mii6detail12StoreDataRaw11SetEyeScaleEi
0000000000168f80 g    DF .text	0000000000000078 _ZN2nn8settings7factory14GetGameCardKeyEPNS1_11GameCardKeyE
00000000001bfcc4 g    DF .text	0000000000000084 _ZNK2nn3mii6detail16Ver3StoreDataRaw11GetEyebrowXEv
000000000017523c  w   DF .text	000000000000002c _ZN2nn2sf4cmif6client6detail13CmifProxyImplINS_8settings21ISystemSettingsServerENS0_4hipc6client18Hipc2ProxyKindBaseILNS7_6detail11MessageTypeE4EEENS0_25StatelessAllocationPolicyINS0_22ExpHeapStaticAllocatorILm16384ES6_EEEES6_E30_nn_sf_sync_GetAllowedSslHostsENS0_3OutIivEERKNS0_8OutArrayINS5_6system14AllowedSslHostEEE
00000000000701c8 g    DF .text	0000000000000158 _ZN2nn4lmem6detail13FreeToExpHeapEPNS1_8HeapHeadEPv
00000000001767c0  w   DF .text	00000000000000fc _ZN2nn2sf4hipc6client24Hipc2ClientCoreProcessorILNS1_6detail11MessageTypeE4ENS0_4cmif6detail14CoreMethodInfoINSt3__15tupleIJNS7_18OutRawArgumentInfoILm36ELm1ELl0EEEEEELm0ELm36ELb0EEESD_E7ProcessEPNS2_26Hipc2ClientProxyBaseObjectENS6_6client24OutRawClientArgumentTypeILm36ELm1EEEj
0000000000395d88 g    DF .text	0000000000000004 _ZNSt20bad_array_new_lengthD1Ev
00000000000d5b18 g    DF .text	00000000000000a0 _ZN2nn4bcat32UnregisterBackgroundDeliveryTaskENS_13ApplicationIdE
0000000000044ca8 g    DF .text	000000000000002c _ZN2nn4diag6detail7PutImplERKNS0_11LogMetaDataEPKcm
00000000002204a0 g    DF .text	0000000000000054 _ZN2nn3hid6detail18SharedMemoryHolderC1EOS2_
000000000004191c g    DF .text	0000000000000018 _ZN2nn4edid6detail7ToAsciiEh
00000000000b3e28 g    DF .text	0000000000000040 _ZN2nn7account28DeleteSaveDataThumbnailImageERKNS0_3UidERKNS_13ApplicationIdE
00000000007c2480  w   DO .rodata	000000000000003c _ZTSN2nn7account3nas40IOAuthProcedureForNintendoAccountLinkageE
00000000009460a0  w   DO .data	0000000000000010 _ZTIN2nn2sf4hipc6server17IHipcObjectDomainE
000000000023275c  w   DF .text	0000000000000020 _ZN2nn2sf4cmif6client6detail13CmifProxyImplINS_3hid10IHidServerENS0_4hipc6client18Hipc2ProxyKindBaseILNS7_6detail11MessageTypeE4EEENS0_25StatelessAllocationPolicyINS0_22ExpHeapStaticAllocatorILm16384ENS5_6detail9HidServerEEEEES6_E32_nn_sf_sync_IsVibrationPermittedENS0_3OutIbvEE
0000000000821210  w   DO .rodata	00000000000000bd _ZTSN2nn2sf4cmif6client16CmifProxyFactoryINS_3pcv19IArbitrationManagerENS0_4hipc6client18Hipc2ProxyKindBaseILNS6_6detail11MessageTypeE4EEENS0_30MemoryResourceAllocationPolicyEE13ServiceObjectE
000000000025a3c4 g    DF .text	00000000000000cc nvdcSetMode2
000000000039dda8 g    DF .text	000000000000056c __multc3
0000000000256e00 g    DF .text	0000000000000188 _ZN2nn3web15ShowNewsPageArgC1Ev
0000000000172e10  w   DF .text	00000000000000b8 _ZN2nn2sf4cmif6client32GetClientProcessorWithObjectBaseINS0_4hipc6client18Hipc2ProxyKindBaseILNS4_6detail11MessageTypeE4EEEE14ObjectAssignerINS0_25StatelessAllocationPolicyINS0_22ExpHeapStaticAllocatorILm16384ENS_8settings28IFirmwareDebugSettingsServerEEEEENS0_6detail23StatelessDummyAllocatorEE14AllocateObjectINSE_24ISettingsItemKeyIteratorEEEvi
000000000006b478 g    DF .text	0000000000000284 _ZN2nn2fs11MountSdCardEPKc
0000000000070660 g    DF .text	00000000000001a4 _ZN2nn4lmem6detail23CheckExpHeapMemoryBlockEPKvPNS1_8HeapHeadEj
000000000022d174 g    DF .text	0000000000000044 _ZN2nn3hid5debug37GetShiftAccelerometerCalibrationValueEPfS2_RKNS0_19SixAxisSensorHandleE
000000000034d404  w   DF .text	00000000000005b8 _ZNSt3__111__money_putIcE8__formatEPcRS2_S3_jPKcS5_RKNS_5ctypeIcEEbRKNS_10money_base7patternEccRKNS_12basic_stringIcNS_11char_traitsIcEENS_9allocatorIcEEEESL_SL_i
00000000000d90b4  w   DF .text	0000000000000008 _ZThn32_N2nn2sf4cmif6client6detail13CmifProxyImplINS_4bcat6detail3ipc28IDeliveryCacheStorageServiceENS2_15CmifDomainProxyINS0_4hipc6client38Hipc2ClientSessionManagedProxyKindBaseINSB_18Hipc2ProxyKindBaseILNSA_6detail11MessageTypeE4EEEEEEENS0_30MemoryResourceAllocationPolicyES8_E17GetCmifBaseObjectEv
0000000000951510  w   DO .data	0000000000000018 _ZTIN2nn7friends6detail3ipc20INotificationServiceE
00000000001559b0 g    DF .text	0000000000000060 _ZN2nn4nifm6WakeUpEv
00000000000cd870  w   DF .text	0000000000000058 _ZN2nn2sf6detail38ObjectImplFactoryWithStatefulAllocatorINS0_4cmif6client16CmifProxyFactoryINS_2am7service19IOverlayAppletProxyENS4_15CmifDomainProxyINS0_4hipc6client38Hipc2ClientSessionManagedProxyKindBaseINSB_18Hipc2ProxyKindBaseILNSA_6detail11MessageTypeE4EEEEEEENS0_30MemoryResourceAllocationPolicyEE13ServiceObjectESJ_E6Object7ReleaseEv
00000000003161c0 g    DF .text	00000000000000c0 _ZN2nn3i2c11OpenSessionEPNS0_10I2cSessionENS0_9I2cDeviceE
000000000034161c  w   DF .text	0000000000000060 _ZNKSt3__18time_getIcNS_19istreambuf_iteratorIcNS_11char_traitsIcEEEEE10__get_yearERiRS4_S4_RjRKNS_5ctypeIcEE
00000000003e00dc g    DF .text	0000000000000008 atof
0000000000185fe0 g    DF .text	000000000000000c _ZN2nn5audio21SetAudioDeviceMappingEPKcPKNS0_15AudioDeviceNameE
000000000023283c  w   DF .text	0000000000000020 _ZN2nn2sf4cmif6client6detail13CmifProxyImplINS_3hid10IHidServerENS0_4hipc6client18Hipc2ProxyKindBaseILNS7_6detail11MessageTypeE4EEENS0_25StatelessAllocationPolicyINS0_22ExpHeapStaticAllocatorILm16384ENS5_6detail9HidServerEEEEES6_E40_nn_sf_sync_ActivateConsoleSixAxisSensorENS_6applet20AppletResourceUserIdE
00000000003ab20c g    DF .text	0000000000000030 clock_getres
0000000000089b68 g    DF .text	000000000000002c _ZN2nn7nlibsdk4heap10CachedHeap8FinalizeEv
000000000008e6e8 g    DF .text	0000000000000004 _ZN2nn2os30GetWritableHandleOfSystemEventEPNS0_15SystemEventTypeE
00000000007c85e0  w   DO .rodata	000000000000010e _ZTSN2nn2sf4cmif6client16CmifProxyFactoryINS_2am7service22ILibraryAppletAccessorENS2_15CmifDomainProxyINS0_4hipc6client38Hipc2ClientSessionManagedProxyKindBaseINS9_18Hipc2ProxyKindBaseILNS8_6detail11MessageTypeE4EEEEEEENS0_30MemoryResourceAllocationPolicyEE13ServiceObjectE
000000000097c608 g    DO .data	0000000000000028 _ZTVNSt3__111regex_errorE
00000000003c25c4 g    DF .text	0000000000000018 iscntrl
00000000003e00e4 g    DF .text	0000000000000088 atoi
000000000024befc g    DF .text	0000000000000060 _ZN2nn3kpr15KeyCodeComposer6RemoveEPti
00000000000b637c  w   DF .text	0000000000000010 _ZN2nn2sf4cmif6client6detail13CmifProxyImplINS_7account6detail13IAsyncContextENS2_15CmifDomainProxyINS0_4hipc6client38Hipc2ClientSessionManagedProxyKindBaseINSA_18Hipc2ProxyKindBaseILNS9_6detail11MessageTypeE4EEEEEEENS0_25StatelessAllocationPolicyINS0_22ExpHeapStaticAllocatorILm2048ENS6_12ObjectHolder24ObjectHolderAllocatorTagEEEEES7_E17GetCmifBaseObjectEv
000000000029b978 g    DF .text	00000000000000c8 _ZN7android10AllocationC1ERKNS_2spINS_12MemoryDealerEEERKNS1_INS_11IMemoryHeapEEElm
00000000003e016c g    DF .text	0000000000000088 atol
000000000004c690  w   DF .text	000000000000000c _ZN2nn2fs3fsa11IFileSystem7DoFlushEv
0000000000118d0c g    DF .text	000000000000004c _ZN2nn5codec6detail18OpusPacketInternal17SetHeaderInPacketEPhRKNS2_6HeaderE
000000000095de80  w   DO .data	0000000000000018 _ZTIN2nn2sf4cmif6client16CmifProxyFactoryINS_6capsrv2sf29IScreenShotApplicationServiceENS0_4hipc6client18Hipc2ProxyKindBaseILNS7_6detail11MessageTypeE4EEENS0_30MemoryResourceAllocationPolicyEE13ServiceObjectE
00000000002959dc g    DF .text	0000000000000080 _ZTv0_n24_N7android9BpRefBaseD0Ev
0000000000114968 g    DF .text	0000000000000a74 surround_analysis
000000000014ab5c g    DF .text	000000000000009c _ZN2nn3ngc6detail11InputStream4SkipEm
00000000003a7f5c  w   DF .text	0000000000000004 _init_libc0
000000000019c054 g    DF .text	000000000000002c _ZN2nn5audio6server24AudioRendererManagerImpl17AudioRendererImpl13GetSampleRateENS_2sf3OutIivEE
00000000003a7f60  w   DF .text	0000000000000004 _init_libc1
00000000003de600 g    DF .text	0000000000000078 sprintf
00000000003a7f64  w   DF .text	0000000000000004 _init_libc2
0000000000047854 g    DF .text	00000000000002c8 _ZN2nn2fs24HierarchicalRomFileTable15CreateDirectoryEPiPKcRKNS0_16RomDirectoryInfoE
00000000000916ac g    DF .text	0000000000000010 _ZN2nn2os6detail24TryWaitInterProcessEventEPNS1_21InterProcessEventTypeE
000000000014d2d4 g    DF .text	0000000000000018 _ZNK2nn3ngc6detail3Set16GetBitVectorSizeEv
00000000000ae4bc g    DF .text	00000000000000d4 _ZN2nn6socket8resolver20CreateResolverByHipcERNS_2sf13SharedPointerINS1_9IResolverEEE
00000000000b9ba8  w   DF .text	0000000000000024 _ZN2nn2sf4cmif6client6detail13CmifProxyImplINS_7account19IAccountServiceBaseENS2_15CmifDomainProxyINS0_4hipc6client38Hipc2ClientSessionManagedProxyKindBaseINS9_18Hipc2ProxyKindBaseILNS8_6detail11MessageTypeE4EEEEEEENS0_25StatelessAllocationPolicyINS0_22ExpHeapStaticAllocatorILm2048ENS5_6detail12ObjectHolder24ObjectHolderAllocatorTagEEEEENS5_31IAccountServiceForAdministratorEE43_nn_sf_sync_TrySelectUserWithoutInteractionENS0_3OutINS5_3UidEvEEb
00000000001a7cbc  w   DF .text	000000000000001c _ZN2nn2sf4impl6detail17ImplTemplateBaseTINS_5audio6detail21IAudioRendererManagerES6_NS0_6detail27UnmanagedEmplacedImplHolderINS4_6server24AudioRendererManagerImplEEESB_S6_E29_nn_sf_sync_GetWorkBufferSizeENS0_3OutIlvEERKNS5_30AudioRendererParameterInternalE
000000000012469c g    DF .text	0000000000000114 _ZN2nn7friends6detail20AsyncContextInternal14CreateInstanceEPPS2_PNS1_3ipc14IFriendServiceEPFPvmEPFvS8_mE
0000000000179924 g    DF .text	00000000000000a4 _ZN2nn3ssl10Connection9SetOptionENS1_10OptionTypeEb
00000000000f7954 g    DF .text	0000000000000148 silk_control_SNR
00000000003341b0 g    DF .text	0000000000000004 _ZNSt3__116__narrow_to_utf8ILm32EED1Ev
000000000008fe5c g    DF .text	0000000000000008 _ZN2nn2os17FinalizeSemaphoreEPNS0_13SemaphoreTypeE
0000000000199a08 g    DF .text	00000000000000f0 _ZN2nn5audio21ContainsAudioInBufferEPKNS0_7AudioInEPKNS0_13AudioInBufferE
000000000019e03c g    DF .text	000000000000009c _ZN2nn5audio6server13CommandBuffer18GenerateMixCommandEiifj
00000000002c53e0 g    DF .text	00000000000000a4 _ZN7android21SurfaceComposerClientC1Ev
0000000000345c88 g    DF .text	0000000000000500 _ZNKSt3__118__time_get_storageIwE15__do_date_orderEv
0000000000028bc0 g    DF .text	00000000000001a0 _ZN2nn5image6detail4jpeg13jpeg_idct_4x2EPNS2_22jpeg_decompress_structEPNS2_19jpeg_component_infoEPsPPhi
0000000000270804 g    DF .text	0000000000000014 NvRmSyncClose
0000000000095488 g    DF .text	0000000000000048 _ZN2nn2os6detail27TransferMemoryImplByHorizon5CloseEj
0000000000132cc8 g    DF .text	0000000000000050 _ZN2nn4htcs10InitializeEPFPvmEPFvS1_mE
0000000000091308 g    DF .text	0000000000000004 nnosYieldThread
000000000022baf0 g    DF .text	0000000000000044 _ZN2nn3hid6system32EnableAssigningSingleOnSlSrPressEv
0000000000091490 g    DF .text	0000000000000004 nnosTryPeekMessageQueue
00000000000d6e18 g    DF .text	000000000000003c _ZN2nn4bcat21DeliveryCacheProgressC2Ev
0000000000189b50 g    DF .text	0000000000000010 _ZN2nn5audio15PerformanceInfoD1Ev
00000000003553d0 g    DF .text	00000000000000dc _ZNKSt3__15ctypeIwE10do_toupperEPwPKw
00000000001fea2c g    DF .text	000000000000017c fsg_ReduceMatrix
0000000000197f58 g    DF .text	0000000000000028 _ZN2nn5audio19OpenDefaultAudioOutEPNS0_8AudioOutERKNS0_17AudioOutParameterE
0000000000356a3c g    DF .text	00000000000000a0 _ZNKSt3__112ctype_bynameIwE8do_widenEPKcS3_Pw
00000000003cfd4c g    DF .text	0000000000000060 __p1evll
0000000000950420 g    DO .data	0000000000000018 _ZTIN2nn5codec19HardwareOpusDecoderE
0000000000324a0c g    DF .text	00000000000000fc _ZNKSt3__111__libcpp_db15__find_c_from_iEPv
00000000007bcbf0  w   DO .rodata	0000000000000167 _ZTSN2nn2sf4cmif6client16CmifProxyFactoryINS_7account4baas22IManagerForApplicationENS2_15CmifDomainProxyINS0_4hipc6client38Hipc2ClientSessionManagedProxyKindBaseINS9_18Hipc2ProxyKindBaseILNS8_6detail11MessageTypeE4EEEEEEENS0_25StatelessAllocationPolicyINS0_22ExpHeapStaticAllocatorILm2048ENS4_6detail12ObjectHolder24ObjectHolderAllocatorTagEEEEEE13ServiceObjectE
00000000000010d0  w   DF .text	0000000000000164 _ZN2nn6crypto6detail11CcmModeImplINS0_12AesEncryptorILm16EEEE11GenerateMacEv
00000000001522d0  w   DF .text	0000000000000024 _ZN2nn2sf4cmif6client6detail13CmifProxyImplINS_4nifm6detail15IGeneralServiceENS2_15CmifDomainProxyINS0_4hipc6client38Hipc2ClientSessionManagedProxyKindBaseINSA_18Hipc2ProxyKindBaseILNS9_6detail11MessageTypeE4EEEEEEENS0_25StatelessAllocationPolicyINS0_22ExpHeapStaticAllocatorILm16384ENS6_21ServiceProviderClient30CreateNifmUserServiceObjectTagEEEEES7_E33_nn_sf_sync_GetCurrentAccessPointENS0_3OutINS6_2sf15AccessPointDataEvEE
00000000000aca8c g    DF .text	0000000000000054 _ZN2nn6socket8resolver33WaitForAllResolverCallsToCompleteEv
00000000003e25cc g    DF .text	0000000000000058 strncat
0000000000159428 g    DF .text	00000000000000cc _ZN2nn3nsd6detail3ipc13GetNasApiFqdnEPNS0_4FqdnE
0000000000213c94 g    DF .text	00000000000000b8 FSS_realloc
0000000000317e9c g    DF .text	000000000000007c _ZN2nn3pcv15SetVoltageValueENS0_11PowerDomainEi
00000000003281d4 g    DF .text	0000000000000038 _ZNSt3__121__horizon_thread_data9get_stackEv
00000000000d4dd0 g    DF .text	000000000000006c _ZNK2nn4bcat13DirectoryName7IsValidEv
00000000002ab44c g    DF .text	00000000000000dc _ZN7android11BufferQueue21ProxyConsumerListenerC1ERKNS_2wpINS_16ConsumerListenerEEE
00000000001677c8  w   DF .text	0000000000000200 _ZN2nn2sf4cmif6client34CmifDomainProxyClientCoreProcessorINS0_4hipc6client38Hipc2ClientSessionManagedProxyKindBaseINS5_18Hipc2ProxyKindBaseILNS4_6detail11MessageTypeE4EEEEENS1_6detail14CoreMethodInfoINSt3__15tupleIJNSC_17InRawArgumentInfoILm16ELm8ELl0EEENSC_18BufferArgumentInfoILi0ELi9ELm0EEENSG_ILm8ELm8ELl16EEENSI_ILi1ELi5ELm0EEEEEELm24ELm0ELb0EEESM_E7ProcessEPNS2_23CmifDomainClientMessageISB_E15ProxyBaseObjectENS2_23InRawClientArgumentTypeILm16ELm8EvEENS2_24BufferClientArgumentTypeENST_ILm8ELm8EvEESV_j
000000000019cdf0  w   DF .text	000000000000002c _ZN2nn2sf4impl6detail17ImplTemplateBaseTINS_5audio6detail14IAudioRendererES6_NS0_6detail18EmplacedImplHolderINS4_6server24AudioRendererManagerImpl17AudioRendererImplEEESC_S6_E33_nn_sf_sync_GetRenderingTimeLimitENS0_3OutIivEE
00000000000e8fdc g    DF .text	0000000000000140 ec_encode_bin
00000000001d7cd0 g    DF .text	0000000000000418 _ZN2nn6fontll6detail38PickKernXValuesFromGlyphPairAdjustmentEPiPNS0_15OtfKerningTableEPKvtPPKh
00000000001cdd34  w   DF .text	0000000000000010 _ZN2nn2sf4cmif6client6detail13CmifProxyImplIN3nns9hosbinder16IHOSBinderDriverENS0_4hipc6client18Hipc2ProxyKindBaseILNS8_6detail11MessageTypeE4EEENS0_30MemoryResourceAllocationPolicyES7_E17GetCmifBaseObjectEv
000000000013e6b8 g    DF .text	0000000000000070 _ZN2nn3nfp15WriteBackupDataEPKvm
0000000000a80c50  w   DO .bss	0000000000000010 _ZNSt3__17num_putIwNS_19ostreambuf_iteratorIwNS_11char_traitsIwEEEEE2idE
00000000000906d0 g    DF .text	0000000000000014 _ZN2nn2os11GetTlsValueENS0_7TlsSlotE
00000000001c7b74 g    DF .text	0000000000000068 _ZN2nn3mii20GetShowMiiEditResultENS_6applet13StorageHandleE
0000000000042c68 g    DF .text	00000000000000a8 _ZN2nn4edid6cea86120VisitDetailedTimingsEPKhmPFbPKNS0_15DisplayModeInfoEPKNS0_17DisplayTimingInfoEPKNS0_13ImageSizeInfoEPvESD_
00000000007f0ab0  w   DO .rodata	00000000000000ab _ZTSN2nn2sf4impl6detail17ImplTemplateBaseTINS_5audio6detail12IAudioDeviceES6_NS0_6detail18EmplacedImplHolderINS4_6server24AudioRendererManagerImpl15AudioDeviceImplEEESC_S6_EE
0000000000150e3c g    DF .text	0000000000000024 _ZN2nn4nifm6detail13RequestClient24RegisterSocketDescriptorEi
00000000003cd2f0 g    DF .text	00000000000000ac nextafter
00000000001de110 g    DF .text	0000000000000024 FS_set_bold_pct
00000000003240bc g    DF .text	0000000000000018 _ZNSt3__118condition_variableD1Ev
000000000015b34c g    DF .text	000000000000003c _ZN2nn2oe23SetWirelessPriorityModeENS0_20WirelessPriorityModeE
0000000000015740 g    DF .text	000000000000003c _ZN2nn5image6detail4jpeg16jpeg_set_qualityEPNS2_20jpeg_compress_structEib
0000000000122278 g    DF .text	0000000000000008 _ZNK2nn7friends18FriendDetailedInfo19GetMiiImageUrlParamEv
0000000000160c00  w   DF .text	0000000000000020 _ZN2nn2sf4cmif6client6detail13CmifProxyImplINS_4pctl6detail3ipc23IParentalControlServiceENS2_15CmifDomainProxyINS0_4hipc6client38Hipc2ClientSessionManagedProxyKindBaseINSB_18Hipc2ProxyKindBaseILNSA_6detail11MessageTypeE4EEEEEEENS0_30MemoryResourceAllocationPolicyES8_E30_nn_sf_sync_IsPlayTimerEnabledENS0_3OutIbvEE
000000000017a5e0 g    DF .text	0000000000000018 _ZN2nn3ssl21GetSslResultFromValueEPNS_6ResultEPKcj
000000000018d174 g    DF .text	0000000000000030 _ZN2nn5audio6common10EdgeMatrix7ConnectEii
000000000033ef28  w   DF .text	0000000000000404 _ZNSt3__19__num_putIwE21__widen_and_group_intEPcS2_S2_PwRS3_S4_RKNS_6localeE
00000000003a2a90 g    DF .text	0000000000000044 __lshrdi3
00000000007ca2e0  w   DO .rodata	000000000000010e _ZTSN2nn2sf4cmif6client16CmifProxyFactoryINS_2am7service22IGlobalStateControllerENS2_15CmifDomainProxyINS0_4hipc6client38Hipc2ClientSessionManagedProxyKindBaseINS9_18Hipc2ProxyKindBaseILNS8_6detail11MessageTypeE4EEEEEEENS0_30MemoryResourceAllocationPolicyEE13ServiceObjectE
00000000002866c8 g    DF .text	000000000000001c NvRmGpuDeviceOpen
00000000002d1f14 g    DF .text	0000000000000040 _ZN7android10VectorImplC2ERKS0_
0000000000331074  w   DF .text	0000000000000008 _ZNSt3__113basic_ostreamIwNS_11char_traitsIwEEED1Ev
00000000000cdec8  w   DF .text	0000000000000008 _ZN2nn2sf6detail38ObjectImplFactoryWithStatefulAllocatorINS0_4cmif6client16CmifProxyFactoryINS_2am7service17IOverlayFunctionsENS4_15CmifDomainProxyINS0_4hipc6client38Hipc2ClientSessionManagedProxyKindBaseINSB_18Hipc2ProxyKindBaseILNSA_6detail11MessageTypeE4EEEEEEENS0_30MemoryResourceAllocationPolicyEE13ServiceObjectESJ_E6Object12AddReferenceEv
0000000000081758 g    DF .text	0000000000000028 nnmem_nlib_semaphore_trywait_for
000000000016fba0 g    DF .text	0000000000000070 _ZN2nn8settings6detail13SetColorSetIdEi
00000000003b9b1c g    DF .text	0000000000000030 casinhf
00000000001bc7dc g    DF .text	0000000000000004 _ZNK2nn3mii6detail12StoreDataRaw9GetGenderEv
000000000021c6bc g    DF .text	00000000000000a8 _ZN2nn3hid6detail32SetSixAxisSensorFusionParametersERKNS0_19SixAxisSensorHandleEff
0000000000a684d0 g    DO .bss	0000000000000008 _ZN7android9SingletonINS_15ComposerServiceEE9sInstanceE
00000000009433b0  w   DO .data	0000000000000018 _ZTIN2nn2sf4cmif6client23CmifDomainClientMessageINS0_4hipc6client38Hipc2ClientSessionManagedProxyKindBaseINS5_18Hipc2ProxyKindBaseILNS4_6detail11MessageTypeE4EEEEEE15ProxyBaseObjectE
000000000094d110  w   DO .data	0000000000000018 _ZTIN2nn2am7service16IStorageAccessorE
0000000000138e88 g    DF .text	0000000000000024 _ZN2nn3nfc6client25GetUserInterfaceForCommonEv
000000000029c0d4 g    DF .text	0000000000000008 _ZN7android12MemoryDealer10deallocateEm
00000000003b9b4c g    DF .text	0000000000000050 casinhl
000000000036c608 g    DF .text	0000000000000018 _ZNKSt3__110error_code7messageEv
0000000000324754 g    DF .text	0000000000000030 _ZNKSt3__124__libcpp_debug_exception4whatEv
00000000000bba84  w   DF .text	0000000000000090 _ZN2nn2sf4cmif6client6detail13CmifProxyImplINS_7account4baas14IAdministratorENS2_15CmifDomainProxyINS0_4hipc6client38Hipc2ClientSessionManagedProxyKindBaseINSA_18Hipc2ProxyKindBaseILNS9_6detail11MessageTypeE4EEEEEEENS0_25StatelessAllocationPolicyINS0_22ExpHeapStaticAllocatorILm2048ENS5_6detail12ObjectHolder24ObjectHolderAllocatorTagEEEEES7_E64_nn_sf_sync_CreateProcedureToUpdateLinkageStateOfNintendoAccountENS0_3OutINS0_13SharedPointerINS5_4http15IOAuthProcedureEEEvEE
0000000000218124 g    DF .text	00000000000000e0 _ZN2nn3hid6detail12FinalizeXpadERKNS0_9JoyXpadIdE
0000000000084138 g    DF .text	0000000000000008 _ZN2nn7nlibsdk4heap14TlsHeapCentralC1Ev
00000000001cda00  w   DF .text	0000000000000064 _ZN2nn2sf4cmif6client6detail13CmifProxyImplINS_5visrv2sf26IApplicationDisplayServiceENS0_4hipc6client18Hipc2ProxyKindBaseILNS8_6detail11MessageTypeE4EEENS0_30MemoryResourceAllocationPolicyES7_E40_nn_sf_sync_GetIndirectLayerImageCropMapENS0_3OutIlvEESH_RKNS0_9OutBufferEllffffmNS_6applet20AppletResourceUserIdE
00000000003a3640 g    DF .text	00000000000004b8 __multf3
000000000097d9c0 g    DO .data	0000000000000018 _ZTIN10__cxxabiv117__class_type_infoE
00000000003e6d58 g    DF .text	0000000000000018 main
0000000000805230 g    DO .rodata	0000000000000020 _ZN2nn4util10BitFlagSetILi256ENS_3hid11KeyboardKeyEE4FlagILi82EE4MaskE
0000000000171238  w   DF .text	0000000000000024 _ZN2nn2sf4cmif6client6detail13CmifProxyImplINS_8settings22IFactorySettingsServerENS0_4hipc6client18Hipc2ProxyKindBaseILNS7_6detail11MessageTypeE4EEENS0_25StatelessAllocationPolicyINS0_22ExpHeapStaticAllocatorILm16384ES6_EEEES6_E26_nn_sf_sync_GetGameCardKeyENS0_3OutINS5_7factory11GameCardKeyEvEE
0000000000174bc0  w   DF .text	0000000000000020 _ZN2nn2sf4cmif6client6detail13CmifProxyImplINS_8settings21ISystemSettingsServerENS0_4hipc6client18Hipc2ProxyKindBaseILNS7_6detail11MessageTypeE4EEENS0_25StatelessAllocationPolicyINS0_22ExpHeapStaticAllocatorILm16384ES6_EEEES6_E26_nn_sf_sync_GetMiiAuthorIdENS0_3OutINS_4util4UuidEvEE
00000000003677a8 g    DF .text	0000000000000268 _ZNSt3__14stoiERKNS_12basic_stringIwNS_11char_traitsIwEENS_9allocatorIwEEEEPmi
0000000000046cc4 g    DF .text	000000000000008c _ZN2nn2fs6detail30OutputAccessLogForPreconditionENS_6ResultENS_2os4TickES4_PKcPKvS6_z
0000000000333390 g    DF .text	0000000000000024 _ZNSt3__18ios_base7failureD0Ev
0000000000070bbc g    DF .text	000000000000001c _ZN2nn4lmem6detail15FreeToFrameHeapEPNS1_8HeapHeadENS0_8FreeModeE
000000000035a84c g    DF .text	0000000000000028 _ZNSt3__18numpunctIcEC1Em
00000000000a1ab4 g    DF .text	0000000000000004 nnsocketShutdown
0000000000230cc8  w   DF .text	0000000000000020 _ZN2nn2sf4cmif6client6detail13CmifProxyImplINS_3hid15IHidDebugServerENS0_4hipc6client18Hipc2ProxyKindBaseILNS7_6detail11MessageTypeE4EEENS0_25StatelessAllocationPolicyINS0_22ExpHeapStaticAllocatorILm16384ENS5_6detail14HidDebugServerEEEEES6_E41_nn_sf_sync_UnsetHomeButtonAutoPilotStateEv
00000000002d01ac g    DF .text	000000000000002c _ZNK7android7String810getUtf32AtEmPm
00000000001865cc  w   DF .text	0000000000000158 _ZN2nn5audio12AddDelayImplINS0_10SubMixTypeEEENS_6ResultEPNS0_19AudioRendererConfigEPNS0_9DelayTypeEPvmPT_NS_8TimeSpanEi
00000000002a4538 g    DF .text	00000000000000b0 _ZN7android14IPCThreadState15getNativeHandleERNS_8BpBinderEjRjRb
000000000097d940 g    DO .data	0000000000000018 _ZTISt8bad_cast
00000000003e20fc g    DF .text	00000000000000b8 strcspn
00000000003ce384 g    DF .text	00000000000000ac scalbf
00000000009795c8  w   DO .data	0000000000000010 _ZTTNSt3__113basic_istreamIwNS_11char_traitsIwEEEE
0000000000229584 g    DF .text	0000000000000054 _ZN2nn3hid19GetXpadPlayerNumberERKNS0_9JoyXpadIdE
0000000000179690 g    DF .text	00000000000000a4 _ZN2nn3ssl10Connection18GetVerifyCertErrorEPNS_6ResultE
00000000001a0578 g    DF .text	0000000000000124 _ZN2nn5audio6server16CommandGenerator22GenerateSubMixCommandsEv
0000000000082520 g    DF .text	000000000000005c _ZN2nn7nlibsdk4heap12TlsHeapCache15ReleaseAllCacheEv
00000000000b17d8 g    DF .text	0000000000000098 _ZN2nn4util12GenerateUuidEv
00000000003398ec  w   DF .text	00000000000004ac _ZNKSt3__17num_getIwNS_19istreambuf_iteratorIwNS_11char_traitsIwEEEEE17__do_get_unsignedImEES4_S4_S4_RNS_8ios_baseERjRT_
00000000003ce490 g    DF .text	0000000000000088 scalbn
0000000000947350  w   DO .data	0000000000000018 _ZTIN2nn2sf4cmif6client6detail13CmifProxyImplINS_7account4baas22IManagerForApplicationENS2_15CmifDomainProxyINS0_4hipc6client38Hipc2ClientSessionManagedProxyKindBaseINSA_18Hipc2ProxyKindBaseILNS9_6detail11MessageTypeE4EEEEEEENS0_25StatelessAllocationPolicyINS0_22ExpHeapStaticAllocatorILm2048ENS5_6detail12ObjectHolder24ObjectHolderAllocatorTagEEEEES7_EE
00000000001854dc g    DF .text	0000000000000008 _ZN2nn5audio51SetAudioRendererExclusiveControlLeakageCheckEnabledEb
00000000001b94bc g    DF .text	0000000000000038 _ZNK2nn3mii6detail11CoreDataRaw8GetMoleXEv
00000000001c65ec  w   DF .text	0000000000000024 _ZN2nn2sf4cmif6client6detail13CmifProxyImplINS_3mii6detail16IDatabaseServiceENS2_15CmifDomainProxyINS0_4hipc6client38Hipc2ClientSessionManagedProxyKindBaseINSA_18Hipc2ProxyKindBaseILNS9_6detail11MessageTypeE4EEEEEEENS0_25StatelessAllocationPolicyINS0_22ExpHeapStaticAllocatorILm16384ENS6_21ServiceProviderClient30CreateNifmUserServiceObjectTagEEEEES7_E24_nn_sf_sync_BuildDefaultENS0_3OutINS5_8CharInfoEvEEi
00000000007c5fe0  w   DO .rodata	0000000000000109 _ZTSN2nn2sf4cmif6client16CmifProxyFactoryINS_2am7service17IWindowControllerENS2_15CmifDomainProxyINS0_4hipc6client38Hipc2ClientSessionManagedProxyKindBaseINS9_18Hipc2ProxyKindBaseILNS8_6detail11MessageTypeE4EEEEEEENS0_30MemoryResourceAllocationPolicyEE13ServiceObjectE
0000000000956fa4 g    DO .data	0000000000000010 _ZN2nn5audio14FdnDelayLenMaxE
0000000000231980  w   DF .text	0000000000000100 _ZN2nn2sf4hipc6client24Hipc2ClientCoreProcessorILNS1_6detail11MessageTypeE4ENS0_4cmif6detail14CoreMethodInfoINSt3__15tupleIJNS7_18OutRawArgumentInfoILm1ELm1ELl0EEENS7_17InRawArgumentInfoILm8ELm8ELl0EEEEEELm8ELm1ELb0EEESF_E7ProcessEPNS2_26Hipc2ClientProxyBaseObjectENS6_6client24OutRawClientArgumentTypeILm1ELm1EEENSK_23InRawClientArgumentTypeILm8ELm8EvEEj
000000000023d370  w   DF .text	0000000000000038 _ZN2nn2sf6detail39ObjectImplFactoryWithStatelessAllocatorINS0_4cmif6client16CmifProxyFactoryINS_8irsensor21IIrSensorSystemServerENS0_4hipc6client18Hipc2ProxyKindBaseILNS8_6detail11MessageTypeE4EEENS0_25StatelessAllocationPolicyINS0_22ExpHeapStaticAllocatorILm16384ENS6_6detail20IrSensorSystemServerEEEEEE13ServiceObjectESJ_E6Object7ReleaseEv
0000000000230760 g    DF .text	0000000000000048 _ZN2nn3hid5debug21SetXpadAutoPilotStateERKNS0_11BasicXpadIdERKNS1_23BasicXpadAutoPilotStateE
00000000002707e4 g    DF .text	0000000000000004 NvRmMemReserve
000000000009d4fc g    DF .text	00000000000000fc _ZN2nn2sf4hipc6server24HipcServerSessionManager15ProcessMessage2EPNS2_21HipcServerSessionBaseEPvmS6_m
000000000013609c g    DF .text	000000000000002c _ZN2nn2lm6detail20LogPacketTransmitter22PushLogPacketDropCountEm
000000000022b648 g    DF .text	0000000000000050 _ZN2nn3hid28GetControlPadRestrictionTypeENS_4util10BitFlagSetILi32ENS0_12NpadStyleTagEEE
000000000025a82c g    DF .text	0000000000000008 nvdcScrncaptDupFBuf
00000000001b23a4 g    DF .text	000000000000014c _ZN2nn2ec6detail40ShowShopSecretApplicationInformationImplENS1_10LaunchModeENS_13ApplicationIdERKNS_7account3UidENS0_8SourceIdE
00000000003a7800 g    DF .text	0000000000000000 memcmp
00000000002b4470 g    DF .text	0000000000000040 _ZN7android18GraphicBufferAllocD1Ev
00000000001d2834  w   DF .text	00000000000000a8 _ZN2nn2sf4cmif6client6detail13CmifProxyImplINS_5visrv2sf19IManagerRootServiceENS0_4hipc6client18Hipc2ProxyKindBaseILNS8_6detail11MessageTypeE4EEENS0_30MemoryResourceAllocationPolicyES7_E29_nn_sf_sync_GetDisplayServiceENS0_3OutINS0_13SharedPointerINS6_26IApplicationDisplayServiceEEEvEEj
000000000004aee4 g    DF .text	000000000000003c _ZN2nn2fs11FileStorage7SetSizeEl
000000000012d0b8 g    DF .text	0000000000000264 _ZN2nn2fs14ExtendSaveDataERKNS_7account3UidEll
0000000000225e1c g    DF .text	00000000000000e0 _ZN2nn3hid6detail14ListUniquePadsEPiPNS0_6system11UniquePadIdEi
0000000000122d84 g    DF .text	0000000000000004 _ZNK2nn7friends16UserPresenceView24GetLastPlayedApplicationEv
0000000000326dd0 g    DF .text	00000000000000b4 _ZNSt3__117__assoc_sub_state4waitEv
00000000003541fc g    DF .text	0000000000000074 _ZNSt3__16locale2id5__getEv
000000000029c6f4 g    DF .text	00000000000000c0 _ZN7android10MemoryBaseC1ERKNS_2spINS_11IMemoryHeapEEElm
000000000018f97c g    DF .text	00000000000001dc _ZN2nn5audio22ProcessResamplerBufferEPNS0_13ResamplerTypeEPiPsmPKsi
000000000017db4c g    DF .text	000000000000009c _ZN2nn4time14GetSpanBetweenEPlRKNS0_20SteadyClockTimePointES4_
0000000000805190 g    DO .rodata	0000000000000020 _ZN2nn4util10BitFlagSetILi256ENS_3hid11KeyboardKeyEE4FlagILi77EE4MaskE
0000000000333b78 g    DF .text	0000000000000048 _ZNSt3__18ios_base4InitD1Ev
000000000035a574 g    DF .text	0000000000000068 _ZNKSt3__120__codecvt_utf8_utf16IDsE6do_outER11__mbstate_tPKDsS5_RS5_PcS7_RS7_
0000000000164558 g    DF .text	0000000000000054 _ZN2nn5prepo6detail7msgpack20WriteSignedInteger16EPNS2_17OutputStreamParamEs
00000000001d0338  w   DF .text	0000000000000024 _ZN2nn2sf4cmif6client6detail13CmifProxyImplINS_5visrv2sf22IManagerDisplayServiceENS0_4hipc6client18Hipc2ProxyKindBaseILNS8_6detail11MessageTypeE4EEENS0_30MemoryResourceAllocationPolicyES7_E44_nn_sf_sync_CreateSharedBufferTransferMemoryENS0_3OutINS_2vi7fbshare18SharedBufferHandleEvEEONS0_12NativeHandleEmRKNSI_22SharedMemoryPoolLayoutE
00000000000d70c8 g    DF .text	0000000000000030 _ZNK2nn4bcat21DeliveryCacheProgress13GetWholeTotalEv
00000000000c8ad8  w   DF .text	0000000000000008 _ZN2nn2sf4cmif6client6detail13CmifProxyImplINS_2am7service15IDebugFunctionsENS2_15CmifDomainProxyINS0_4hipc6client38Hipc2ClientSessionManagedProxyKindBaseINSA_18Hipc2ProxyKindBaseILNS9_6detail11MessageTypeE4EEEEEEENS0_30MemoryResourceAllocationPolicyES7_E12GetProxyInfoEv
00000000000bce34  w   DF .text	0000000000000008 _ZN2nn2sf4cmif6client6detail13CmifProxyImplINS_7account4http15IOAuthProcedureENS2_15CmifDomainProxyINS0_4hipc6client38Hipc2ClientSessionManagedProxyKindBaseINSA_18Hipc2ProxyKindBaseILNS9_6detail11MessageTypeE4EEEEEEENS0_25StatelessAllocationPolicyINS0_22ExpHeapStaticAllocatorILm2048ENS5_6detail12ObjectHolder24ObjectHolderAllocatorTagEEEEES7_E12GetProxyInfoEv
000000000095ba78  w   DO .data	0000000000000020 _ZTVN2nn3hid6detail15NpadJoyDualLifoE
000000000039f6b8 g    DF .text	000000000000002c __unordsf2
0000000000314028  w   DF .text	0000000000000010 _ZN2nn2sf4cmif6client6detail13CmifProxyImplINS_3fgm2sf8IRequestENS2_15CmifDomainProxyINS0_4hipc6client38Hipc2ClientSessionManagedProxyKindBaseINSA_18Hipc2ProxyKindBaseILNS9_6detail11MessageTypeE4EEEEEEENS0_30MemoryResourceAllocationPolicyES7_E17GetCmifBaseObjectEv
000000000001fd0c g    DF .text	00000000000001b8 _ZN2nn5image6detail4jpeg22jpeg_resync_to_restartEPNS2_22jpeg_decompress_structEi
00000000003151c0 g    DF .text	0000000000000050 _ZN2nn4gpio16SetInterruptModeEPNS0_14GpioPadSessionENS0_13InterruptModeE
00000000003cdf44 g    DF .text	0000000000000058 rintf
00000000000a1c44 g    DF .text	0000000000000004 nnsocketGetHErrno
00000000003a4780 g    DF .text	0000000000000058 __subvsi3
0000000000091504 g    DF .text	0000000000000004 nnosGetSystemTick
00000000001b8a44 g    DF .text	0000000000000048 _ZN2nn3mii6detail11CoreDataRaw10SetDefaultEv
000000000033306c  w   DF .text	00000000000000ac _ZNSt3__114basic_iostreamIcNS_11char_traitsIcEEEC1EPNS_15basic_streambufIcS2_EE
0000000000264b00 g    DF .text	0000000000000030 NvOsDebugNprintf
00000000007e6670  w   DO .rodata	00000000000001c6 _ZTSN2nn2sf6detail39ObjectImplFactoryWithStatelessAllocatorINS0_4cmif6client16CmifProxyFactoryINS_7timesrv6detail7service14IStaticServiceENS4_15CmifDomainProxyINS0_4hipc6client38Hipc2ClientSessionManagedProxyKindBaseINSC_18Hipc2ProxyKindBaseILNSB_6detail11MessageTypeE4EEEEEEENS0_25StatelessAllocationPolicyINS0_22ExpHeapStaticAllocatorILm16384ENS_4time6detail7service21ServiceProviderClient30CreateTimeUserServiceObjectTagEEEEEE13ServiceObjectESS_E6ObjectE
000000000017e794 g    DF .text	0000000000000094 _ZN2nn4time20CalculateSpanBetweenEPNS_8TimeSpanERKNS0_13ClockSnapshotES5_
000000000024dec0 g    DF .text	000000000000011c _ZN2nn5album22SaveAndShareScreenshotEPNS0_7ShareIdEPKvmNS0_9ImageSizeENS0_16ImageOrientationENS0_17AlbumReportOptionERKNS_7account3UidEPKc
000000000097d740 g    DO .data	0000000000000018 _ZTISt16invalid_argument
00000000003cdf9c g    DF .text	00000000000000a4 rintl
0000000000070b1c g    DF .text	0000000000000004 _ZN2nn4lmem6detail16DestroyFrameHeapEPNS1_8HeapHeadE
000000000002db18 g    DF .text	00000000000007b0 _ZN2nn5image6detail17ExtractJpegHeaderEPNS1_10JpegHeaderEPKvmi
0000000000343f68  w   DF .text	000000000000005c _ZNKSt3__18time_getIwNS_19istreambuf_iteratorIwNS_11char_traitsIwEEEEE12__get_secondERiRS4_S4_RjRKNS_5ctypeIwEE
0000000000044444 g    DF .text	0000000000000064 _ZN2nn4diag6detail10VAbortImplEPKcS3_S3_iPKNS_6ResultEPKNS_2os17UserExceptionInfoES3_St9__va_list
000000000011908c g    DF .text	000000000000003c _ZN2nn5codec6detail20SetBandwidthInternalEP11OpusEncoderNS0_13OpusBandwidthE
000000000022171c g    DF .text	00000000000000c0 _ZN2nn3hid6detail21InitializeTouchScreenEv
000000000008f9b8 g    DF .text	000000000000004c _ZN2nn2os24SdkConditionVariableType4WaitERNS0_12SdkMutexTypeE
00000000000c1dfc g    DF .text	0000000000000040 _ZN2nn7account49ExternalNetworkServiceAccountIntroducingProcedureC2EPNS0_3nas29IOAuthProcedureForExternalNsaE
000000000097b330 g    DO .data	0000000000000018 _ZTINSt3__115__codecvt_utf16IwLb0EEE
000000000023f1a8  w   DF .text	0000000000000468 _ZN22nerd_gillette_internal5otete7jaimev29SerializeINS0_15BitStreamReaderINS0_14InputBitStreamEEEEEbRNS1_12HandInPacketERT_
0000000000109c8c g    DF .text	0000000000000030 encode_size
000000000015e4cc g    DF .text	00000000000000ec _ZN2nn4pctl34SynchronizeParentalControlSettingsEPNS_4time9PosixTimeE
00000000007b1220 g    DO .rodata	0000000000000024 _ZTSN2nn2fs6detail18FileSystemAccessorE
0000000000233960  w   DF .text	000000000000010c _ZN2nn2sf4hipc6client24Hipc2ClientCoreProcessorILNS1_6detail11MessageTypeE4ENS0_4cmif6detail14CoreMethodInfoINSt3__15tupleIJNS7_17InRawArgumentInfoILm8ELm8ELl0EEENS7_18OutRawArgumentInfoILm8ELm8ELl0EEEEEELm8ELm8ELb1EEESF_E7ProcessEPNS2_26Hipc2ClientProxyBaseObjectENS6_6client23InRawClientArgumentTypeILm8ELm8EvEENSK_24OutRawClientArgumentTypeILm8ELm8EEEj
000000000004e70c g    DF .text	000000000000008c _ZN2nn2fs6detail14FindFileSystemEPPNS1_18FileSystemAccessorEPKc
000000000017b128  w   DF .text	0000000000000010 _ZN2nn2sf4cmif6client6detail13CmifProxyImplINS_3ssl2sf11ISslContextENS2_15CmifDomainProxyINS0_4hipc6client38Hipc2ClientSessionManagedProxyKindBaseINSA_18Hipc2ProxyKindBaseILNS9_6detail11MessageTypeE4EEEEEEENS0_24StatefulAllocationPolicyINS0_16ExpHeapAllocatorEEES7_E17GetCmifBaseObjectEv
000000000095d2f0  w   DO .data	0000000000000038 _ZTIN2nn2sf6detail39ObjectImplFactoryWithStatelessAllocatorINS0_4cmif6client16CmifProxyFactoryINS_3hid26IActiveVibrationDeviceListENS0_4hipc6client18Hipc2ProxyKindBaseILNS8_6detail11MessageTypeE4EEENS0_25StatelessAllocationPolicyINS0_22ExpHeapStaticAllocatorILm16384ENS6_6detail9HidServerEEEEEE13ServiceObjectESJ_E6ObjectE
00000000000abd2c  w   DF .text	0000000000000218 _ZN2nn2sf4cmif6client34CmifDomainProxyClientCoreProcessorINS0_4hipc6client38Hipc2ClientSessionManagedProxyKindBaseINS5_18Hipc2ProxyKindBaseILNS4_6detail11MessageTypeE4EEEEENS1_6detail14CoreMethodInfoINSt3__15tupleIJNSC_18OutRawArgumentInfoILm4ELm4ELl0EEENSG_ILm4ELm4ELl4EEENSC_17InRawArgumentInfoILm4ELm4ELl0EEENSC_18BufferArgumentInfoILi0ELi34ELm0EEENSJ_ILm4ELm4ELl4EEENSJ_ILm4ELm4ELl8EEENSJ_ILm16ELm8ELl16EEEEEELm32ELm8ELb0EEESQ_E7ProcessEPNS2_23CmifDomainClientMessageISB_E15ProxyBaseObjectENS2_24OutRawClientArgumentTypeILm4ELm4EEESY_NS2_23InRawClientArgumentTypeILm4ELm4EvEENS2_24BufferClientArgumentTypeES10_S10_NSZ_ILm16ELm8EvEEj
00000000001a30b4 g    DF .text	0000000000000010 _ZNK2nn5audio6server14MemoryPoolInfo8IsMappedEv
000000000034dd74  w   DF .text	0000000000000498 _ZNKSt3__19money_putIwNS_19ostreambuf_iteratorIwNS_11char_traitsIwEEEEE6do_putES4_bRNS_8ios_baseEwe
0000000000296e1c g    DF .text	0000000000000054 _ZN7android10IInterface8asBinderEPKS0_
0000000000356b50 g    DF .text	00000000000000b4 _ZNKSt3__112ctype_bynameIwE9do_narrowEPKwS3_cPc
0000000000347904  w   DF .text	0000000000000008 _ZNKSt3__117moneypunct_bynameIcLb1EE16do_thousands_sepEv
0000000000a68478 g    DO .bss	0000000000000008 _ZN7android19IGraphicBufferAlloc10descriptorE
0000000000326d3c g    DF .text	0000000000000094 _ZNSt3__117__assoc_sub_state10__sub_waitERNS_11unique_lockINS_5mutexEEE
0000000000326c08 g    DF .text	0000000000000040 _ZNSt3__117__assoc_sub_state12__make_readyEv
0000000000822580  w   DO .rodata	000000000000002f _ZTSNSt3__113basic_ostreamIcNS_11char_traitsIcEEEE
00000000003566c4 g    DF .text	000000000000024c _ZNKSt3__112ctype_bynameIwE11do_scan_notEtPKwS3_
000000000008d460 g    DF .text	0000000000000050 _ZN2nn2os12TryWaitEventEPNS0_9EventTypeE
000000000009132c g    DF .text	0000000000000004 nnosGetCurrentCoreNumber
00000000000ceb8c  w   DF .text	0000000000000020 _ZN2nn2sf4cmif6client6detail13CmifProxyImplINS_2am7service21IApplicationFunctionsENS2_15CmifDomainProxyINS0_4hipc6client38Hipc2ClientSessionManagedProxyKindBaseINSA_18Hipc2ProxyKindBaseILNS9_6detail11MessageTypeE4EEEEEEENS0_30MemoryResourceAllocationPolicyES7_E29_nn_sf_sync_RequestToShutdownEv
00000000001d041c  w   DF .text	0000000000000020 _ZN2nn2sf4cmif6client6detail13CmifProxyImplINS_5visrv2sf22IManagerDisplayServiceENS0_4hipc6client18Hipc2ProxyKindBaseILNS8_6detail11MessageTypeE4EEENS0_30MemoryResourceAllocationPolicyES7_E29_nn_sf_sync_CreateSharedLayerENS0_3OutINS_2vi7fbshare17SharedLayerHandleEvEENS_6applet20AppletResourceUserIdE
0000000000356c54 g    DF .text	0000000000000008 _ZNKSt3__17codecvtIcc11__mbstate_tE11do_encodingEv
000000000006c068 g    DF .text	00000000000000b4 _ZN2nn2fs12FormatSdCardEv
000000000019c3e4 g    DF .text	000000000000004c _ZN2nn5audio6server24AudioRendererManagerImpl17AudioRendererImpl10InitializeERKNS0_6detail30AudioRendererParameterInternalEmRNS_2sf12NativeHandleEmRKNS_6applet20AppletResourceUserIdEi
00000000002565fc g    DF .text	0000000000000090 _ZN2nn3web14ShowWebPageArg17SetPointerEnabledEb
0000000000348238  w   DF .text	000000000000000c _ZNKSt3__117moneypunct_bynameIwLb0EE11do_groupingEv
0000000000051a34 g    DF .text	00000000000001b0 _ZN2nn2fs12MountContentEPKcNS_3ncm9ProgramIdENS0_11ContentTypeE
00000000002cda68 g    DF .text	0000000000000004 _ZN7android7RefBase12weakref_type7trackMeEbb
0000000000329fb4  w   DF .text	00000000000001f8 _ZNSt3__113basic_istreamIcNS_11char_traitsIcEEErsEPNS_15basic_streambufIcS2_EE
00000000001cdad4  w   DF .text	0000000000000008 _ZThn16_N2nn2sf4cmif6client6detail13CmifProxyImplINS_5visrv2sf26IApplicationDisplayServiceENS0_4hipc6client18Hipc2ProxyKindBaseILNS8_6detail11MessageTypeE4EEENS0_30MemoryResourceAllocationPolicyES7_E17GetCmifBaseObjectEv
00000000007dea80  w   DO .rodata	0000000000000017 _ZTSN2nn3nfp6detail5IUserE
00000000000640d0 g    DF .text	000000000000011c _ZN2nn2fs16SuspendMmcPatrolEv
000000000017956c g    DF .text	00000000000000d8 _ZN2nn3ssl10Connection4PollEPNS1_9PollEventES3_j
0000000000220240 g    DF .text	0000000000000174 _ZN2nn3hid6detail26FinalizeSharedMemoryFormatEPNS1_18SharedMemoryFormatE
0000000000805938 g    DO .rodata	0000000000000004 _ZN2nn3hid14KeyboardLayout19SpanishLatinAmericaE
000000000023a6f0 g    DF .text	000000000000000c _ZN2nn8irsensor6detail15IrSensorSession37ThrowResultDeactivationLowerLimitOverEv
00000000000bb958  w   DF .text	0000000000000090 _ZN2nn2sf4cmif6client6detail13CmifProxyImplINS_7account4baas14IAdministratorENS2_15CmifDomainProxyINS0_4hipc6client38Hipc2ClientSessionManagedProxyKindBaseINSA_18Hipc2ProxyKindBaseILNS9_6detail11MessageTypeE4EEEEEEENS0_25StatelessAllocationPolicyINS0_22ExpHeapStaticAllocatorILm2048ENS5_6detail12ObjectHolder24ObjectHolderAllocatorTagEEEEES7_E52_nn_sf_sync_CreateProcedureToLinkWithNintendoAccountENS0_3OutINS0_13SharedPointerINS5_3nas40IOAuthProcedureForNintendoAccountLinkageEEEvEE
0000000000317870 g    DF .text	0000000000000088 _ZN2nn3pcv8FinalizeEv
00000000003a35f8 g    DF .text	0000000000000048 __multi3
000000000002fc8c g    DF .text	0000000000000004 _ZN2nn5image13ExifExtractorD2Ev
0000000000125be0  w   DF .text	0000000000000034 _ZN2nn2sf4cmif6client6detail13CmifProxyImplINS_7friends6detail3ipc14IFriendServiceENS2_15CmifDomainProxyINS0_4hipc6client38Hipc2ClientSessionManagedProxyKindBaseINSB_18Hipc2ProxyKindBaseILNSA_6detail11MessageTypeE4EEEEEEENS0_30MemoryResourceAllocationPolicyES8_E33_nn_sf_sync_GetFriendDetailedInfoENS0_3OutINS6_22FriendDetailedInfoImplEvEERKNS_7account3UidENSO_23NetworkServiceAccountIdE
00000000001c4f2c g    DF .text	0000000000000084 _ZNK2nn3mii6detail16Ver3StoreDataRaw12GetReserved1Ev
0000000000a69960 g    DO .bss	0000000000000030 _ZN7android22GraphicBufferAllocator10sAllocListE
000000000015183c  w   DF .text	0000000000000114 _ZN2nn2sf4hipc6client34HipcSimpleClientSessionManagerBase4Impl18InitializeByHandleINS_4nifm6detail14IStaticServiceENS0_25StatelessAllocationPolicyINS0_22ExpHeapStaticAllocatorILm16384ENS7_21ServiceProviderClient30CreateNifmUserServiceObjectTagEEEEEEENS_6ResultEPNS0_13SharedPointerIT_EENS_3svc6HandleE
00000000007b8cb0  w   DO .rodata	000000000000001e _ZTSN2nn2ro6detail12IRoInterfaceE
000000000015e8c8 g    DF .text	0000000000000058 _ZN2nn4pctl23IsRestrictedByPlayTimerEv
0000000000822dc8 g    DO .rodata	0000000000000004 _ZNSt3__16locale3allE
000000000032489c g    DF .text	0000000000000058 _ZNSt3__18__c_nodeD2Ev
00000000002a0694 g    DF .text	0000000000000070 _ZNK7android6Parcel11readString8Ev
00000000000b3914 g    DF .text	0000000000000058 _ZN2nn7account27StoreSaveDataThumbnailImageERKNS0_3UidEPKvm
000000000000a404  w   DF .text	00000000000000c8 _ZN2nn6crypto6detail11GcmModeImplINS1_19GcmModeAes128HelperEE6GetMacEPvm
0000000000077050 g    DF .text	0000000000000314 nnmem_nlib_memutf8_to_utf16
000000000010c074 g    DF .text	0000000000000050 opus_packet_get_nb_frames
0000000000122248 g    DF .text	0000000000000008 _ZNK2nn7friends18FriendDetailedInfo12GetAccountIdEv
000000000006fb14 g    DF .text	0000000000000054 _ZN2nn4lmem14FreeToUnitHeapEPNS0_6detail8HeapHeadEPv
0000000000168214 g    DF .text	0000000000000048 _ZN2nn8settings6system22SetBluetoothAfhEnabledEb
00000000002d0d28 g    DF .text	0000000000000004 androidSetThreadName
000000000023a6fc g    DF .text	000000000000000c _ZN2nn8irsensor6detail15IrSensorSession27ThrowResultAllocationFailedEv
00000000007e3c10  w   DO .rodata	00000000000000ec _ZTSN2nn2sf4cmif6client16CmifProxyFactoryINS_8settings22IFactorySettingsServerENS0_4hipc6client18Hipc2ProxyKindBaseILNS6_6detail11MessageTypeE4EEENS0_25StatelessAllocationPolicyINS0_22ExpHeapStaticAllocatorILm16384ES5_EEEEE13ServiceObjectE
00000000001a2590 g    DF .text	000000000000000c _ZN2nn5audio6server12BehaviorInfo11UpdateFlagsERKNS_4util10BitFlagSetILi64EvEE
000000000023994c g    DF .text	0000000000000028 _ZN2nn8irsensor6detail15IrSensorSession25GetIrCameraInternalStatusERKNS0_14IrCameraHandleE
000000000097aa68 g    DO .data	0000000000000060 _ZTVNSt3__17codecvtIwc11__mbstate_tEE
000000000022e1ec g    DF .text	0000000000000044 _ZN2nn3hid5debug28SetTouchScreenAutoPilotStateILm12EEEvRKNS1_25TouchScreenAutoPilotStateIXT_EEE
00000000001fc370 g    DF .text	000000000000009c advance_elementPtr
000000000036ba74 g    DF .text	000000000000002c _ZNSt3__112strstreambuf9underflowEv
000000000039f41c g    DF .text	000000000000002c __unorddf2
0000000000328ff8  w   DF .text	000000000000002c _ZNSt3__115basic_streambufIcNS_11char_traitsIcEEE7sungetcEv
0000000000805610 g    DO .rodata	0000000000000020 _ZN2nn4util10BitFlagSetILi256ENS_3hid11KeyboardKeyEE4FlagILi113EE4MaskE
00000000000b234c g    DF .text	0000000000000034 _ZN2nn7account6detail24SimpleOAuthProcedureBaseC1ERKNS0_3UidEPNS0_4http15IOAuthProcedureE
00000000000be87c  w   DF .text	0000000000000020 _ZN2nn2sf4cmif6client6detail13CmifProxyImplINS_7account6detail13IAsyncContextENS2_15CmifDomainProxyINS0_4hipc6client38Hipc2ClientSessionManagedProxyKindBaseINSA_18Hipc2ProxyKindBaseILNS9_6detail11MessageTypeE4EEEEEEENS0_30MemoryResourceAllocationPolicyES7_E26_nn_sf_sync_GetSystemEventENS0_3OutINS0_12NativeHandleEvEE
0000000000170070 g    DF .text	0000000000000070 _ZN2nn8settings6detail32GetWirelessCertificationFileSizeEPm
0000000000232b5c  w   DF .text	0000000000000008 _ZN2nn2sf6detail39ObjectImplFactoryWithStatelessAllocatorINS0_4cmif6client16CmifProxyFactoryINS_3hid15IAppletResourceENS0_4hipc6client18Hipc2ProxyKindBaseILNS8_6detail11MessageTypeE4EEENS0_25StatelessAllocationPolicyINS0_22ExpHeapStaticAllocatorILm16384ENS6_6detail9HidServerEEEEEE13ServiceObjectESJ_E6Object12AddReferenceEv
00000000003a80cc  w   DF .text	0000000000000028 exit
00000000003a4728 g    DF .text	0000000000000058 __subvdi3
00000000009537c8  w   DO .data	0000000000000070 _ZTVN2nn2sf6detail39ObjectImplFactoryWithStatelessAllocatorINS0_4cmif6client16CmifProxyFactoryINS_4nifm6detail12IScanRequestENS4_15CmifDomainProxyINS0_4hipc6client38Hipc2ClientSessionManagedProxyKindBaseINSB_18Hipc2ProxyKindBaseILNSA_6detail11MessageTypeE4EEEEEEENS0_25StatelessAllocationPolicyINS0_22ExpHeapStaticAllocatorILm16384ENS7_21ServiceProviderClient30CreateNifmUserServiceObjectTagEEEEEE13ServiceObjectESO_E6ObjectE
000000000017521c  w   DF .text	0000000000000020 _ZN2nn2sf4cmif6client6detail13CmifProxyImplINS_8settings21ISystemSettingsServerENS0_4hipc6client18Hipc2ProxyKindBaseILNS7_6detail11MessageTypeE4EEENS0_25StatelessAllocationPolicyINS0_22ExpHeapStaticAllocatorILm16384ES6_EEEES6_E31_nn_sf_sync_GetWebInspectorFlagENS0_3OutIbvEE
00000000007e4550  w   DO .rodata	000000000000014f _ZTSN2nn2sf6detail39ObjectImplFactoryWithStatelessAllocatorINS0_4cmif6client16CmifProxyFactoryINS_8settings24ISettingsItemKeyIteratorENS0_4hipc6client18Hipc2ProxyKindBaseILNS8_6detail11MessageTypeE4EEENS0_25StatelessAllocationPolicyINS0_22ExpHeapStaticAllocatorILm16384ENS6_28IFirmwareDebugSettingsServerEEEEEE13ServiceObjectESI_E6ObjectE
00000000003b8940 g    DF .text	00000000000003cc memcpy
000000000009bf34 g    DF .text	000000000000010c _ZN2nn2sf4hipc6server6detail29HipcAllInOneServerManagerBaseD2Ev
0000000000030ff4 g    DF .text	0000000000000304 nnutilZlib_deflateInit2_
0000000000286e34 g    DF .text	000000000000000c NvRmGpuRegOpsSessionSetPcSamplingMode
00000000000a3798 g    DF .text	0000000000000170 _ZN2nn6socket6detail11GetSockNameEiP8sockaddrPj
000000000022939c g    DF .text	0000000000000054 _ZN2nn3hid6system16GetIrSensorStateEj
0000000000122980 g    DF .text	0000000000000008 _ZNK2nn7friends11PlayHistory26HasNetworkServiceAccountIdEv
00000000002599e4 g    DF .text	0000000000000008 nvdcFlipSyncFd2
00000000003ab094 g    DF .text	0000000000000004 pthread_attr_setschedpolicy
00000000003c0910 g    DF .text	0000000000000080 __crypt_sha512
000000000021a184 g    DF .text	0000000000000060 _ZN2nn3hid6detail24UnsetMouseAutoPilotStateEv
00000000007c1cd0  w   DO .rodata	00000000000001b9 _ZTSN2nn2sf6detail39ObjectImplFactoryWithStatelessAllocatorINS0_4cmif6client16CmifProxyFactoryINS_7account3nas40IOAuthProcedureForNintendoAccountLinkageENS4_15CmifDomainProxyINS0_4hipc6client38Hipc2ClientSessionManagedProxyKindBaseINSB_18Hipc2ProxyKindBaseILNSA_6detail11MessageTypeE4EEEEEEENS0_25StatelessAllocationPolicyINS0_22ExpHeapStaticAllocatorILm2048ENS6_6detail12ObjectHolder24ObjectHolderAllocatorTagEEEEEE13ServiceObjectESP_E6ObjectE
00000000007d3fce g    DO .rodata	000000000000001c silk_Resampler_1_2_COEFS
00000000001263b8  w   DF .text	0000000000000008 _ZThn32_N2nn2sf4cmif6client6detail13CmifProxyImplINS_7friends6detail3ipc14IFriendServiceENS2_15CmifDomainProxyINS0_4hipc6client38Hipc2ClientSessionManagedProxyKindBaseINSB_18Hipc2ProxyKindBaseILNSA_6detail11MessageTypeE4EEEEEEENS0_30MemoryResourceAllocationPolicyES8_E17GetCmifBaseObjectEv
000000000024ea0c  w   DF .text	00000000000001bc _ZN2nn2sf4hipc6client24Hipc2ClientCoreProcessorILNS1_6detail11MessageTypeE4ENS0_4cmif6detail14CoreMethodInfoINSt3__15tupleIJNS7_18OutRawArgumentInfoILm32ELm1ELl0EEENS7_18BufferArgumentInfoILi0ELi69ELm0EEENS7_17InRawArgumentInfoILm64ELm4ELl0EEENSF_ILm8ELm8ELl72EEENSF_ILm4ELm4ELl64EEEEEELm80ELm32ELb1EEESJ_E7ProcessEPNS2_26Hipc2ClientProxyBaseObjectENS6_6client24OutRawClientArgumentTypeILm32ELm1EEENSO_24BufferClientArgumentTypeENSO_23InRawClientArgumentTypeILm64ELm4EvEENSS_ILm8ELm8EvEENSS_ILm4ELm4EvEEj
00000000002578b0 g    DF .text	0000000000000090 _ZN2nn3web15ShowNewsPageArg20SetScreenShotEnabledEb
0000000000164094 g    DF .text	0000000000000140 _ZN2nn5prepo6detail7msgpack11WriteBinaryEPNS2_17OutputStreamParamEPKvj
0000000000986d90 g    DO .data	0000000000000008 __stdout_used
0000000000072618 g    DF .text	0000000000000088 nnmem_nlib_snwprintf
00000000001a98f8 g    DF .text	0000000000000084 _ZN2nn5audio3dsp10ApplyDepopEPiiii
00000000000b8bac  w   DF .text	00000000000002b4 _ZN2nn2sf4cmif6client34CmifDomainProxyClientCoreProcessorINS0_4hipc6client38Hipc2ClientSessionManagedProxyKindBaseINS5_18Hipc2ProxyKindBaseILNS4_6detail11MessageTypeE4EEEEENS1_6detail14CoreMethodInfoINSt3__15tupleIJNSC_21OutObjectArgumentInfoILi0ELi0EEENSC_18BufferArgumentInfoILi0ELi25ELm264EEENSI_ILi1ELi25ELm512EEENSC_20InHandleArgumentInfoILi0ELi1EEENSC_17InRawArgumentInfoILm4ELm4ELl0EEEEEELm4ELm0ELb0EEESP_E21ProcessWithOutObjectsEPNS2_23CmifDomainClientMessageISB_E15ProxyBaseObjectENS2_27OutObjectClientArgumentTypeENS2_24BufferClientArgumentTypeESX_NS2_26InHandleClientArgumentTypeENS2_23InRawClientArgumentTypeILm4ELm4EvEEjPNS0_13SharedPointerINS0_14IServiceObjectEEE
0000000000286e1c g    DF .text	000000000000000c NvRmGpuRegOpsSessionSetSmpcContextSwitchMode
00000000003e0558 g    DF .text	0000000000000010 ldiv
000000000019a9d0 g    DF .text	0000000000000008 _ZN2nn5audio35GetFinalOutputRecorderBufferEndTimeEPKNS0_25FinalOutputRecorderBufferE
0000000000217178 g    DF .text	00000000000000cc _ZN2nn3hid6detail20InitializeHomeButtonEv
000000000026486c g    DF .text	0000000000000024 NvOsAtomicCompareExchange32
000000000024fdac g    DF .text	0000000000000034 _ZN2nn3ldn16CloseAccessPointEv
000000000018929c g    DF .text	0000000000000034 _ZN2nn5audio14MemoryPoolInfo6DetachEv
00000000003969e8 g    DF .text	000000000000005c _ZNSt14overflow_errorD0Ev
000000000009d868  w   DF .text	0000000000000148 _ZNK2nn2sf4hipc6server17HipcServerMessage10GetBuffersEPNS0_6detail14PointerAndSizeE
0000000000274700 g    DF .text	0000000000000008 NvRmChannelGetModuleMutex
000000000012254c g    DF .text	0000000000000008 _ZNK2nn7friends23NintendoNetworkIdFriend7IsValidEv
000000000015679c g    DF .text	000000000000008c _ZN2nn4nifm22GetCurrentProxySettingEPNS0_12ProxySettingE
000000000020220c g    DF .text	0000000000000008 FsLtt_getFileVersion
00000000000cc2c0  w   DF .text	0000000000000094 _ZN2nn2sf4cmif6client6detail13CmifProxyImplINS_2am7service26ILibraryAppletSelfAccessorENS2_15CmifDomainProxyINS0_4hipc6client38Hipc2ClientSessionManagedProxyKindBaseINSA_18Hipc2ProxyKindBaseILNS9_6detail11MessageTypeE4EEEEEEENS0_30MemoryResourceAllocationPolicyES7_E21_nn_sf_sync_PopInDataENS0_3OutINS0_13SharedPointerINS6_8IStorageEEEvEE
00000000001806fc  w   DF .text	0000000000000074 _ZN2nn2sf6detail39ObjectImplFactoryWithStatelessAllocatorINS0_4cmif6client16CmifProxyFactoryINS_7timesrv6detail7service14IStaticServiceENS4_15CmifDomainProxyINS0_4hipc6client38Hipc2ClientSessionManagedProxyKindBaseINSC_18Hipc2ProxyKindBaseILNSB_6detail11MessageTypeE4EEEEEEENS0_25StatelessAllocationPolicyINS0_22ExpHeapStaticAllocatorILm16384ENS_4time6detail7service21ServiceProviderClient30CreateTimeUserServiceObjectTagEEEEEE13ServiceObjectESS_E6Object7ReleaseEv
0000000000099c9c g    DF .text	000000000000007c _ZN2nn2ro9BindEntryEv
00000000000c7100  w   DF .text	0000000000000154 _ZN2nn2sf4cmif6client34CmifDomainProxyClientCoreProcessorINS0_4hipc6client38Hipc2ClientSessionManagedProxyKindBaseINS5_18Hipc2ProxyKindBaseILNS4_6detail11MessageTypeE4EEEEENS1_6detail14CoreMethodInfoINSt3__15tupleIJNSC_17InRawArgumentInfoILm1ELm1ELl0EEENSG_ILm1ELm1ELl1EEENSG_ILm1ELm1ELl2EEEEEELm3ELm0ELb0EEESK_E7ProcessEPNS2_23CmifDomainClientMessageISB_E15ProxyBaseObjectENS2_23InRawClientArgumentTypeILm1ELm1EvEESS_SS_j
000000000021b1a8 g    DF .text	00000000000000c8 _ZN2nn3hid6detail22GetNpadControllerColorEPNS0_19NpadControllerColorERKj
00000000007dfab0 g    DO .rodata	0000000000000022 _ZTSN2nn3ngc6detail15NullInputStreamE
0000000000179644 g    DF .text	000000000000004c _ZN2nn3ssl10Connection12GetLastErrorEPNS_6ResultE
000000000007551c g    DF .text	00000000000002f4 nnmem_nlib_memutf8_to_utf32
00000000001a3498 g    DF .text	0000000000000008 _ZNK2nn5audio6server10PoolMapper17IsForceMapEnabledEv
000000000036bd20 g    DF .text	00000000000000b8 _ZNSt3__110istrstreamD1Ev
0000000000823520 g    DO .rodata	0000000000000015 _ZTSNSt3__18numpunctIwEE
00000000009464b0  w   DO .data	0000000000000018 _ZTIN2nn2sm6detail14IUserInterfaceE
000000000007b6d0 g    DF .text	0000000000000088 nnmem_nlib_snprintf_fallback
00000000007d4beb g    DO .rodata	0000000000000005 silk_uniform5_iCDF
000000000017529c  w   DF .text	0000000000000008 _ZThn16_N2nn2sf4cmif6client6detail13CmifProxyImplINS_8settings21ISystemSettingsServerENS0_4hipc6client18Hipc2ProxyKindBaseILNS7_6detail11MessageTypeE4EEENS0_25StatelessAllocationPolicyINS0_22ExpHeapStaticAllocatorILm16384ES6_EEEES6_E17GetCmifBaseObjectEv
00000000007ee440  w   DO .rodata	0000000000000021 _ZTSN2nn5audio6detail12IAudioDeviceE
00000000001d5310 g    DF .text	000000000000002c _ZN2nn2vi13ObjectManager22FindValidDisplayHolderEPKNS0_7DisplayE
00000000001b62b4 g    DF .text	0000000000000008 _ZNK2nn3mii21ParamCharInfoAccessor9GetMouthYEv
0000000000232494  w   DF .text	0000000000000020 _ZN2nn2sf4cmif6client6detail13CmifProxyImplINS_3hid10IHidServerENS0_4hipc6client18Hipc2ProxyKindBaseILNS7_6detail11MessageTypeE4EEENS0_25StatelessAllocationPolicyINS0_22ExpHeapStaticAllocatorILm16384ENS5_6detail9HidServerEEEEES6_E30_nn_sf_sync_GetNpadJoyHoldTypeENS_6applet20AppletResourceUserIdENS0_3OutIlvEE
000000000006759c g    DF .text	0000000000000170 _ZN2nn2fs16SaveDataIterator16ReadSaveDataInfoEPlPNS0_12SaveDataInfoEl
000000000015983c g    DF .text	00000000000000c4 _ZN2nn3nsd6detail3ipc25DeleteSaveDataOfFsForTestEv
0000000000a834ac g    DO .bss	0000000000000004 __optreset
000000000011b2c4 g    DF .text	0000000000000020 _ZN2nn3err19ApplicationErrorArgC2Ev
00000000000914cc g    DF .text	0000000000000004 nnosCloseNativeHandle
000000000017a05c g    DF .text	0000000000000024 nnsslConnectionDoHandshake
000000000018778c g    DF .text	0000000000000098 _ZN2nn5audio21SetReverbPredelayTimeEPNS0_10ReverbTypeENS_8TimeSpanE
0000000000234b64  w   DF .text	0000000000000024 _ZN2nn2sf4cmif6client6detail13CmifProxyImplINS_3hid16IHidSystemServerENS0_4hipc6client18Hipc2ProxyKindBaseILNS7_6detail11MessageTypeE4EEENS0_25StatelessAllocationPolicyINS0_22ExpHeapStaticAllocatorILm16384ENS5_6detail15HidSystemServerEEEEES6_E36_nn_sf_sync_SetVibrationMasterVolumeEf
00000000000ac2c8 g    DF .text	0000000000000048 _ZN2nn6socket6detail10socketNtoaE7in_addr
00000000001b47dc g    DF .text	00000000000000b4 _ZN2nn2la17PopFromOutChannelENS_6applet19LibraryAppletHandleEPvmPm
000000000021b948 g    DF .text	00000000000001fc _ZN2nn3hid6detail13GetNpadStatesEPiPNS0_16NpadJoyLeftStateEiRKj
000000000022e120 g    DF .text	0000000000000044 _ZN2nn3hid5debug28SetTouchScreenAutoPilotStateILm9EEEvRKNS1_25TouchScreenAutoPilotStateIXT_EEE
000000000018d29c g    DF .text	0000000000000030 _ZN2nn5audio6common10NodeStates17GetWorkBufferSizeEi
000000000018724c g    DF .text	0000000000000038 _ZN2nn5audio30GetRequiredBufferSizeForReverbEii
0000000000264be8 g    DF .text	00000000000000fc _ZN2nv20SetGraphicsAllocatorEPFPvmmS0_EPFvS0_S0_EPFS0_S0_mS0_ES0_
000000000097a9e0 g    DO .data	0000000000000088 _ZTVNSt3__112ctype_bynameIwEE
000000000009a1a4  w   DF .text	0000000000000004 _ZN2nn14MemoryResourceD2Ev
0000000000220474 g    DF .text	000000000000002c _ZN2nn3hid6detail18SharedMemoryHolderC1Ev
000000000036d6d0 g    DF .text	0000000000000018 _ZNSt3__129__libcpp_recursive_mutex_lockEPN2nn2os9MutexTypeE
0000000000944160  w   DO .data	0000000000000018 _ZTIN2nn5fssrv2sf15IDeviceOperatorE
0000000000953ab0  w   DO .data	0000000000000018 _ZTIN2nn2sf4cmif6client6detail9CmifProxyINS_4nifm6detail8IRequestENS2_15CmifDomainProxyINS0_4hipc6client38Hipc2ClientSessionManagedProxyKindBaseINSA_18Hipc2ProxyKindBaseILNS9_6detail11MessageTypeE4EEEEEEENS0_25StatelessAllocationPolicyINS0_22ExpHeapStaticAllocatorILm16384ENS6_21ServiceProviderClient30CreateNifmUserServiceObjectTagEEEEEvEE
0000000000236764 g    DF .text	00000000000000d0 _ZN2nn8irsensor6detail23GetImageProcessorStatusEPNS0_20ImageProcessorStatusERKbRKNS0_14IrCameraHandleE
0000000000825150 g    DO .rodata	0000000000000012 _ZTSSt13bad_exception
00000000001d7494 g    DF .text	0000000000000090 _ZN2nn2vi6buffer11BufferQueue13DequeueBufferEPPPv
0000000000823a60  w   DO .rodata	000000000000004d _ZTSNSt3__115time_put_bynameIcNS_19ostreambuf_iteratorIcNS_11char_traitsIcEEEEEE
000000000022e3e0 g    DF .text	0000000000000054 _ZN2nn3hid6system16GetUniquePadTypeENS1_11UniquePadIdE
000000000080d970  w   DO .rodata	000000000000010a _ZTSN2nn2sf4cmif6client16CmifProxyFactoryINS_8irsensor21IIrSensorSystemServerENS0_4hipc6client18Hipc2ProxyKindBaseILNS6_6detail11MessageTypeE4EEENS0_25StatelessAllocationPolicyINS0_22ExpHeapStaticAllocatorILm16384ENS4_6detail20IrSensorSystemServerEEEEEE13ServiceObjectE
00000000000904f8 g    DF .text	0000000000000004 _ZN2nn2os11SleepThreadENS_8TimeSpanE
0000000000399b40 g    DF .text	0000000000000028 unw_get_proc_name
000000000019237c  w   DF .text	0000000000000160 _ZN2nn2sf4hipc6client24Hipc2ClientCoreProcessorILNS1_6detail11MessageTypeE4ENS0_4cmif6detail14CoreMethodInfoINSt3__15tupleIJNS7_18BufferArgumentInfoILi0ELi5ELm0EEENS7_17InRawArgumentInfoILm8ELm8ELl0EEEEEELm8ELm0ELb0EEESF_E7ProcessEPNS2_26Hipc2ClientProxyBaseObjectENS6_6client24BufferClientArgumentTypeENSK_23InRawClientArgumentTypeILm8ELm8EvEEj
000000000017f10c g    DF .text	00000000000000c0 _ZN2nn4time38SetStandardLocalSystemClockCurrentTimeERKNS0_9PosixTimeE
0000000000093dd8  w   DF .text	000000000000011c _ZN2nn2os6detail20AddressRegionManagerC2Emm
00000000000bdb68 g    DF .text	00000000000000ac _ZN2nn7account37InitializeBaasAccessTokenAccessorWithEONS_2sf13SharedPointerINS0_24IBaasAccessTokenAccessorEEE
000000000018bbcc g    DF .text	0000000000000044 _ZN2nn5audio20SetSubMixDestinationEPNS0_19AudioRendererConfigEPNS0_10SubMixTypeEPNS0_12SplitterTypeE
00000000000d0f54  w   DF .text	0000000000000010 _ZN2nn2sf4cmif6client6detail13CmifProxyImplINS_3apm8IManagerENS0_4hipc6client18Hipc2ProxyKindBaseILNS7_6detail11MessageTypeE4EEENS0_30MemoryResourceAllocationPolicyES6_E17GetCmifBaseObjectEv
0000000000227cd4 g    DF .text	000000000000000c _ZN2nn3hid6detail36GetVibrationDeviceHandlePlayerNumberERKNS0_21VibrationDeviceHandleE
0000000000285edc g    DF .text	0000000000000008 nvgr_get_memfd
0000000000250068 g    DF .text	000000000000003c _ZN2nn3ldn20AddAcceptFilterEntryENS0_10MacAddressE
0000000000248874  w   DF .text	0000000000000cc8 _ZN22nerd_gillette_internal5otete7jaimev127DecodeFullSilhouetteImplROKINS_15NumericalVectorIfLm2EEEPFS4_NS3_IsLm2EEEEEEbRNS_30ContiguousStorageContainerBaseIT_Lb1EEERNS0_14InputBitStreamERKNS1_23FullSilhouetteCodecDataET0_
000000000017b58c  w   DF .text	0000000000000020 _ZN2nn2sf4cmif6client6detail13CmifProxyImplINS_3ssl2sf14ISslConnectionENS2_15CmifDomainProxyINS0_4hipc6client38Hipc2ClientSessionManagedProxyKindBaseINSA_18Hipc2ProxyKindBaseILNS9_6detail11MessageTypeE4EEEEEEENS0_24StatefulAllocationPolicyINS0_16ExpHeapAllocatorEEES7_E19_nn_sf_sync_PendingENS0_3OutIivEE
00000000000a1acc g    DF .text	0000000000000004 nnsocketPoll
000000000094c500  w   DO .data	0000000000000038 _ZTIN2nn2sf6detail38ObjectImplFactoryWithStatefulAllocatorINS0_4cmif6client16CmifProxyFactoryINS_2am7service16IAudioControllerENS4_15CmifDomainProxyINS0_4hipc6client38Hipc2ClientSessionManagedProxyKindBaseINSB_18Hipc2ProxyKindBaseILNSA_6detail11MessageTypeE4EEEEEEENS0_30MemoryResourceAllocationPolicyEE13ServiceObjectESJ_E6ObjectE
00000000000d1254  w   DF .text	0000000000000008 _ZN2nn2sf4cmif6client6detail13CmifProxyImplINS_3apm8ISessionENS0_4hipc6client18Hipc2ProxyKindBaseILNS7_6detail11MessageTypeE4EEENS0_30MemoryResourceAllocationPolicyES6_E12GetProxyInfoEv
00000000003197ac  w   DF .text	000000000000004c _ZZN2nn2sf31SimpleAllInOneHipcClientManagerILm3EE27InitializeShimLibraryHolderINS_3pcv6detail11IPcvServiceEEENS_6ResultEPNS0_23ShimLibraryObjectHolderIT_EEPKcPNS_14MemoryResourceEENUlPvE_8__invokeESG_
0000000000354474 g    DF .text	0000000000000014 _ZNSt3__16locale5facet16__on_zero_sharedEv
00000000000ce1dc  w   DF .text	0000000000000094 _ZN2nn2sf4cmif6client6detail13CmifProxyImplINS_2am7service18IAppletProxyCommonENS2_15CmifDomainProxyINS0_4hipc6client38Hipc2ClientSessionManagedProxyKindBaseINSA_18Hipc2ProxyKindBaseILNS9_6detail11MessageTypeE4EEEEEEENS0_30MemoryResourceAllocationPolicyENS6_17IApplicationProxyEE29_nn_sf_sync_GetSelfControllerENS0_3OutINS0_13SharedPointerINS6_15ISelfControllerEEEvEE
0000000000822ddc g    DO .rodata	0000000000000002 _ZNSt3__110ctype_base6xdigitE
00000000007e9214 g    DO .rodata	0000000000000004 _ZN2nn5audio10EffectInfo11InParameter22InvalidProcessingOrderE
000000000021d2a8 g    DF .text	00000000000001e4 _ZN2nn3hid6detail26GetSixAxisSensorLeftStatesEPiPNS0_18SixAxisSensorStateEiRKjNS_4util10BitFlagSetILi32ENS0_12NpadStyleTagEEE
000000000006c850 g    DF .text	0000000000000034 _ZN2nn2fs6detail27StorageServiceObjectAdapter4ReadElPvm
000000000094c748  w   DO .data	0000000000000070 _ZTVN2nn2sf6detail38ObjectImplFactoryWithStatefulAllocatorINS0_4cmif6client16CmifProxyFactoryINS_2am7service15IDebugFunctionsENS4_15CmifDomainProxyINS0_4hipc6client38Hipc2ClientSessionManagedProxyKindBaseINSB_18Hipc2ProxyKindBaseILNSA_6detail11MessageTypeE4EEEEEEENS0_30MemoryResourceAllocationPolicyEE13ServiceObjectESJ_E6ObjectE
0000000000122d90 g    DF .text	0000000000000008 _ZNK2nn7friends16UserPresenceView17GetLastUpdateTimeEv
00000000007d4b80 g    DO .rodata	0000000000000020 silk_stereo_pred_quant_Q13
000000000003b730 g    DF .text	0000000000000020 _ZN2nn4util16BinaryFileHeader11SetFileNameERKNS0_17basic_string_viewIcNSt3__111char_traitsIcEEEE
00000000000ed9c8 g    DF .text	000000000000016c unquant_energy_finalise
000000000011dc04 g    DF .text	0000000000000054 _ZN2nn7friends14AddPlayHistoryERKNS0_26PlayHistoryRegistrationKeyERKNS0_15InAppScreenNameES6_
000000000016b48c g    DF .text	0000000000000044 _ZN2nn8settings20SetXpadGenericPadMapERKNS0_22BasicXpadGenericPadMapEi
000000000032706c g    DF .text	0000000000000060 _ZNSt3__17promiseIvEC2Ev
0000000000118230 g    DF .text	00000000000001a0 _ZN2nn5codec11OpusEncoder10InitializeEiiNS0_15OpusApplicationEPvm
0000000000180ad8  w   DF .text	0000000000000020 _ZN2nn2sf4cmif6client6detail13CmifProxyImplINS_7timesrv6detail7service14IStaticServiceENS2_15CmifDomainProxyINS0_4hipc6client38Hipc2ClientSessionManagedProxyKindBaseINSB_18Hipc2ProxyKindBaseILNSA_6detail11MessageTypeE4EEEEEEENS0_25StatelessAllocationPolicyINS0_22ExpHeapStaticAllocatorILm16384ENS_4time6detail7service21ServiceProviderClient30CreateTimeUserServiceObjectTagEEEEES8_E48_nn_sf_sync_SetStandardSteadyClockInternalOffsetENS_12TimeSpanTypeE
00000000007fa8a0 g    DO .rodata	0000000000000e58 _ZN2nn3mii6detail22RandomMiiNoseTypeTableE
0000000000001f28 g    DF .text	0000000000000028 _ZN2nn6crypto6detail11bigint_zeroEPji
00000000000b6984  w   DF .text	0000000000000090 _ZN2nn2sf4cmif6client6detail13CmifProxyImplINS_7account3nas21IAuthorizationRequestENS2_15CmifDomainProxyINS0_4hipc6client38Hipc2ClientSessionManagedProxyKindBaseINSA_18Hipc2ProxyKindBaseILNS9_6detail11MessageTypeE4EEEEEEENS0_25StatelessAllocationPolicyINS0_22ExpHeapStaticAllocatorILm2048ENS5_6detail12ObjectHolder24ObjectHolderAllocatorTagEEEEES7_E41_nn_sf_sync_InvokeWithoutInteractionAsyncENS0_3OutINS0_13SharedPointerINSK_13IAsyncContextEEEvEE
00000000007f61e0 g    DO .rodata	0000000000000018 _ZN2nn3mii6detail12WrinkleColorE
000000000094fed8  w   DO .data	0000000000000068 _ZTVN2nn2sf6detail38ObjectImplFactoryWithStatefulAllocatorINS0_4cmif6client16CmifProxyFactoryINS_4bcat6detail3ipc30IDeliveryCacheDirectoryServiceENS4_15CmifDomainProxyINS0_4hipc6client38Hipc2ClientSessionManagedProxyKindBaseINSC_18Hipc2ProxyKindBaseILNSB_6detail11MessageTypeE4EEEEEEENS0_30MemoryResourceAllocationPolicyEE13ServiceObjectESK_E6ObjectE
00000000003ac0b0 g    DF .text	000000000000003c __flt_rounds
0000000000044804 g    DF .text	000000000000000c nndetailDiagOnAssertionFailure
0000000000804180  w   DO .rodata	0000000000000058 _ZTSN2nn3hid6detail8RingLifoINS0_6system16SleepButtonStateELi16ENS1_13AtomicStorageIS4_EEEE
0000000000135ed0 g    DF .text	0000000000000008 _ZN2nn2lm6detail15LogPacketHeader11SetThreadIdEm
00000000003e6c90 g    DF .text	0000000000000004 __nnmusl_FinalizeLock
0000000000957050  w   DO .data	0000000000000018 _ZTIN2nn5audio6detail18IAudioDebugManagerE
000000000022c010 g    DF .text	0000000000000044 _ZN2nn3hid28SetNpadJoyAssignmentModeDualERKj
000000000022d1b8 g    DF .text	0000000000000044 _ZN2nn3hid5debug33SetShiftGyroscopeCalibrationValueERKNS0_19SixAxisSensorHandleEff
0000000000184be0 g    DF .text	0000000000000008 _ZNK2nn5audio15AudioBufferListINS0_14AudioOutBufferEE5frontEv
000000000018d8a8 g    DF .text	000000000000002c _ZN2nn5audio6common16UpdateDataHeader10InitializeEj
00000000001d9dc8 g    DF .text	0000000000000008 _ZN2nn6fontll18ScalableFontEngine25InitializeOtfKerningTableEPFPvmmS2_ES2_
000000000025ad70 g    DF .text	000000000000007c nvdcutilBeginTelemetryTest
00000000001b4930 g    DF .text	0000000000000010 _ZN2nn2la20UseJumpLibraryAppletEb
00000000001de824 g    DF .text	0000000000000400 FSS_set_font
000000000094da60  w   DO .data	0000000000000018 _ZTIN2nn2sf4cmif6client6detail9CmifProxyINS_2am7service19ILibraryAppletProxyENS2_15CmifDomainProxyINS0_4hipc6client38Hipc2ClientSessionManagedProxyKindBaseINSA_18Hipc2ProxyKindBaseILNS9_6detail11MessageTypeE4EEEEEEENS0_30MemoryResourceAllocationPolicyEvEE
00000000002631f8 g    DF .text	0000000000000078 NvOsEventPoolCreate
0000000000255760 g    DF .text	00000000000000a4 _ZN2nn3web16ShowSharePageArgC1ENS0_14ShareStartPageE
000000000036c7d0 g    DF .text	0000000000000144 _ZNSt3__112system_errorC2ENS_10error_codeEPKc
00000000000d32b4 g    DF .text	00000000000000bc _ZN2nn6applet36GetPopFromInteractiveOutChannelEventENS0_19LibraryAppletHandleE
00000000001c96e4 g    DF .text	0000000000000008 _ZN2nn5swkbd24SetLeftOptionalSymbolKeyEPNS0_14KeyboardConfigEDs
0000000000001e80 g    DF .text	0000000000000004 _ZN2nn6crypto6detail6BigNumD2Ev
00000000001aa46c g    DF .text	0000000000000004 _ZN2nn5audio3dsp4WakeEv
00000000000c1dcc g    DF .text	0000000000000030 _ZN2nn7account49ExternalNetworkServiceAccountIntroducingProcedureC1Ev
0000000000168bf4 g    DF .text	0000000000000078 _ZN2nn8settings7factory15GetEciDeviceKeyEPNS1_16EccB233DeviceKeyE
00000000007a42b4 g    DO .rodata	00000000000000c0 _ZN2nn6crypto6detail20p256_named_parameterE
00000000000b2334 g    DF .text	0000000000000018 _ZN2nn7account6detail24SimpleOAuthProcedureBaseC1Ev
000000000015cf58 g    DF .text	0000000000000054 _ZN2nn4pctl28UnlockRestrictionTemporarilyEPKc
000000000017eb34 g    DF .text	0000000000000018 _ZN2nn4time39AsyncEnsureNetworkClockAvailabilityTask9GetResultEv
00000000000a4ee4 g    DF .text	0000000000000140 _ZN2nn6socket6detail12SocketExemptEiii
000000000014577c g    DF .text	0000000000000094 _ZN2nn3ngc6detail11AhoCorasick5ResetEv
00000000007c4460 g    DO .rodata	000000000000001d _ZTSN2nn7account13ProfileEditorE
00000000001a2cbc g    DF .text	000000000000001c _ZN2nn5audio6server10ReverbInfo26UpdateForCommandGenerationEv
0000000000132d18 g    DF .text	0000000000000010 _ZN2nn4htcs10InitializeEPvm
000000000015d208 g    DF .text	000000000000008c _ZN2nn4pctl14CheckMasterKeyERKNS0_11InquiryCodeEPKc
00000000000b1870 g    DF .text	000000000000002c _ZNK2nn7account10UiSettings9GetUiModeEv
0000000000223308 g    DF .text	00000000000000e8 _ZN2nn3hid6detail20GetTouchScreenStatesILm11EEENS_6ResultEPiPNS0_16TouchScreenStateIXT_EEEi
0000000000291e5c g    DF .text	0000000000000120 NvWsiContextCreate
00000000000c5588  w   DF .text	00000000000000ac _ZN2nn2sf4cmif6client32GetClientProcessorWithObjectBaseINS2_15CmifDomainProxyINS0_4hipc6client38Hipc2ClientSessionManagedProxyKindBaseINS6_18Hipc2ProxyKindBaseILNS5_6detail11MessageTypeE4EEEEEEEE14ObjectAssignerINS0_30MemoryResourceAllocationPolicyENS_14MemoryResourceEE14AllocateObjectINS_2am7service18ISystemAppletProxyEEEvi
00000000000c9a68  w   DF .text	0000000000000094 _ZN2nn2sf4cmif6client6detail13CmifProxyImplINS_2am7service22ILibraryAppletAccessorENS2_15CmifDomainProxyINS0_4hipc6client38Hipc2ClientSessionManagedProxyKindBaseINSA_18Hipc2ProxyKindBaseILNS9_6detail11MessageTypeE4EEEEEEENS0_30MemoryResourceAllocationPolicyES7_E22_nn_sf_sync_PopOutDataENS0_3OutINS0_13SharedPointerINS6_8IStorageEEEvEE
0000000000188f14 g    DF .text	000000000000001c _ZN2nn5audio15AudioBufferListINS0_25FinalOutputRecorderBufferEE9pop_frontEv
0000000000943da0  w   DO .data	0000000000000018 _ZTIN2nn5fssrv2sf17ISaveDataExporterE
00000000000a1a0c g    DF .text	0000000000000004 _ZN2nn6socket12FreeAddrInfoEP8addrinfo
000000000017ec14 g    DF .text	0000000000000004 _ZN2nn4time30SuspendAutonomicTimeCorrectionEv
0000000000959158 g    DO .data	0000000000000020 _ZTVN2nn5audio6server14DeviceSinkInfoE
00000000001ce670  w   DF .text	0000000000000020 _ZN2nn2sf4cmif6client6detail13CmifProxyImplINS_5visrv2sf21ISystemDisplayServiceENS0_4hipc6client18Hipc2ProxyKindBaseILNS8_6detail11MessageTypeE4EEENS0_30MemoryResourceAllocationPolicyES7_E30_nn_sf_sync_CloseIndirectLayerEm
000000000024c678 g    DF .text	000000000000007c _ZN2nn3kpr6detail22DequeueKeyCodeComposerEPNS1_22KeyCodeComposerStorageEPti
00000000001b626c g    DF .text	0000000000000008 _ZNK2nn3mii21ParamCharInfoAccessor11GetEyebrowXEv
00000000007c9200  w   DO .rodata	0000000000000100 _ZTSN2nn2sf4cmif6client6detail13CmifProxyImplINS_2am7service16IStorageAccessorENS2_15CmifDomainProxyINS0_4hipc6client38Hipc2ClientSessionManagedProxyKindBaseINSA_18Hipc2ProxyKindBaseILNS9_6detail11MessageTypeE4EEEEEEENS0_30MemoryResourceAllocationPolicyES7_EE
00000000007ced90  w   DO .rodata	0000000000000101 _ZTSN2nn2sf4cmif6client6detail13CmifProxyImplINS_4bcat6detail3ipc12IBcatServiceENS2_15CmifDomainProxyINS0_4hipc6client38Hipc2ClientSessionManagedProxyKindBaseINSB_18Hipc2ProxyKindBaseILNSA_6detail11MessageTypeE4EEEEEEENS0_30MemoryResourceAllocationPolicyES8_EE
0000000000151dfc  w   DF .text	000000000000003c _ZN2nn2sf4cmif6client6detail13CmifProxyImplINS_4nifm6detail15IGeneralServiceENS2_15CmifDomainProxyINS0_4hipc6client38Hipc2ClientSessionManagedProxyKindBaseINSA_18Hipc2ProxyKindBaseILNS9_6detail11MessageTypeE4EEEEEEENS0_25StatelessAllocationPolicyINS0_22ExpHeapStaticAllocatorILm16384ENS6_21ServiceProviderClient30CreateNifmUserServiceObjectTagEEEEES7_E36_nn_sf_sync_EnumerateNetworkProfilesERKNS0_8OutArrayINS6_2sf23NetworkProfileBasicInfoEEENS0_3OutIivEEh
000000000015dfa4 g    DF .text	0000000000000038 _ZN2nn4pctl31ConfirmSystemSettingsPermissionEv
00000000002cef50 g    DF .text	0000000000000040 _ZN7android7String8C2ERKNS_8String16E
000000000016df2c g    DF .text	0000000000000070 _ZN2nn8settings6detail17GetGyroscopeScaleEPNS0_7factory14GyroscopeScaleE
00000000001cdcc0  w   DF .text	0000000000000028 _ZN2nn2sf4cmif6client6detail13CmifProxyImplIN3nns9hosbinder16IHOSBinderDriverENS0_4hipc6client18Hipc2ProxyKindBaseILNS8_6detail11MessageTypeE4EEENS0_30MemoryResourceAllocationPolicyES7_E27_nn_sf_sync_GetNativeHandleEijNS0_3OutINS0_12NativeHandleEvEE
00000000003466b8 g    DF .text	000000000000006c _ZNKSt3__110__time_put8__do_putEPcRS1_PK2tmcc
000000000015ef9c g    DF .text	0000000000000088 _ZN2nn4pctl11PairingInfo14GetAccountInfoEPNS0_18PairingAccountInfoE
000000000006ae60 g    DF .text	0000000000000014 _ZN2nn2fs30SaveDataTransferSizeCalculator34QuerySaveDataRequiredSizeForImportEv
00000000000a3908 g    DF .text	0000000000000180 _ZN2nn6socket6detail10GetSockOptEiiiPvPj
00000000003160e4 g    DF .text	00000000000000dc _ZN2nn3i2c17OpenSessionForDevEPNS0_10I2cSessionEitNS0_14AddressingModeENS0_9SpeedModeE
000000000095d070  w   DO .data	0000000000000038 _ZTIN2nn2sf6detail39ObjectImplFactoryWithStatelessAllocatorINS0_4cmif6client16CmifProxyFactoryINS_3hid10IHidServerENS0_4hipc6client18Hipc2ProxyKindBaseILNS8_6detail11MessageTypeE4EEENS0_25StatelessAllocationPolicyINS0_22ExpHeapStaticAllocatorILm16384ENS6_6detail9HidServerEEEEEE13ServiceObjectESJ_E6ObjectE
00000000000cebcc  w   DF .text	0000000000000020 _ZN2nn2sf4cmif6client6detail13CmifProxyImplINS_2am7service21IApplicationFunctionsENS2_15CmifDomainProxyINS0_4hipc6client38Hipc2ClientSessionManagedProxyKindBaseINSA_18Hipc2ProxyKindBaseILNS9_6detail11MessageTypeE4EEEEEEENS0_30MemoryResourceAllocationPolicyES7_E45_nn_sf_sync_ExitAndRequestToShowThanksMessageEv
0000000000122554 g    DF .text	0000000000000034 _ZN2nn7friends17NotificationQueueC1Ev
00000000002d2edc g    DF .text	0000000000000058 _ZN7android10VectorImpl16editItemLocationEm
00000000001652f8 g    DF .text	0000000000000010 _ZN2nn5prepo10PlayReportC2Ev
00000000003c9354 g    DF .text	0000000000000198 exp2
0000000000216ca0 g    DF .text	000000000000020c _ZN2nn3hid6detail16GetGestureStatesEPiPNS0_12GestureStateEi
00000000001d5028 g    DF .text	0000000000000018 _ZN2nn2vi15FreeLayerHolderEPv
0000000000317500 g    DF .text	0000000000000034 _ZN2nn3i2c20CommandListFormatterC2EPvm
000000000009bbe8 g    DF .text	0000000000000038 _ZN2nn2sf4hipc6detail25HipcMessageBufferAccessor10SetPointerEimmi
00000000000be5ac  w   DF .text	0000000000000030 _ZN2nn2sf4cmif6client6detail13CmifProxyImplINS_7account24IBaasAccessTokenAccessorENS2_15CmifDomainProxyINS0_4hipc6client38Hipc2ClientSessionManagedProxyKindBaseINS9_18Hipc2ProxyKindBaseILNS8_6detail11MessageTypeE4EEEEEEENS0_30MemoryResourceAllocationPolicyES6_E21_nn_sf_sync_LoadCacheENS0_3OutIjvEERKNS0_9OutBufferERKNS5_3UidE
0000000000150198 g    DF .text	0000000000000170 _ZN2nn3ngc6detail11CalcSelect0EjjPKmPKjPKh
000000000016d5ac g    DF .text	000000000000008c _ZN2nn8settings6detail23GetNxControllerSettingsEPiPNS0_6system20NxControllerSettingsEi
00000000009495f8 g    DO .data	0000000000000010 _ZTIN2nn7account8NotifierE
000000000094d3d0  w   DO .data	0000000000000018 _ZTIN2nn2am7service21ILibraryAppletCreatorE
000000000018c4a8 g    DF .text	000000000000002c _ZN2nn5audio16VoiceInfoManagerC2Ev
00000000001c3690 g    DF .text	0000000000000034 _ZN2nn3mii6detail16Ver3StoreDataRaw11SetCreateIdERKNS1_12Ver3CreateIdE
0000000000082728 g    DF .text	00000000000000c0 _ZN2nn7nlibsdk4heap12TlsHeapCache22GetAllocSizeFunc_Mode0EPS2_PKv
0000000000061ef4 g    DF .text	0000000000000138 _ZN2nn2fs26EraseAndWriteParamDirectlyEPvm
0000000000298ac8 g    DF .text	0000000000000044 _ZTv0_n24_N7android11IMemoryHeapD0Ev
000000000011bab4 g    DF .text	0000000000000010 _ZN2nn3err14SystemErrorArg18AttachErrorContextEPNS0_12ErrorContextE
000000000022d7f0 g    DF .text	0000000000000044 _ZN2nn3hid19GetTouchScreenStateILm15EEEvPNS0_16TouchScreenStateIXT_EEE
00000000007cb060  w   DO .rodata	0000000000000119 _ZTSN2nn2sf4cmif6client6detail13CmifProxyImplINS_2am7service18IAppletProxyCommonENS2_15CmifDomainProxyINS0_4hipc6client38Hipc2ClientSessionManagedProxyKindBaseINSA_18Hipc2ProxyKindBaseILNS9_6detail11MessageTypeE4EEEEEEENS0_30MemoryResourceAllocationPolicyENS6_19ILibraryAppletProxyEEE
0000000000368cb0 g    DF .text	00000000000001d8 _ZNSt3__14stodERKNS_12basic_stringIcNS_11char_traitsIcEENS_9allocatorIcEEEEPm
000000000018eda8 g    DF .text	00000000000004c0 _ZN2nn5audio22InitializeResampler6ChEPNS0_17ResamplerState6ChEj
00000000001c7ae4 g    DF .text	0000000000000090 _ZN2nn3mii14UpdateMiiImageEPiRKNS_4util4UuidEPS4_i
0000000000084dd8 g    DF .text	0000000000000068 _ZN2nn7nlibsdk4heap14TlsHeapCentral12MakeFreeSpanEm
000000000015fa6c g    DF .text	000000000000008c _ZN2nn4pctl6detail3ipc20GetServiceForWatcherEv
00000000001743d4  w   DF .text	0000000000000020 _ZN2nn2sf4cmif6client6detail13CmifProxyImplINS_8settings21ISystemSettingsServerENS0_4hipc6client18Hipc2ProxyKindBaseILNS7_6detail11MessageTypeE4EEENS0_25StatelessAllocationPolicyINS0_22ExpHeapStaticAllocatorILm16384ES6_EEEES6_E35_nn_sf_sync_SetNotificationSettingsERKNS5_6system20NotificationSettingsE
0000000000804030  w   DO .rodata	000000000000002a _ZTSN2nn3hid6detail23NfcXcdDeviceHandleStateE
0000000000239974 g    DF .text	0000000000000040 _ZN2nn8irsensor6detail15IrSensorSession20CheckFirmwareVersionERKNS0_14IrCameraHandleERKNS0_16PackedMcuVersionE
000000000011af68 g    DF .text	000000000000009c _ZN2nn3err23ShowNetworkServiceErrorENS0_9ErrorCodeERKNS_7account10UserHandleE
00000000003dc6b0 g    DF .text	0000000000000008 __fsetlocking
000000000001adec g    DF .text	00000000000000c8 _ZN2nn5image6detail4jpeg18jinit_huff_decoderEPNS2_22jpeg_decompress_structE
0000000000080a34 g    DF .text	0000000000000030 nnmem_nlib_get_native_last_error
00000000003e04f8 g    DF .text	0000000000000038 gcvt
0000000000091450 g    DF .text	0000000000000004 nnosTimedWaitInterruptEvent
00000000000a7a50  w   DF .text	0000000000000200 _ZN2nn2sf4hipc6client24Hipc2ClientCoreProcessorILNS1_6detail11MessageTypeE4ENS0_4cmif6detail14CoreMethodInfoINSt3__15tupleIJNS7_18OutRawArgumentInfoILm4ELm4ELl0EEENSB_ILm4ELm4ELl4EEENS7_17InRawArgumentInfoILm4ELm4ELl0EEENS7_18BufferArgumentInfoILi0ELi33ELm0EEEEEELm4ELm8ELb0EEESI_E7ProcessEPNS2_26Hipc2ClientProxyBaseObjectENS6_6client24OutRawClientArgumentTypeILm4ELm4EEESP_NSN_23InRawClientArgumentTypeILm4ELm4EvEENSN_24BufferClientArgumentTypeEj
000000000018911c g    DF .text	0000000000000014 _ZN2nn5audio14MemoryPoolInfo8FinalizeEv
00000000001cba50 g    DF .text	0000000000000090 _ZN2nn2vi17GetDisplayCmuModeEPNS0_7CmuModeEPKNS0_7DisplayE
000000000015c1ac g    DF .text	0000000000000008 _ZN2nn2oe20GetDefaultThemeColorEv
000000000096e6b0 g    DO .data	0000000000000018 _ZTIN7android19IGraphicBufferAllocE
000000000022c4c8 g    DF .text	000000000000005c _ZN2nn3hid12GetNpadStateEPNS0_17NpadJoyRightStateERKj
000000000022b1d4 g    DF .text	0000000000000044 _ZN2nn3hid14InitializeNpadEv
0000000000315118 g    DF .text	0000000000000050 _ZN2nn4gpio21SetValueForSleepStateEPNS0_14GpioPadSessionENS0_9GpioValueE
0000000000174840  w   DF .text	0000000000000020 _ZN2nn2sf4cmif6client6detail13CmifProxyImplINS_8settings21ISystemSettingsServerENS0_4hipc6client18Hipc2ProxyKindBaseILNS7_6detail11MessageTypeE4EEENS0_25StatelessAllocationPolicyINS0_22ExpHeapStaticAllocatorILm16384ES6_EEEES6_E34_nn_sf_sync_GetPrimaryAlbumStorageENS0_3OutIivEE
00000000003a7a00 g    DF .text	0000000000000000 strncmp
0000000000144ce4 g    DF .text	0000000000000020 _ZN2nn3ngc6detail14ContentsReader15UnmountContentsEv
000000000025a038 g    DF .text	0000000000000048 nvdcSetMode
00000000003c9910 g    DF .text	0000000000000180 expf
00000000000713ec g    DF .text	0000000000000044 nnmem_nlib_thread_attr_init
00000000000957cc g    DF .text	0000000000000134 _ZNK2nn2os6detail26ThreadManagerImplByHorizon13MapAliasStackEPKvS4_m
0000000000323e08 g    DF .text	0000000000000018 _ZNSt3__112__rs_defaultC1ERKS0_
00000000007ec100  w   DO .rodata	000000000000002f _ZTSN2nn5audio6detail26IAudioInManagerForDebuggerE
000000000023a814 g    DF .text	0000000000000068 _ZN2nn8irsensor6detail14SessionManager10GetSessionERKNS_6applet20AppletResourceUserIdE
000000000023176c  w   DF .text	000000000000010c _ZN2nn2sf4hipc6client24Hipc2ClientCoreProcessorILNS1_6detail11MessageTypeE4ENS0_4cmif6detail14CoreMethodInfoINSt3__15tupleIJNS7_18OutRawArgumentInfoILm16ELm1ELl0EEENS7_17InRawArgumentInfoILm4ELm4ELl0EEENSD_ILm4ELm4ELl4EEEEEELm8ELm16ELb0EEESG_E7ProcessEPNS2_26Hipc2ClientProxyBaseObjectENS6_6client24OutRawClientArgumentTypeILm16ELm1EEENSL_23InRawClientArgumentTypeILm4ELm4EvEESP_j
00000000003e7a28 g    DF .text	0000000000000024 __nnmusl_pthread_attr_setschedpolicy
00000000001a67fc g    DF .text	0000000000000010 _ZNK2nn5audio6server12VoiceContext18GetChannelResourceEi
00000000002300dc g    DF .text	000000000000004c _ZN2nn3hid15VibrationTargetC1Ev
0000000000396674 g    DF .text	0000000000000014 __cxa_deleted_virtual
00000000003c9a90 g    DF .text	000000000000001c expl
00000000007cd7a0  w   DO .rodata	00000000000000f1 _ZTSN2nn2sf6detail38ObjectImplFactoryWithStatefulAllocatorINS0_4cmif6client16CmifProxyFactoryINS_3apm8IManagerENS0_4hipc6client18Hipc2ProxyKindBaseILNS8_6detail11MessageTypeE4EEENS0_30MemoryResourceAllocationPolicyEE13ServiceObjectESE_E6ObjectE
0000000000823ef0  w   DO .rodata	000000000000002a _ZTSNSt3__114codecvt_bynameIwc11__mbstate_tEE
00000000000c2278 g    DF .text	0000000000000028 _ZN2nn7account13ProfileEditorD2Ev
0000000000264740 g    DF .text	0000000000000018 multimedia_Free
00000000001cbd10 g    DF .text	0000000000000070 _ZN2nn2vi17SetDisplayCmuLumaEPNS0_7DisplayEf
00000000001b7784 g    DF .text	0000000000000718 _ZN2nn3mii6detail19CompareCharInfoImpl15CompareCharInfoEPiiRKNS0_21ParamCharInfoAccessorES6_
00000000009534a0  w   DO .data	0000000000000048 _ZTIN2nn2sf4cmif6client6detail13CmifProxyImplINS_4nifm6detail14IStaticServiceENS2_15CmifDomainProxyINS0_4hipc6client38Hipc2ClientSessionManagedProxyKindBaseINSA_18Hipc2ProxyKindBaseILNS9_6detail11MessageTypeE4EEEEEEENS0_25StatelessAllocationPolicyINS0_22ExpHeapStaticAllocatorILm16384ENS6_21ServiceProviderClient30CreateNifmUserServiceObjectTagEEEEES7_EE
00000000001d28dc  w   DF .text	00000000000000ac _ZN2nn2sf4cmif6client6detail13CmifProxyImplINS_5visrv2sf19IManagerRootServiceENS0_4hipc6client18Hipc2ProxyKindBaseILNS8_6detail11MessageTypeE4EEENS0_30MemoryResourceAllocationPolicyES7_E50_nn_sf_sync_GetDisplayServiceWithProxyNameExchangeENS0_3OutINS0_13SharedPointerINS6_26IApplicationDisplayServiceEEEvEEjNS_2vi9ProxyNameE
00000000008050d0 g    DO .rodata	0000000000000020 _ZN2nn4util10BitFlagSetILi256ENS_3hid11KeyboardKeyEE4FlagILi71EE4MaskE
00000000002cfd74 g    DF .text	00000000000001ac _ZN7android7String89removeAllEPKc
000000000097b0f0 g    DO .data	0000000000000018 _ZTINSt3__117__widen_from_utf8ILm32EEE
0000000000180d10  w   DF .text	0000000000000074 _ZN2nn2sf6detail39ObjectImplFactoryWithStatelessAllocatorINS0_4cmif6client16CmifProxyFactoryINS_7timesrv6detail7service12ISystemClockENS4_15CmifDomainProxyINS0_4hipc6client38Hipc2ClientSessionManagedProxyKindBaseINSC_18Hipc2ProxyKindBaseILNSB_6detail11MessageTypeE4EEEEEEENS0_25StatelessAllocationPolicyINS0_22ExpHeapStaticAllocatorILm16384ENS_4time6detail7service21ServiceProviderClient30CreateTimeUserServiceObjectTagEEEEEE13ServiceObjectESS_E6Object7ReleaseEv
000000000019ed38 g    DF .text	00000000000000ac _ZN2nn5audio6server13CommandBuffer26GeneratePerformanceCommandEPKNS1_25PerformanceEntryAddressesENS0_22PerformanceCommandTypeEj
00000000000454dc g    DF .text	0000000000000014 _ZN2nn4diag26EnableDefaultAbortObserverEb
0000000000953ad0  w   DO .data	0000000000000018 _ZTIN2nn2sf4cmif6client16CmifProxyFactoryINS_4nifm6detail8IRequestENS2_15CmifDomainProxyINS0_4hipc6client38Hipc2ClientSessionManagedProxyKindBaseINS9_18Hipc2ProxyKindBaseILNS8_6detail11MessageTypeE4EEEEEEENS0_25StatelessAllocationPolicyINS0_22ExpHeapStaticAllocatorILm16384ENS5_21ServiceProviderClient30CreateNifmUserServiceObjectTagEEEEEE13ServiceObjectE
000000000006d9cc  w   DF .text	0000000000000168 _ZN2nn2sf4hipc6client24Hipc2ClientCoreProcessorILNS1_6detail11MessageTypeE4ENS0_4cmif6detail14CoreMethodInfoINSt3__15tupleIJNS7_18OutRawArgumentInfoILm4ELm4ELl0EEENS7_18BufferArgumentInfoILi0ELi5ELm0EEEEEELm0ELm4ELb0EEESF_E7ProcessEPNS2_26Hipc2ClientProxyBaseObjectENS6_6client24OutRawClientArgumentTypeILm4ELm4EEENSK_24BufferClientArgumentTypeEj
0000000000361acc  w   DF .text	000000000000002c _ZnwmSt11align_val_tRKSt9nothrow_t
000000000022e7ec g    DF .text	0000000000000050 _ZN2nn3hid6system29IsUsbFullKeyControllerEnabledEv
000000000036c0a8 g    DF .text	000000000000002c _ZNSt3__19strstreamD1Ev
0000000000070c10 g    DF .text	0000000000000014 _ZN2nn4lmem6detail21RestoreFrameHeapStateEPNS1_8HeapHeadERKNS0_14FrameHeapStateE
00000000001b5acc g    DF .text	0000000000000004 _ZN2nn2la32NifmToWifiWebAuthArgumentsWriterD1Ev
0000000000214eb4 g    DF .text	0000000000000040 _ZN2nn3hid6detail17AssertValidXpadIdERKNS0_11BasicXpadIdE
0000000000180e24  w   DF .text	0000000000000160 _ZN2nn2sf4cmif6client34CmifDomainProxyClientCoreProcessorINS0_4hipc6client38Hipc2ClientSessionManagedProxyKindBaseINS5_18Hipc2ProxyKindBaseILNS4_6detail11MessageTypeE4EEEEENS1_6detail14CoreMethodInfoINSt3__15tupleIJNSC_18OutRawArgumentInfoILm32ELm8ELl0EEEEEELm0ELm32ELb0EEESI_E7ProcessEPNS2_23CmifDomainClientMessageISB_E15ProxyBaseObjectENS2_24OutRawClientArgumentTypeILm32ELm8EEEj
000000000025ccb8 g    DF .text	00000000000000b4 NvOsAllocLeak
000000000023518c  w   DF .text	0000000000000010 _ZN2nn2sf4cmif6client6detail13CmifProxyImplINS_3hid16IHidSystemServerENS0_4hipc6client18Hipc2ProxyKindBaseILNS7_6detail11MessageTypeE4EEENS0_25StatelessAllocationPolicyINS0_22ExpHeapStaticAllocatorILm16384ENS5_6detail15HidSystemServerEEEEES6_E17GetCmifBaseObjectEv
0000000000946040  w   DO .data	0000000000000018 _ZTIN2nn2sf4hipc6server25HipcServerSessionManagerTINS0_4cmif6server20CmifServerObjectInfoEEE
000000000016cbf4 g    DF .text	0000000000000070 _ZN2nn8settings6detail23GetDataDeletionSettingsEPNS0_6system20DataDeletionSettingsE
00000000003de7dc g    DF .text	00000000000000a0 ungetc
00000000003c2ac4 g    DF .text	0000000000000010 iswdigit
00000000001a293c g    DF .text	0000000000000080 _ZNK2nn5audio6server14EffectInfoBase15GetSingleBufferENS2_5IndexE
0000000000017d4c g    DF .text	000000000000005c _ZN2nn5image6detail4jpeg19jpeg_input_completeEPNS2_22jpeg_decompress_structE
0000000000186b78 g    DF .text	000000000000004c _ZN2nn5audio14SetDelayInGainEPNS0_9DelayTypeEf
00000000001c7cdc g    DF .text	0000000000000080 _ZN2nn3mii23GetUpdateMiiImageResultEPiNS_6applet13StorageHandleE
00000000003d1cd8 g    DF .text	0000000000000014 ffsl
0000000000038804 g    DF .text	000000000000002c nnutilZlib_inflateUndermine
00000000007d7b00  w   DO .rodata	00000000000000ff _ZTSN2nn2sf4cmif6client6detail9CmifProxyINS_7friends6detail3ipc14IFriendServiceENS2_15CmifDomainProxyINS0_4hipc6client38Hipc2ClientSessionManagedProxyKindBaseINSB_18Hipc2ProxyKindBaseILNSA_6detail11MessageTypeE4EEEEEEENS0_30MemoryResourceAllocationPolicyEvEE
0000000000133734 g    DF .text	0000000000000068 _ZN2nn4htcs6detail6listenENS_2sf13SharedPointerINS_3tma7ISocketEEEiRi
0000000000092edc g    DF .text	0000000000000340 _ZN2nn2os6detail13MultiWaitImpl19InternalWaitAnyImplEbNS_8TimeSpanE
00000000001369fc g    DF .text	0000000000000030 _ZN2nn2lm14SetDestinationEj
000000000009bce8 g    DF .text	0000000000000050 _ZN2nn2sf4hipc6detail25HipcMessageBufferAccessor10SetReceiveEimmj
000000000014b2d4 g    DF .text	0000000000000094 _ZN2nn3ngc6detail12OutputStream14GetWorkBuffer_Ev
000000000021f008 g    DF .text	0000000000000190 _ZN2nn3hid6detail7Session8ActivateEv
000000000094e9a0  w   DO .data	0000000000000018 _ZTIN2nn2sf4cmif6client16CmifProxyFactoryINS_3apm8IManagerENS0_4hipc6client18Hipc2ProxyKindBaseILNS6_6detail11MessageTypeE4EEENS0_30MemoryResourceAllocationPolicyEE13ServiceObjectE
0000000000255d88 g    DF .text	0000000000000050 _ZNK2nn3web20SharePageReturnValue18GetPostServiceNameEv
00000000001873a4 g    DF .text	0000000000000120 _ZN2nn5audio9AddReverbEPNS0_19AudioRendererConfigEPNS0_10ReverbTypeEPvmPNS0_10SubMixTypeEi
000000000019c4b8 g    DF .text	000000000000003c _ZN2nn5audio6server24AudioRendererManagerImplD1Ev
00000000001ceac0  w   DF .text	0000000000000008 _ZThn16_N2nn2sf4cmif6client6detail13CmifProxyImplINS_5visrv2sf21ISystemDisplayServiceENS0_4hipc6client18Hipc2ProxyKindBaseILNS8_6detail11MessageTypeE4EEENS0_30MemoryResourceAllocationPolicyES7_E17GetCmifBaseObjectEv
00000000001b1ff0 g    DF .text	0000000000000138 _ZN2nn2ec6detail30ShowShopConsumableItemListImplENS1_10LaunchModeENS_13ApplicationIdERKNS_7account3UidENS0_8SourceIdE
00000000002509a8 g    DF .text	00000000000000e4 _ZN2nn3ldn6detail30CreateUserServiceCreatorByHipcEv
0000000000217860 g    DF .text	0000000000000118 _ZN2nn3hid6detail19GetInputSourceStateEPNS0_6system16InputSourceStateERKNS_4util10BitFlagSetILi32ENS2_13InputSourceIdEEE
0000000000365a28  w   DF .text	0000000000000034 _ZNSt3__112basic_stringIwNS_11char_traitsIwEENS_9allocatorIwEEE6appendEPKw
0000000000152914  w   DF .text	0000000000000024 _ZN2nn2sf4cmif6client6detail13CmifProxyImplINS_4nifm6detail8IRequestENS2_15CmifDomainProxyINS0_4hipc6client38Hipc2ClientSessionManagedProxyKindBaseINSA_18Hipc2ProxyKindBaseILNS9_6detail11MessageTypeE4EEEEEEENS0_25StatelessAllocationPolicyINS0_22ExpHeapStaticAllocatorILm16384ENS6_21ServiceProviderClient30CreateNifmUserServiceObjectTagEEEEES7_E25_nn_sf_sync_SetRejectableEb
00000000000b90c8  w   DF .text	00000000000001e4 _ZN2nn2sf4cmif6client34CmifDomainProxyClientCoreProcessorINS0_4hipc6client38Hipc2ClientSessionManagedProxyKindBaseINS5_18Hipc2ProxyKindBaseILNS4_6detail11MessageTypeE4EEEEENS1_6detail14CoreMethodInfoINSt3__15tupleIJNSC_17InRawArgumentInfoILm16ELm8ELl0EEENSG_ILm8ELm8ELl16EEENSC_18BufferArgumentInfoILi0ELi5ELm0EEEEEELm24ELm0ELb0EEESL_E7ProcessEPNS2_23CmifDomainClientMessageISB_E15ProxyBaseObjectENS2_23InRawClientArgumentTypeILm16ELm8EvEENSS_ILm8ELm8EvEENS2_24BufferClientArgumentTypeEj
0000000000234894  w   DF .text	0000000000000024 _ZN2nn2sf4cmif6client6detail13CmifProxyImplINS_3hid16IHidSystemServerENS0_4hipc6client18Hipc2ProxyKindBaseILNS7_6detail11MessageTypeE4EEENS0_25StatelessAllocationPolicyINS0_22ExpHeapStaticAllocatorILm16384ENS5_6detail15HidSystemServerEEEEES6_E38_nn_sf_sync_GetXcdHandleForNpadWithNfcENS0_3OutImvEEjNS_6applet20AppletResourceUserIdE
000000000036d620 g    DF .text	0000000000000004 _ZNSt3__130__libcpp_thread_get_current_idEv
00000000003d1bf4 g    DF .text	00000000000000cc dirname
00000000002cfa64 g    DF .text	0000000000000178 _ZN7android7String812appendFormatEPKcz
00000000003c3d74  w   DF .text	000000000000005c duplocale
000000000008d00c g    DF .text	0000000000000008 _ZN2nn2os23SignalConditionVariableEPNS0_21ConditionVariableTypeE
00000000000b7510  w   DF .text	0000000000000010 _ZN2nn2sf4cmif6client6detail13CmifProxyImplINS_7account4baas18IGuestLoginRequestENS2_15CmifDomainProxyINS0_4hipc6client38Hipc2ClientSessionManagedProxyKindBaseINSA_18Hipc2ProxyKindBaseILNS9_6detail11MessageTypeE4EEEEEEENS0_25StatelessAllocationPolicyINS0_22ExpHeapStaticAllocatorILm2048ENS5_6detail12ObjectHolder24ObjectHolderAllocatorTagEEEEES7_E17GetCmifBaseObjectEv
000000000026b3e8 g    DF .text	0000000000000120 NvRmSurfaceComputeSecondFieldOffset
0000000000075c38 g    DF .text	0000000000000080 nnmem_nlib_swapendian_32_generic
00000000009534f0  w   DO .data	0000000000000018 _ZTIN2nn2sf4cmif6client6detail9CmifProxyINS_4nifm6detail14IStaticServiceENS2_15CmifDomainProxyINS0_4hipc6client38Hipc2ClientSessionManagedProxyKindBaseINSA_18Hipc2ProxyKindBaseILNS9_6detail11MessageTypeE4EEEEEEENS0_25StatelessAllocationPolicyINS0_22ExpHeapStaticAllocatorILm16384ENS6_21ServiceProviderClient30CreateNifmUserServiceObjectTagEEEEEvEE
0000000000244554  w   DF .text	0000000000000024 _ZN22nerd_gillette_internal5otete11ImageCodec213DecodeInPlaceIhEEbRKNS_15StaticImageViewIT_EERNS0_14InputBitStreamEf
00000000001b7e9c g    DF .text	0000000000000008 _ZNK2nn3mii6detail11CoreDataRaw6VerifyEv
000000000095b988  w   DO .data	0000000000000020 _ZTVN2nn3hid6detail13BasicXpadLifoE
00000000000b449c g    DF .text	0000000000000014 _ZN2nn7account11Declaration4SwapERS1_
00000000000c80f0  w   DF .text	0000000000000020 _ZN2nn2sf4cmif6client6detail13CmifProxyImplINS_2am7service18IDisplayControllerENS2_15CmifDomainProxyINS0_4hipc6client38Hipc2ClientSessionManagedProxyKindBaseINSA_18Hipc2ProxyKindBaseILNS9_6detail11MessageTypeE4EEEEEEENS0_30MemoryResourceAllocationPolicyES7_E46_nn_sf_sync_AcquireCallerAppletCaptureBufferExENS0_3OutIbvEENSK_INS0_12NativeHandleEvEE
00000000003341b0 g    DF .text	0000000000000004 _ZNSt3__17codecvtIDic11__mbstate_tED1Ev
00000000003e7418 g    DF .text	0000000000000098 __pthread_tsd_run_dtors
00000000002d21e4 g    DF .text	00000000000000a8 _ZN7android10VectorImpl14insertVectorAtERKS0_m
00000000000bb3c4  w   DF .text	0000000000000020 _ZN2nn2sf4cmif6client6detail13CmifProxyImplINS_7account4baas24IManagerForSystemServiceENS2_15CmifDomainProxyINS0_4hipc6client38Hipc2ClientSessionManagedProxyKindBaseINSA_18Hipc2ProxyKindBaseILNS9_6detail11MessageTypeE4EEEEEEENS0_25StatelessAllocationPolicyINS0_22ExpHeapStaticAllocatorILm2048ENS5_6detail12ObjectHolder24ObjectHolderAllocatorTagEEEEENS6_14IAdministratorEE32_nn_sf_sync_GetNintendoAccountIdENS0_3OutINS5_17NintendoAccountIdEvEE
000000000029538c g    DF .text	0000000000000060 _ZTv0_n24_N7android7BBinderD1Ev
00000000000bb770  w   DF .text	0000000000000090 _ZN2nn2sf4cmif6client6detail13CmifProxyImplINS_7account4baas14IAdministratorENS2_15CmifDomainProxyINS0_4hipc6client38Hipc2ClientSessionManagedProxyKindBaseINSA_18Hipc2ProxyKindBaseILNS9_6detail11MessageTypeE4EEEEEEENS0_25StatelessAllocationPolicyINS0_22ExpHeapStaticAllocatorILm2048ENS5_6detail12ObjectHolder24ObjectHolderAllocatorTagEEEEES7_E35_nn_sf_sync_SynchronizeProfileAsyncENS0_3OutINS0_13SharedPointerINSK_13IAsyncContextEEEvEE
00000000000d3370 g    DF .text	0000000000000144 _ZN2nn6applet37WaitPopFromInteractiveOutChannelEventENS0_19LibraryAppletHandleE
00000000003a7ca4 g    DF .text	0000000000000000 setjmp
0000000000091f08 g    DF .text	000000000000007c _ZN2nn2os6detail13ThreadManager26SetInitialThreadNameUnsafeEPNS0_10ThreadTypeE
00000000000d5008 g    DF .text	000000000000013c _ZN2nn4bcat25MountDeliveryCacheStorageEv
000000000015214c  w   DF .text	0000000000000034 _ZN2nn2sf4cmif6client6detail13CmifProxyImplINS_4nifm6detail15IGeneralServiceENS2_15CmifDomainProxyINS0_4hipc6client38Hipc2ClientSessionManagedProxyKindBaseINSA_18Hipc2ProxyKindBaseILNS9_6detail11MessageTypeE4EEEEEEENS0_25StatelessAllocationPolicyINS0_22ExpHeapStaticAllocatorILm16384ENS6_21ServiceProviderClient30CreateNifmUserServiceObjectTagEEEEES7_E30_nn_sf_sync_SetExclusiveClientENS5_8ClientIdE
00000000001ca2d0 g    DF .text	0000000000000004 _ZN2nn5swkbd6detail18InlineKeyboardImplD1Ev
00000000002ce5b8 g    DF .text	0000000000000104 _ZN7android8String166appendERKS0_
0000000000360e5c g    DF .text	0000000000000030 _ZNSt3__119__shared_weak_count14__release_weakEv
000000000036ae6c g    DF .text	00000000000001cc _ZNSt3__110to_wstringEd
000000000006fc70 g    DF .text	0000000000000004 _ZN2nn4lmem6detail12DumpHeapHeadEPKNS1_8HeapHeadE
000000000036b038 g    DF .text	00000000000001c4 _ZNSt3__110to_wstringEe
000000000036ac9c g    DF .text	00000000000001d0 _ZNSt3__110to_wstringEf
00000000003b8fa0 g    DF .text	0000000000000160 __memmove_fast
00000000000c7ec0  w   DF .text	0000000000000020 _ZN2nn2sf4cmif6client6detail13CmifProxyImplINS_2am7service18IDisplayControllerENS2_15CmifDomainProxyINS0_4hipc6client38Hipc2ClientSessionManagedProxyKindBaseINSA_18Hipc2ProxyKindBaseILNS9_6detail11MessageTypeE4EEEEEEENS0_30MemoryResourceAllocationPolicyES7_E44_nn_sf_sync_UpdateLastForegroundCaptureImageEv
00000000001da5c0 g    DF .text	0000000000000004 _ZN2nn6fontll18ScalableFontEngine15AcquireGlyphmapEjt
00000000007c93a0  w   DO .rodata	0000000000000150 _ZTSN2nn2sf6detail38ObjectImplFactoryWithStatefulAllocatorINS0_4cmif6client16CmifProxyFactoryINS_2am7service24ITransferStorageAccessorENS4_15CmifDomainProxyINS0_4hipc6client38Hipc2ClientSessionManagedProxyKindBaseINSB_18Hipc2ProxyKindBaseILNSA_6detail11MessageTypeE4EEEEEEENS0_30MemoryResourceAllocationPolicyEE13ServiceObjectESJ_E6ObjectE
00000000007f6196 g    DO .rodata	0000000000000008 _ZN2nn3mii6detail18Ver3HairColorTableE
000000000004d038 g    DF .text	000000000000007c _ZN2nn2fs6detail12FileAccessor7SetSizeEl
000000000036a2ac g    DF .text	00000000000001a8 _ZNSt3__110to_wstringEi
0000000000170000 g    DF .text	0000000000000070 _ZN2nn8settings6detail20SetAppletLaunchFlagsERKNS_4util10BitFlagSetILi32ENS0_6system16AppletLaunchFlagEEE
0000000000366bf8  w   DF .text	000000000000007c _ZNKSt3__112basic_stringIwNS_11char_traitsIwEENS_9allocatorIwEEE4copyEPwmm
000000000036a454 g    DF .text	00000000000001a8 _ZNSt3__110to_wstringEj
000000000036a5fc g    DF .text	00000000000001a8 _ZNSt3__110to_wstringEl
0000000000065c38  w   DF .text	00000000000000e8 _ZN2nn2fs26ReadOnlyFileSystemTemplateINSt3__110unique_ptrINS0_3fsa11IFileSystemENS2_14default_deleteIS5_EEEEE10DoOpenFileEPNS3_INS4_5IFileENS6_ISA_EEEEPKcNS0_8OpenModeE
000000000036a7a4 g    DF .text	00000000000001a8 _ZNSt3__110to_wstringEm
0000000000095d00 g    DF .text	0000000000000054 _ZNK2nn2os6detail26ThreadManagerImplByHorizon18GetCurrentPriorityEPKNS0_10ThreadTypeE
00000000007c45f0  w   DO .rodata	0000000000000116 _ZTSN2nn2sf4cmif6client16CmifProxyFactoryINS_2am7service30IAllSystemAppletProxiesServiceENS2_15CmifDomainProxyINS0_4hipc6client38Hipc2ClientSessionManagedProxyKindBaseINS9_18Hipc2ProxyKindBaseILNS8_6detail11MessageTypeE4EEEEEEENS0_30MemoryResourceAllocationPolicyEE13ServiceObjectE
00000000001605b4  w   DF .text	0000000000000030 _ZN2nn2sf4cmif6client6detail13CmifProxyImplINS_4pctl6detail3ipc23IParentalControlServiceENS2_15CmifDomainProxyINS0_4hipc6client38Hipc2ClientSessionManagedProxyKindBaseINSB_18Hipc2ProxyKindBaseILNSA_6detail11MessageTypeE4EEEEEEENS0_30MemoryResourceAllocationPolicyES8_E46_nn_sf_sync_ConfirmLaunchApplicationPermissionENS_3ncm13ApplicationIdERKNS0_7InArrayIaEEb
000000000004aa14 g    DF .text	00000000000000b4 _ZN2nn2fs11RomPathTool10PathParser20GetNextDirectoryNameEPNS1_12RomEntryNameE
00000000002358cc  w   DF .text	0000000000000118 _ZN2nn2sf4hipc6client24Hipc2ClientCoreProcessorILNS1_6detail11MessageTypeE4ENS0_4cmif6detail14CoreMethodInfoINSt3__15tupleIJNS7_17InRawArgumentInfoILm4ELm4ELl0EEENS7_18OutRawArgumentInfoILm8ELm8ELl0EEENSB_ILm8ELm8ELl8EEEEEELm16ELm8ELb1EEESG_E7ProcessEPNS2_26Hipc2ClientProxyBaseObjectENS6_6client23InRawClientArgumentTypeILm4ELm4EvEENSL_24OutRawClientArgumentTypeILm8ELm8EEENSM_ILm8ELm8EvEEj
00000000002a2ec4 g    DF .text	0000000000000090 _ZN7android21defaultServiceManagerEv
0000000000956330  w   DO .data	0000000000000038 _ZTIN2nn2sf6detail39ObjectImplFactoryWithStatelessAllocatorINS0_4cmif6client16CmifProxyFactoryINS_7timesrv6detail7service16ITimeZoneServiceENS4_15CmifDomainProxyINS0_4hipc6client38Hipc2ClientSessionManagedProxyKindBaseINSC_18Hipc2ProxyKindBaseILNSB_6detail11MessageTypeE4EEEEEEENS0_25StatelessAllocationPolicyINS0_22ExpHeapStaticAllocatorILm16384ENS_4time6detail7service21ServiceProviderClient30CreateTimeUserServiceObjectTagEEEEEE13ServiceObjectESS_E6ObjectE
000000000095bd80  w   DO .data	0000000000000018 _ZTIN2nn3hid6detail17CaptureButtonLifoE
0000000000822dce g    DO .rodata	0000000000000002 _ZNSt3__110ctype_base5printE
0000000000152a38  w   DF .text	0000000000000024 _ZN2nn2sf4cmif6client6detail13CmifProxyImplINS_4nifm6detail8IRequestENS2_15CmifDomainProxyINS0_4hipc6client38Hipc2ClientSessionManagedProxyKindBaseINSA_18Hipc2ProxyKindBaseILNS9_6detail11MessageTypeE4EEEEEEENS0_25StatelessAllocationPolicyINS0_22ExpHeapStaticAllocatorILm16384ENS6_21ServiceProviderClient30CreateNifmUserServiceObjectTagEEEEES7_E36_nn_sf_sync_SetRequirementByRevisionEj
0000000000068268 g    DF .text	000000000000003c _ZN2nn2fs18CreateCacheStorageENS_3ncm13ApplicationIdEmllj
000000000013e558 g    DF .text	0000000000000068 _ZN2nn3nfp10FlushDebugERKNS0_12DeviceHandleE
00000000001c32e8 g    DF .text	0000000000000010 _ZN2nn3mii6detail16Ver3StoreDataRaw12SetHairColorEi
0000000000979498  w   DO .data	0000000000000080 _ZTVNSt3__115basic_streambufIwNS_11char_traitsIwEEEE
000000000008ee5c g    DF .text	0000000000000130 _ZN2nn2os24TimedReceiveMessageQueueEPmPNS0_16MessageQueueTypeENS_8TimeSpanE
00000000002240e4 g    DF .text	0000000000000090 _ZN2nn3hid6detail28SetTouchScreenAutoPilotStateILm16EEENS_6ResultERKNS0_5debug25TouchScreenAutoPilotStateIXT_EEE
000000000036a94c g    DF .text	00000000000001a8 _ZNSt3__110to_wstringEx
000000000036aaf4 g    DF .text	00000000000001a8 _ZNSt3__110to_wstringEy
00000000001c5b54 g    DF .text	000000000000003c _ZN2nn3mii15PrivateDatabase3GetEPiPNS0_9StoreDataEii
000000000097d360 g    DO .data	0000000000000028 _ZTVNSt3__112system_errorE
000000000009ff64 g    DF .text	0000000000000040 _ZN2nn2sf4impl6detail21ServiceObjectImplBase12AddReferenceEv
000000000035ad8c g    DF .text	0000000000000048 _ZNSt3__115numpunct_bynameIcED0Ev
000000000008d2ac g    DF .text	0000000000000058 _ZN2nn2os15InitializeEventEPNS0_9EventTypeEbNS0_14EventClearModeE
0000000000197ecc g    DF .text	0000000000000004 _ZN2nn5audio16StartCpuProfilerEv
00000000000d15f0  w   DF .text	0000000000000004 _ZNK2nn2sf13SharedPointerINS_3apm8ISessionEE19FunctionForBoolTypeEv
00000000007e9090 g    DO .rodata	0000000000000008 _ZN2nn5audio13AudioInBuffer16AddressAlignmentE
000000000025d23c g    DF .text	0000000000000058 NvOsGetConfigString
0000000000091470 g    DF .text	0000000000000004 nnosTimedSendMessageQueue
00000000007c7230  w   DO .rodata	0000000000000107 _ZTSN2nn2sf4cmif6client16CmifProxyFactoryINS_2am7service15IDebugFunctionsENS2_15CmifDomainProxyINS0_4hipc6client38Hipc2ClientSessionManagedProxyKindBaseINS9_18Hipc2ProxyKindBaseILNS8_6detail11MessageTypeE4EEEEEEENS0_30MemoryResourceAllocationPolicyEE13ServiceObjectE
00000000000477c0 g    DF .text	000000000000003c _ZN2nn2fs24HierarchicalRomFileTable8FinalizeEv
0000000000122470 g    DF .text	0000000000000008 _ZNK2nn7friends13FriendRequest31GetExternalApplicationCatalogIdEv
000000000026b274 g    DF .text	0000000000000008 NvRmSurfaceGetDefaultLayout
0000000000158960  w   DF .text	0000000000000018 _ZN2nn2sf13SharedPointerINS_3nsd6detail8IManagerEED2Ev
00000000002581a8 g    DF .text	0000000000000064 nvcecSetEventCb
0000000000089a1c g    DF .text	0000000000000010 _ZN2nn7nlibsdk4heap10CachedHeap15ReleaseAllCacheEv
00000000001a3074 g    DF .text	000000000000000c _ZN2nn5audio6server14MemoryPoolInfo13SetCpuAddressENS0_7CpuAddrEm
00000000002ceeac g    DF .text	00000000000000a4 _ZN7android7String8C1EPKcm
000000000018ba14 g    DF .text	000000000000002c _ZN2nn5audio23SplitterDestinationDataC2Ei
000000000017ee08 g    DF .text	0000000000000008 _ZNK2nn4time13ClockSnapshot38GetStandardUserSystemClockCalendarTimeEv
0000000000270308 g    DF .text	0000000000000190 NvRmMemReadStrided
00000000000b7430  w   DF .text	0000000000000008 _ZN2nn2sf4cmif6client6detail13CmifProxyImplINS_7account4baas18IGuestLoginRequestENS2_15CmifDomainProxyINS0_4hipc6client38Hipc2ClientSessionManagedProxyKindBaseINSA_18Hipc2ProxyKindBaseILNS9_6detail11MessageTypeE4EEEEEEENS0_25StatelessAllocationPolicyINS0_22ExpHeapStaticAllocatorILm2048ENS5_6detail12ObjectHolder24ObjectHolderAllocatorTagEEEEES7_E12GetProxyInfoEv
0000000000821440  w   DO .rodata	000000000000001f _ZTSN2nn3pcv19IArbitrationManagerE
000000000011b65c g    DF .text	0000000000000014 _ZN2nn3err18ErrorResultVariantC2ERKNS0_9ErrorCodeE
00000000002b3400 g    DF .text	000000000000002c _ZN7android12ConsumerBaseD1Ev
000000000097bb50  w   DO .data	0000000000000048 _ZTINSt3__18time_getIwNS_19istreambuf_iteratorIwNS_11char_traitsIwEEEEEE
00000000000d2dcc g    DF .text	0000000000000010 _ZN2nn6applet31RequestExitLibraryAppletAndWaitENS0_19LibraryAppletHandleE
00000000001bcf6c g    DF .text	0000000000000030 _ZN2nn3mii6detail11UtilityImpl15GetRandomUint32Ej
0000000000274ad8 g    DF .text	0000000000000008 NvRmChannelSetSyncPointName
0000000000060610 g    DF .text	0000000000000170 _ZN2nn2fs6detail30FileSystemServiceObjectAdapter15DoOpenDirectoryEPNSt3__110unique_ptrINS0_3fsa10IDirectoryENS3_14default_deleteIS6_EEEEPKcNS0_17OpenDirectoryModeE
00000000007ce320  w   DO .rodata	00000000000000ad _ZTSN2nn2sf4cmif6client6detail9CmifProxyINS_3apm18IManagerPrivilegedENS0_4hipc6client18Hipc2ProxyKindBaseILNS7_6detail11MessageTypeE4EEENS0_30MemoryResourceAllocationPolicyEvEE
000000000016a548 g    DF .text	0000000000000044 _ZN2nn8settings6system39SetConsoleSixAxisSensorAccelerationBiasERKNS1_36ConsoleSixAxisSensorAccelerationBiasE
000000000017a164 g    DF .text	0000000000000024 nnsslConnectionPeek
00000000003e2624 g    DF .text	0000000000000024 strncpy
0000000000341db8  w   DF .text	000000000000005c _ZNKSt3__18time_getIcNS_19istreambuf_iteratorIcNS_11char_traitsIcEEEEE18__get_day_year_numERiRS4_S4_RjRKNS_5ctypeIcEE
00000000002cc320 g    DF .text	0000000000000018 _ZN7android6Region7andSelfERKS0_ii
00000000000042d8 g    DF .text	0000000000000038 _ZN2nn6crypto6detail7Md5Impl10InitializeEv
00000000007cd760  w   DO .rodata	000000000000002b _ZTSN2nn2am7service24IApplicationProxyServiceE
0000000000126324  w   DF .text	0000000000000024 _ZN2nn2sf4cmif6client6detail13CmifProxyImplINS_7friends6detail3ipc14IFriendServiceENS2_15CmifDomainProxyINS0_4hipc6client38Hipc2ClientSessionManagedProxyKindBaseINSB_18Hipc2ProxyKindBaseILNSA_6detail11MessageTypeE4EEEEEEENS0_30MemoryResourceAllocationPolicyES8_E35_nn_sf_sync_ChangePlayLogPermissionERKNS_7account3UidEi
00000000001265e0  w   DF .text	0000000000000224 _ZN2nn2sf4cmif6client34CmifDomainProxyClientCoreProcessorINS0_4hipc6client38Hipc2ClientSessionManagedProxyKindBaseINS5_18Hipc2ProxyKindBaseILNS4_6detail11MessageTypeE4EEEEENS1_6detail14CoreMethodInfoINSt3__15tupleIJNSC_18OutRawArgumentInfoILm4ELm4ELl0EEENSC_18BufferArgumentInfoILi0ELi6ELm0EEENSC_17InRawArgumentInfoILm16ELm8ELl8EEENSK_ILm4ELm4ELl0EEENSK_ILm16ELm8ELl24EEENSK_ILm8ELm8ELl40EEEEEELm48ELm4ELb1EEESP_E7ProcessEPNS2_23CmifDomainClientMessageISB_E15ProxyBaseObjectENS2_24OutRawClientArgumentTypeILm4ELm4EEENS2_24BufferClientArgumentTypeENS2_23InRawClientArgumentTypeILm16ELm8EvEENSZ_ILm4ELm4EvEES10_NSZ_ILm8ELm8EvEEj
00000000001a7bb8 g    DF .text	0000000000000004 _ZN2nn5audio6common11DumpCommandEPKNS0_25CircularBufferSinkCommandE
000000000023220c  w   DF .text	0000000000000024 _ZN2nn2sf4cmif6client6detail13CmifProxyImplINS_3hid10IHidServerENS0_4hipc6client18Hipc2ProxyKindBaseILNS7_6detail11MessageTypeE4EEENS0_25StatelessAllocationPolicyINS0_22ExpHeapStaticAllocatorILm16384ENS5_6detail9HidServerEEEEES6_E40_nn_sf_sync_ResetAccelerometerParametersENS_6applet20AppletResourceUserIdENS5_19SixAxisSensorHandleE
00000000003e7a4c g    DF .text	000000000000001c __nnmusl_pthread_attr_setscope
000000000028667c g    DF .text	0000000000000040 NvRmGpuLibClose
00000000000a1974 g    DF .text	0000000000000004 _ZN2nn6socket8InetNtopEiPKvPcj
0000000000948120  w   DO .data	0000000000000038 _ZTIN2nn2sf6detail39ObjectImplFactoryWithStatelessAllocatorINS0_4cmif6client16CmifProxyFactoryINS_7account7profile14IProfileEditorENS4_15CmifDomainProxyINS0_4hipc6client38Hipc2ClientSessionManagedProxyKindBaseINSB_18Hipc2ProxyKindBaseILNSA_6detail11MessageTypeE4EEEEEEENS0_25StatelessAllocationPolicyINS0_22ExpHeapStaticAllocatorILm2048ENS6_6detail12ObjectHolder24ObjectHolderAllocatorTagEEEEEE13ServiceObjectESP_E6ObjectE
0000000000254188 g    DF .text	0000000000000090 _ZN2nn3web36ShowOfflineHtmlPageArgWithPlayReport20SetPlayReportEnabledEb
00000000001bcff8 g    DF .text	000000000000002c _ZN2nn3mii6detail11UtilityImpl15GetRandomUint32Ev
00000000000b62fc  w   DF .text	0000000000000020 _ZN2nn2sf4cmif6client6detail13CmifProxyImplINS_7account6detail13IAsyncContextENS2_15CmifDomainProxyINS0_4hipc6client38Hipc2ClientSessionManagedProxyKindBaseINSA_18Hipc2ProxyKindBaseILNS9_6detail11MessageTypeE4EEEEEEENS0_25StatelessAllocationPolicyINS0_22ExpHeapStaticAllocatorILm2048ENS6_12ObjectHolder24ObjectHolderAllocatorTagEEEEES7_E26_nn_sf_sync_GetSystemEventENS0_3OutINS0_12NativeHandleEvEE
00000000002a0434 g    DF .text	0000000000000038 _ZNK7android6Parcel9readInt64EPl
0000000000150ce8 g    DF .text	0000000000000028 _ZN2nn4nifm6detail13RequestClient13SetRejectableEb
000000000015e1f8 g    DF .text	0000000000000078 _ZN2nn4pctl22GetSettingsLastUpdatedEPNS_4time9PosixTimeE
00000000001cc96c g    DF .text	00000000000003b0 _ZN2nn2vi8FinalizeEv
000000000007e360 g    DF .text	00000000000000a4 nnmem_nlib_strto_double
00000000000ae134 g    DF .text	0000000000000018 _ZN2nn6socket8resolver3tls6Client10InitializeEv
000000000014d2a4 g    DF .text	0000000000000030 _ZNK2nn3ngc6detail3Set7MemSizeEv
00000000007adc54 g    DO .rodata	0000000000000004 _ZN2nn4util8Color4u811ConstantRedE
000000000011d8d8 g    DF .text	00000000000000c0 _ZN2nn7friends29DeclareCloseOnlinePlaySessionERKNS_7account3UidE
00000000001743f4  w   DF .text	0000000000000030 _ZN2nn2sf4cmif6client6detail13CmifProxyImplINS_8settings21ISystemSettingsServerENS0_4hipc6client18Hipc2ProxyKindBaseILNS7_6detail11MessageTypeE4EEENS0_25StatelessAllocationPolicyINS0_22ExpHeapStaticAllocatorILm16384ES6_EEEES6_E42_nn_sf_sync_GetAccountNotificationSettingsENS0_3OutIivEERKNS0_8OutArrayINS5_6system27AccountNotificationSettingsEEE
00000000000d8768  w   DF .text	00000000000000ac _ZN2nn2sf4cmif6client32GetClientProcessorWithObjectBaseINS2_15CmifDomainProxyINS0_4hipc6client38Hipc2ClientSessionManagedProxyKindBaseINS6_18Hipc2ProxyKindBaseILNS5_6detail11MessageTypeE4EEEEEEEE14ObjectAssignerINS0_30MemoryResourceAllocationPolicyENS_14MemoryResourceEE14AllocateObjectINS_4bcat6detail3ipc29IDeliveryCacheProgressServiceEEEvi
000000000024bf64 g    DF .text	000000000000000c _ZN2nn3kpr6detail25InitializeKeyCodeComposerEPNS1_22KeyCodeComposerStorageE
000000000019d1ac  w   DF .text	000000000000001c _ZN2nn2sf4impl6detail17ImplTemplateBaseTINS_5audio6detail12IAudioDeviceES6_NS0_6detail18EmplacedImplHolderINS4_6server24AudioRendererManagerImpl15AudioDeviceImplEEESC_S6_E38_nn_sf_sync_QueryAudioDeviceInputEventENS0_3OutINS0_12NativeHandleEvEE
00000000001b7748 g    DF .text	0000000000000010 _ZN2nn3mii6detail21GetMouthColorFromVer3ENS1_14Ver3MouthColorE
0000000000117e84 g    DF .text	000000000000001c _ZN2nn5codec17GetOpusBitRateMaxEi
00000000008054b0 g    DO .rodata	0000000000000020 _ZN2nn4util10BitFlagSetILi256ENS_3hid11KeyboardKeyEE4FlagILi102EE4MaskE
000000000018d78c g    DF .text	0000000000000014 _ZNK2nn5audio6common10NodeStates11ResultBeginEv
00000000001bc810 g    DF .text	0000000000000004 _ZNK2nn3mii6detail12StoreDataRaw11GetEyeColorEv
00000000001ba164 g    DF .text	0000000000000048 _ZN2nn3mii6detail11CoreDataRaw9SetGlassYEi
00000000002cf12c g    DF .text	000000000000002c _ZN7android7String8C1EPKDim
00000000001887cc g    DF .text	00000000000000a0 _ZN2nn5audio24SetI3dl2ReverbParametersEPNS0_15I3dl2ReverbTypeEPKNS0_23I3dl2ReverbParameterSetE
0000000000319c3c  w   DF .text	00000000000000b0 _ZN2nn2sf6detail38ObjectImplFactoryWithStatefulAllocatorINS0_4cmif6client16CmifProxyFactoryINS_3pcv19IArbitrationManagerENS0_4hipc6client18Hipc2ProxyKindBaseILNS8_6detail11MessageTypeE4EEENS0_30MemoryResourceAllocationPolicyEE13ServiceObjectESE_E6Object7ReleaseEv
00000000007e90b0 g    DO .rodata	0000000000000004 _ZN2nn5audio22AudioRendererParameter17MixBufferCountMaxE
00000000002183a4 g    DF .text	00000000000001ac _ZN2nn3hid6detail19GetJoyXpadLeftStateEPNS0_12JoyXpadStateERKNS0_9JoyXpadIdE
0000000000092d8c g    DF .text	0000000000000090 _ZN2nn2os6detail13MultiWaitImpl21ConstructObjectsArrayEPjPPNS1_19MultiWaitHolderBaseEi
00000000001715cc  w   DF .text	00000000000000f8 _ZN2nn2sf4hipc6client24Hipc2ClientCoreProcessorILNS1_6detail11MessageTypeE4ENS0_4cmif6detail14CoreMethodInfoINSt3__15tupleIJNS7_18OutRawArgumentInfoILm6ELm2ELl0EEEEEELm0ELm6ELb0EEESD_E7ProcessEPNS2_26Hipc2ClientProxyBaseObjectENS6_6client24OutRawClientArgumentTypeILm6ELm2EEEj
00000000001d4e40 g    DF .text	0000000000000070 _ZN2nn2vi15AddToLayerStackEPNS0_5LayerENS0_10LayerStackE
00000000003e78b0 g    DF .text	0000000000000004 __memalign
00000000000b0e60 g    DF .text	00000000000000f8 _ZN2nn6socket8resolver10serializer13DNSSerializer10FromBufferI12sockaddr_in6EElRT_PKhm
0000000000118594 g    DF .text	000000000000007c _ZN2nn5codec11OpusEncoder10SetBitRateEi
0000000000220404  w   DF .text	0000000000000004 _ZN2nn3hid6detail14NpadSystemLifoD0Ev
0000000000804c30 g    DO .rodata	0000000000000020 _ZN2nn4util10BitFlagSetILi256ENS_3hid11KeyboardKeyEE4FlagILi34EE4MaskE
00000000003625dc g    DF .text	000000000000002c _ZNSt11logic_errorC2ERKS_
000000000014b600  w   DF .text	0000000000000008 _ZN2nn3ngc6detail15NullInputStream6Close_Ev
00000000002cc514 g    DF .text	0000000000000008 _ZNK7android6Region14mergeExclusiveERKS0_ii
00000000000aaa54  w   DF .text	00000000000001fc _ZN2nn2sf4cmif6client34CmifDomainProxyClientCoreProcessorINS0_4hipc6client38Hipc2ClientSessionManagedProxyKindBaseINS5_18Hipc2ProxyKindBaseILNS4_6detail11MessageTypeE4EEEEENS1_6detail14CoreMethodInfoINSt3__15tupleIJNSC_18OutRawArgumentInfoILm4ELm4ELl0EEENSG_ILm4ELm4ELl4EEENSC_17InRawArgumentInfoILm4ELm4ELl0EEENSC_18BufferArgumentInfoILi0ELi34ELm0EEENSG_ILm4ELm4ELl8EEEEEELm4ELm12ELb0EEESO_E7ProcessEPNS2_23CmifDomainClientMessageISB_E15ProxyBaseObjectENS2_24OutRawClientArgumentTypeILm4ELm4EEESW_NS2_23InRawClientArgumentTypeILm4ELm4EvEENS2_24BufferClientArgumentTypeESW_j
000000000039cd84 g    DF .text	00000000000000d4 __letf2
000000000095a230  w   DO .data	0000000000000018 _ZTIN2nn5visrv2sf21ISystemDisplayServiceE
00000000003e7e90 g    DF .text	0000000000000064 __nnmusl_sched_cpucount
0000000000088aa4 g    DF .text	00000000000000d8 _ZN2nn7nlibsdk4heap11CentralHeap9MakeCacheEPNS1_10CachedHeapE
000000000011c940 g    DF .text	0000000000000010 _ZN2nn7friends6detail16PresenceAccessor11VerifyValueEPKcm
00000000000a19fc g    DF .text	000000000000000c _ZN2nn6socket11GetAddrInfoEPKcS2_PK8addrinfoPPS3_
0000000000139750 g    DF .text	00000000000000c4 _ZN2nn3nfc8GetStateEv
00000000001b4fac g    DF .text	000000000000002c _ZN2nn2la19FinishLibraryAppletEv
0000000000220434  w   DF .text	0000000000000004 _ZN2nn3hid6detail17CaptureButtonLifoD0Ev
000000000012a75c  w   DF .text	0000000000000010 _ZN2nn2sf4cmif6client6detail13CmifProxyImplINS_7friends6detail3ipc20INotificationServiceENS2_15CmifDomainProxyINS0_4hipc6client38Hipc2ClientSessionManagedProxyKindBaseINSB_18Hipc2ProxyKindBaseILNSA_6detail11MessageTypeE4EEEEEEENS0_30MemoryResourceAllocationPolicyES8_E17GetCmifBaseObjectEv
0000000000064b8c g    DF .text	0000000000000178 _ZN2nn2fs11GetRightsIdEPNS0_8RightsIdEPhPKc
00000000007c2a70  w   DO .rodata	0000000000000158 _ZTSN2nn2sf4cmif6client6detail13CmifProxyImplINS_7account4http15IOAuthProcedureENS2_15CmifDomainProxyINS0_4hipc6client38Hipc2ClientSessionManagedProxyKindBaseINSA_18Hipc2ProxyKindBaseILNS9_6detail11MessageTypeE4EEEEEEENS0_25StatelessAllocationPolicyINS0_22ExpHeapStaticAllocatorILm2048ENS5_6detail12ObjectHolder24ObjectHolderAllocatorTagEEEEES7_EE
00000000001d9c6c g    DF .text	0000000000000004 _ZN2nn6fontll18ScalableFontEngineD2Ev
000000000003c7e8 g    DF .text	0000000000000008 _ZN2nn4util14DecompressGzipEPvmPKvmS1_m
000000000016a6e0 g    DF .text	0000000000000044 _ZN2nn8settings6system42SetConsoleSixAxisSensorAngularVelocityGainERKNS1_39ConsoleSixAxisSensorAngularVelocityGainE
00000000001743b4  w   DF .text	0000000000000020 _ZN2nn2sf4cmif6client6detail13CmifProxyImplINS_8settings21ISystemSettingsServerENS0_4hipc6client18Hipc2ProxyKindBaseILNS7_6detail11MessageTypeE4EEENS0_25StatelessAllocationPolicyINS0_22ExpHeapStaticAllocatorILm16384ES6_EEEES6_E35_nn_sf_sync_GetNotificationSettingsENS0_3OutINS5_6system20NotificationSettingsEvEE
00000000000a18a4 g    DF .text	0000000000000004 _ZN2nn6socket10SetSockOptEiiiPKvj
00000000001d53e8 g    DF .text	000000000000000c _ZN2nn2vi13ObjectManager14GetDisplayLockEv
00000000001ca088 g    DF .text	0000000000000018 _ZN2nn5swkbd14InlineKeyboard21SetUsbKeyboardEnabledEb
000000000029c1d8 g    DF .text	000000000000007c _ZNK7android12MemoryDealer4dumpEPKc
0000000000182d28 g    DF .text	0000000000000014 _ZN2nn3ntc4shim31CorrectionNetworkClockAsyncTask26GetFinishNotificationEventEv
0000000000189fa8 g    DF .text	0000000000000028 _ZN2nn5audio28ClearPerformanceDetailTargetEPNS0_19AudioRendererConfigE
00000000001b6864 g    DF .text	000000000000001c _ZN2nn3mii6detail25CalculateSizeAndAlignment20AddSizeWithAlignmentEmm
00000000001b1a78 g    DF .text	00000000000001d0 _ZN2nn2ec6detail34ShowShopApplicationInformationImplENS1_10LaunchModeENS0_5NsUidERKNS_7account3UidENS0_8SourceIdEPKc
000000000006bee4 g    DF .text	0000000000000184 _ZN2nn2fs26GetAndClearSdCardErrorInfoEPNS0_16StorageErrorInfoEPmPcm
0000000000160a40  w   DF .text	0000000000000020 _ZN2nn2sf4cmif6client6detail13CmifProxyImplINS_4pctl6detail3ipc23IParentalControlServiceENS2_15CmifDomainProxyINS0_4hipc6client38Hipc2ClientSessionManagedProxyKindBaseINSB_18Hipc2ProxyKindBaseILNSA_6detail11MessageTypeE4EEEEEEENS0_30MemoryResourceAllocationPolicyES8_E31_nn_sf_sync_GenerateInquiryCodeENS0_3OutINS5_11InquiryCodeEvEE
00000000002b67bc g    DF .text	0000000000000028 _ZThn8_N7android23BnGraphicBufferProducer17onGetNativeHandleEjRjRb
000000000033cda0  w   DF .text	0000000000000420 _ZNSt3__19__num_putIcE21__widen_and_group_intEPcS2_S2_S2_RS2_S3_RKNS_6localeE
0000000000188628 g    DF .text	0000000000000048 _ZN2nn5audio31SetI3dl2ReverbLateReverbDensityEPNS0_15I3dl2ReverbTypeEf
00000000001c78d4 g    DF .text	0000000000000008 _ZN2nn3mii13AppletManagerC2Ev
000000000094de38  w   DO .data	0000000000000098 _ZTVN2nn2sf6detail38ObjectImplFactoryWithStatefulAllocatorINS0_4cmif6client16CmifProxyFactoryINS_2am7service19IOverlayAppletProxyENS4_15CmifDomainProxyINS0_4hipc6client38Hipc2ClientSessionManagedProxyKindBaseINSB_18Hipc2ProxyKindBaseILNSA_6detail11MessageTypeE4EEEEEEENS0_30MemoryResourceAllocationPolicyEE13ServiceObjectESJ_E6ObjectE
0000000000361204 g    DF .text	0000000000000040 _ZNSt3__115recursive_mutex6unlockEv
00000000003b330c g    DF .text	0000000000000160 vfprintf
00000000001191c4 g    DF .text	0000000000000028 _ZN2nn5codec6detail21GetFinalRangeInternalEP11OpusEncoder
000000000013dd1c g    DF .text	000000000000008c _ZN2nn3nfp6detail19StartAmiiboSettingsEPNS0_28ReturnValueForAmiiboSettingsERKNS0_27StartParamForAmiiboSettingsE
00000000002043fc g    DF .text	000000000000022c fill_outline_cff
0000000000172f90  w   DF .text	00000000000000b0 _ZN2nn2sf6detail39ObjectImplFactoryWithStatelessAllocatorINS0_4cmif6client16CmifProxyFactoryINS_8settings24ISettingsItemKeyIteratorENS0_4hipc6client18Hipc2ProxyKindBaseILNS8_6detail11MessageTypeE4EEENS0_25StatelessAllocationPolicyINS0_22ExpHeapStaticAllocatorILm16384ENS6_28IFirmwareDebugSettingsServerEEEEEE13ServiceObjectESI_E6Object11DisposeImplEv
00000000002cbaf8 g    DF .text	0000000000000014 _ZNK7android6Region16isTriviallyEqualERKS0_
0000000000030294 g    DF .text	00000000000000e0 _ZNK2nn5image13ExifExtractor25ExtractEffectiveDimensionEPNS0_9DimensionE
00000000000418f0 g    DF .text	000000000000002c _ZN2nn4edid6detail10InitializeEPNS0_11DisplayInfoE
000000000004c6bc  w   DF .text	0000000000000070 _ZN2nn2fs13MemoryStorage4ReadElPvm
00000000003341b0 g    DF .text	0000000000000004 _ZNSt3__117__widen_from_utf8ILm16EED2Ev
00000000000b7dc8  w   DF .text	0000000000000020 _ZN2nn2sf4cmif6client6detail13CmifProxyImplINS_7account31IAccountServiceForSystemServiceENS2_15CmifDomainProxyINS0_4hipc6client38Hipc2ClientSessionManagedProxyKindBaseINS9_18Hipc2ProxyKindBaseILNS8_6detail11MessageTypeE4EEEEEEENS0_25StatelessAllocationPolicyINS0_22ExpHeapStaticAllocatorILm2048ENS5_6detail12ObjectHolder24ObjectHolderAllocatorTagEEEEES6_E34_nn_sf_sync_DebugSetUserStateCloseERKNS5_3UidE
00000000000c6c28  w   DF .text	0000000000000058 _ZN2nn2sf6detail38ObjectImplFactoryWithStatefulAllocatorINS0_4cmif6client16CmifProxyFactoryINS_2am7service15ISelfControllerENS4_15CmifDomainProxyINS0_4hipc6client38Hipc2ClientSessionManagedProxyKindBaseINSB_18Hipc2ProxyKindBaseILNSA_6detail11MessageTypeE4EEEEEEENS0_30MemoryResourceAllocationPolicyEE13ServiceObjectESJ_E6Object7ReleaseEv
000000000015d440 g    DF .text	000000000000005c _ZN2nn4pctl18DisableAllFeaturesEv
00000000003a9dc0 g    DF .text	000000000000000c __nnmusl_stdout_lock_finalize
00000000003b917c  w   DF .text	0000000000000054 __strndup
0000000000076534 g    DF .text	00000000000000cc nnmem_nlib_utf32char_to_utf8
000000000021ca3c g    DF .text	0000000000000074 _ZN2nn3hid6detail28ResetAccelerometerParametersENS0_19SixAxisSensorHandleE
0000000000331144  w   DF .text	000000000000004c _ZNSt3__113basic_ostreamIwNS_11char_traitsIwEEE6sentryC2ERS3_
0000000000959290  w   DO .data	0000000000000038 _ZTIN2nn2sf4impl6detail17ImplTemplateBaseTINS_5audio6detail21IAudioRendererManagerES6_NS0_6detail27UnmanagedEmplacedImplHolderINS4_6server24AudioRendererManagerImplEEESB_S6_EE
00000000000ba0d4  w   DF .text	0000000000000024 _ZN2nn2sf4cmif6client6detail13CmifProxyImplINS_7account31IAccountServiceForAdministratorENS2_15CmifDomainProxyINS0_4hipc6client38Hipc2ClientSessionManagedProxyKindBaseINS9_18Hipc2ProxyKindBaseILNS8_6detail11MessageTypeE4EEEEEEENS0_25StatelessAllocationPolicyINS0_22ExpHeapStaticAllocatorILm2048ENS5_6detail12ObjectHolder24ObjectHolderAllocatorTagEEEEES6_E27_nn_sf_sync_SetUserPositionERKNS5_3UidEi
0000000000080b4c g    DF .text	00000000000000b8 nnmem_nlib_sleep
00000000008235f0  w   DO .rodata	0000000000000019 _ZTSNSt3__114__num_get_baseE
0000000000361098 g    DF .text	0000000000000048 _ZNSt3__15alignEmmRPvRm
000000000018bcc0 g    DF .text	0000000000000018 _ZN2nn5audio18GetSubMixMixVolumeEPKNS0_10SubMixTypeEPKNS0_12FinalMixTypeEii
0000000000a7fc40 g    DO .bss	0000000000000004 _ZNSt3__112__rs_default4__c_E
00000000001de198 g    DF .text	0000000000000004 FSS_get_outline
0000000000179734 g    DF .text	0000000000000110 _ZN2nn3ssl10Connection19GetVerifyCertErrorsEPNS_6ResultEPjS4_j
00000000007e2970  w   DO .rodata	000000000000011b _ZTSN2nn2sf4cmif6client16CmifProxyFactoryINS_4pctl6detail3ipc30IParentalControlServiceFactoryENS2_15CmifDomainProxyINS0_4hipc6client38Hipc2ClientSessionManagedProxyKindBaseINSA_18Hipc2ProxyKindBaseILNS9_6detail11MessageTypeE4EEEEEEENS0_30MemoryResourceAllocationPolicyEE13ServiceObjectE
000000000016e4f4 g    DF .text	0000000000000070 _ZN2nn8settings6detail16SetNfcEnableFlagEb
0000000000296928 g    DF .text	0000000000000034 _ZN7android8BpBinder20onIncStrongAttemptedEjPKv
000000000094bd30  w   DO .data	0000000000000018 _ZTIN2nn2sf4cmif6client6detail9CmifProxyINS_2am7service18ICommonStateGetterENS2_15CmifDomainProxyINS0_4hipc6client38Hipc2ClientSessionManagedProxyKindBaseINSA_18Hipc2ProxyKindBaseILNS9_6detail11MessageTypeE4EEEEEEENS0_30MemoryResourceAllocationPolicyEvEE
0000000000947a00  w   DO .data	0000000000000038 _ZTIN2nn2sf6detail39ObjectImplFactoryWithStatelessAllocatorINS0_4cmif6client16CmifProxyFactoryINS_7account31IAccountServiceForSystemServiceENS4_15CmifDomainProxyINS0_4hipc6client38Hipc2ClientSessionManagedProxyKindBaseINSA_18Hipc2ProxyKindBaseILNS9_6detail11MessageTypeE4EEEEEEENS0_25StatelessAllocationPolicyINS0_22ExpHeapStaticAllocatorILm2048ENS6_6detail12ObjectHolder24ObjectHolderAllocatorTagEEEEEE13ServiceObjectESO_E6ObjectE
0000000000946e78 g    DO .data	0000000000000010 _ZTIN2nn7account6detail18OAuthProcedureBaseE
0000000000156be0 g    DF .text	00000000000000b8 _ZN2nn4nifm22BindTelemetryInfoEventEPNS_2os15SystemEventTypeENS1_14EventClearModeE
0000000000160c40  w   DF .text	0000000000000020 _ZN2nn2sf4cmif6client6detail13CmifProxyImplINS_4pctl6detail3ipc23IParentalControlServiceENS2_15CmifDomainProxyINS0_4hipc6client38Hipc2ClientSessionManagedProxyKindBaseINSB_18Hipc2ProxyKindBaseILNSA_6detail11MessageTypeE4EEEEEEENS0_30MemoryResourceAllocationPolicyES8_E35_nn_sf_sync_IsRestrictedByPlayTimerENS0_3OutIbvEE
000000000009f394  w   DF .text	0000000000000010 _ZN2nn2sf4cmif6server22CmifDomainServerObject23CmifDomainServerMessage19SetOutNativeHandlesEPNS0_12NativeHandleE
0000000000201270 g    DF .text	0000000000000050 copy_graymap
0000000000353f30 g    DF .text	0000000000000068 _ZNSt3__16localeC1ERKS0_S2_i
000000000006cbd0 g    DF .text	0000000000000034 _ZN2nn2fs19MountSystemSaveDataEPKcmNS0_6UserIdE
000000000017551c  w   DF .text	00000000000000fc _ZN2nn2sf4hipc6client24Hipc2ClientCoreProcessorILNS1_6detail11MessageTypeE4ENS0_4cmif6detail14CoreMethodInfoINSt3__15tupleIJNS7_18OutRawArgumentInfoILm40ELm4ELl0EEEEEELm0ELm40ELb0EEESD_E7ProcessEPNS2_26Hipc2ClientProxyBaseObjectENS6_6client24OutRawClientArgumentTypeILm40ELm4EEEj
00000000000cbb34  w   DF .text	0000000000000010 _ZN2nn2sf4cmif6client6detail13CmifProxyImplINS_2am7service19IApplicationCreatorENS2_15CmifDomainProxyINS0_4hipc6client38Hipc2ClientSessionManagedProxyKindBaseINSA_18Hipc2ProxyKindBaseILNS9_6detail11MessageTypeE4EEEEEEENS0_30MemoryResourceAllocationPolicyES7_E17GetCmifBaseObjectEv
000000000032621c g    DF .text	0000000000000048 _ZNSt13exception_ptraSERKS_
000000000015ebf8 g    DF .text	0000000000000094 _ZN2nn4pctl18PairingAccountInfo15GetAccountStateEPNS0_19PairingAccountStateE
000000000097c0e0  w   DO .data	0000000000000018 _ZTINSt3__114codecvt_bynameIcc11__mbstate_tEE
0000000000328158 g    DF .text	0000000000000050 _ZNSt3__121__horizon_thread_data14allocate_stackEv
000000000008a1f0 g    DF .text	0000000000000044 _ZNK2nn3mem17StandardAllocator18GetAllocatableSizeEv
00000000000bfd40 g    DF .text	0000000000000028 _ZN2nn7account28NetworkServiceAccountManagerC2ERKNS0_3UidEPNS0_4baas24IManagerForSystemServiceE
00000000000c8ca0  w   DF .text	0000000000000008 _ZN2nn2sf6detail38ObjectImplFactoryWithStatefulAllocatorINS0_4cmif6client16CmifProxyFactoryINS_2am7service20IApplicationAccessorENS4_15CmifDomainProxyINS0_4hipc6client38Hipc2ClientSessionManagedProxyKindBaseINSB_18Hipc2ProxyKindBaseILNSA_6detail11MessageTypeE4EEEEEEENS0_30MemoryResourceAllocationPolicyEE13ServiceObjectESJ_E6Object12AddReferenceEv
000000000035b0f4 g    DF .text	0000000000000088 _ZNSt3__115numpunct_bynameIwEC2ERKNS_12basic_stringIcNS_11char_traitsIcEENS_9allocatorIcEEEEm
0000000000234e74  w   DF .text	0000000000000024 _ZN2nn2sf4cmif6client6detail13CmifProxyImplINS_3hid16IHidSystemServerENS0_4hipc6client18Hipc2ProxyKindBaseILNS7_6detail11MessageTypeE4EEENS0_25StatelessAllocationPolicyINS0_22ExpHeapStaticAllocatorILm16384ENS5_6detail15HidSystemServerEEEEES6_E46_nn_sf_sync_CancelSixAxisSensorUserCalibrationENS5_6system25UniqueSixAxisSensorHandleE
00000000002cdfa4 g    DF .text	000000000000002c _ZN7android19initialize_string16Ev
00000000000ce4c0  w   DF .text	0000000000000094 _ZN2nn2sf4cmif6client6detail13CmifProxyImplINS_2am7service21IStackableAppletProxyENS2_15CmifDomainProxyINS0_4hipc6client38Hipc2ClientSessionManagedProxyKindBaseINSA_18Hipc2ProxyKindBaseILNS9_6detail11MessageTypeE4EEEEEEENS0_30MemoryResourceAllocationPolicyENS6_17IApplicationProxyEE39_nn_sf_sync_GetProcessWindingControllerENS0_3OutINS0_13SharedPointerINS6_25IProcessWindingControllerEEEvEE
000000000032f068  w   DF .text	0000000000000014 _ZTv0_n24_NSt3__113basic_ostreamIcNS_11char_traitsIcEEED1Ev
00000000003614cc g    DF .text	0000000000000030 _ZNSt3__121recursive_timed_mutexC2Ev
00000000003e791c g    DF .text	000000000000006c __nnmusl_pthread_attr_setschedparam
000000000009bcac g    DF .text	000000000000003c _ZNK2nn2sf4hipc6detail25HipcMessageBufferAccessor7GetSendEi
00000000007ad684 g    DO .rodata	0000000000000408 _ZN2nn4util6detail15AtanSampleTableE
00000000009532d8 g    DO .data	0000000000000040 _ZTVN2nn3ngc6detail11InputStreamE
00000000009795d8  w   DO .data	0000000000000050 _ZTVNSt3__113basic_ostreamIcNS_11char_traitsIcEEEE
000000000021a9e8 g    DF .text	000000000000007c _ZN2nn3hid6detail41EnableUnintendedHomeButtonInputProtectionERKjb
000000000016c864 g    DF .text	0000000000000080 _ZN2nn8settings6detail27SetBluetoothDevicesSettingsEPKNS0_6system24BluetoothDevicesSettingsEi
00000000001c3248 g    DF .text	0000000000000010 _ZN2nn3mii6detail16Ver3StoreDataRaw16SetFavoriteColorEi
00000000001d37c8 g    DF .text	00000000000000e4 _ZN2nn2vi20ListDisplayRgbRangesEPNS0_8RgbRangeEiPKNS0_7DisplayE
0000000000233c9c  w   DF .text	0000000000000120 _ZN2nn2sf4hipc6client24Hipc2ClientCoreProcessorILNS1_6detail11MessageTypeE4ENS0_4cmif6detail14CoreMethodInfoINSt3__15tupleIJNS7_18OutRawArgumentInfoILm16ELm4ELl0EEENS7_17InRawArgumentInfoILm8ELm8ELl8EEENSD_ILm4ELm4ELl0EEEEEELm16ELm16ELb1EEESG_E7ProcessEPNS2_26Hipc2ClientProxyBaseObjectENS6_6client24OutRawClientArgumentTypeILm16ELm4EEENSL_23InRawClientArgumentTypeILm8ELm8EvEENSO_ILm4ELm4EvEEj
0000000000140fe4 g    DF .text	0000000000000010 _ZN2nn3ngc15ProfanityFilter16CleanUpVariablesEv
000000000016d294 g    DF .text	0000000000000070 _ZN2nn8settings6detail18GetFirmwareVersionEPNS0_6system15FirmwareVersionE
00000000001768bc  w   DF .text	00000000000000f8 _ZN2nn2sf4hipc6client24Hipc2ClientCoreProcessorILNS1_6detail11MessageTypeE4ENS0_4cmif6detail14CoreMethodInfoINSt3__15tupleIJNS7_17InRawArgumentInfoILm36ELm1ELl0EEEEEELm36ELm0ELb0EEESD_E7ProcessEPNS2_26Hipc2ClientProxyBaseObjectENS6_6client23InRawClientArgumentTypeILm36ELm1EvEEj
0000000000081214 g    DF .text	00000000000000b4 nnmem_nlib_physical_free
000000000097d758 g    DO .data	0000000000000028 _ZTVSt12length_error
000000000003beb8 g    DF .text	000000000000004c _ZN2nn4util8BitArray3AndEPS1_RKS1_S4_
000000000014b61c g    DF .text	0000000000000014 _ZN2nn3ngc6detail17MemoryInputStreamD2Ev
0000000000180778  w   DF .text	0000000000000090 _ZN2nn2sf4cmif6client6detail13CmifProxyImplINS_7timesrv6detail7service14IStaticServiceENS2_15CmifDomainProxyINS0_4hipc6client38Hipc2ClientSessionManagedProxyKindBaseINSB_18Hipc2ProxyKindBaseILNSA_6detail11MessageTypeE4EEEEEEENS0_25StatelessAllocationPolicyINS0_22ExpHeapStaticAllocatorILm16384ENS_4time6detail7service21ServiceProviderClient30CreateTimeUserServiceObjectTagEEEEES8_E38_nn_sf_sync_GetStandardUserSystemClockENS0_3OutINS0_13SharedPointerINS7_12ISystemClockEEEvEE
00000000001c676c  w   DF .text	0000000000000020 _ZN2nn2sf4cmif6client6detail13CmifProxyImplINS_3mii6detail16IDatabaseServiceENS2_15CmifDomainProxyINS0_4hipc6client38Hipc2ClientSessionManagedProxyKindBaseINSA_18Hipc2ProxyKindBaseILNS9_6detail11MessageTypeE4EEEEEEENS0_25StatelessAllocationPolicyINS0_22ExpHeapStaticAllocatorILm16384ENS6_21ServiceProviderClient30CreateNifmUserServiceObjectTagEEEEES7_E18_nn_sf_sync_FormatEv
0000000000395960 g    DF .text	0000000000000094 __cxa_get_globals
0000000000145014 g    DF .text	0000000000000068 _ZN2nn3ngc6detail14ContentsReader14GetVersionDataEPvj
00000000001ca600 g    DF .text	00000000000000c8 _ZN2nn5swkbd6detail18InlineKeyboardImpl12SendRequest_ENS0_14RequestCommandEPKvm
0000000000270138 g    DF .text	0000000000000020 NvRmMemWrite
0000000000a80680 g    DO .bss	0000000000000004 _ZNSt3__18ios_base9__xindex_E
00000000000d1b30  w   DF .text	00000000000000fc _ZN2nn2sf4hipc6client24Hipc2ClientCoreProcessorILNS1_6detail11MessageTypeE4ENS0_4cmif6detail14CoreMethodInfoINSt3__15tupleIJNS7_18OutRawArgumentInfoILm40ELm8ELl0EEEEEELm0ELm40ELb0EEESD_E7ProcessEPNS2_26Hipc2ClientProxyBaseObjectENS6_6client24OutRawClientArgumentTypeILm40ELm8EEEj
00000000001d32fc g    DF .text	0000000000000070 _ZN2nn2vi20SetDisplayPowerStateEPNS0_7DisplayENS0_10PowerStateE
0000000000082190 g    DF .text	0000000000000088 nnmem_nlib_dir_read
00000000003a24ec g    DF .text	000000000000002c __floatundidf
000000000097cff0 g    DO .data	0000000000000020 _ZTTNSt3__110ostrstreamE
00000000009457c8 g    DO .data	0000000000000038 _ZTVN2nn2os6detail22MultiWaitHolderOfEventE
0000000000947950  w   DO .data	0000000000000048 _ZTIN2nn2sf4cmif6client6detail13CmifProxyImplINS_7account19IAccountServiceBaseENS2_15CmifDomainProxyINS0_4hipc6client38Hipc2ClientSessionManagedProxyKindBaseINS9_18Hipc2ProxyKindBaseILNS8_6detail11MessageTypeE4EEEEEEENS0_25StatelessAllocationPolicyINS0_22ExpHeapStaticAllocatorILm2048ENS5_6detail12ObjectHolder24ObjectHolderAllocatorTagEEEEENS5_31IAccountServiceForSystemServiceEEE
000000000094ccf0  w   DO .data	0000000000000018 _ZTIN2nn2sf4cmif6client6detail9CmifProxyINS_2am7service25IProcessWindingControllerENS2_15CmifDomainProxyINS0_4hipc6client38Hipc2ClientSessionManagedProxyKindBaseINSA_18Hipc2ProxyKindBaseILNS9_6detail11MessageTypeE4EEEEEEENS0_30MemoryResourceAllocationPolicyEvEE
0000000000822dda g    DO .rodata	0000000000000002 _ZNSt3__110ctype_base5punctE
0000000000091324 g    DF .text	0000000000000004 nnosGetThreadNamePointer
0000000000008108  w   DF .text	00000000000000dc _ZN2nn6crypto6detail11XtsModeImplINS1_20XtsModeGenericHelperEE6UpdateEPvmPKvm
00000000000983a0  w   DF .text	0000000000000108 _ZN2nn2sf4hipc6client24Hipc2ClientCoreProcessorILNS1_6detail11MessageTypeE4ENS0_4cmif6detail14CoreMethodInfoINSt3__15tupleIJNS7_17InRawArgumentInfoILm8ELm8ELl0EEENSB_ILm8ELm8ELl8EEENSB_ILm8ELm8ELl16EEEEEELm24ELm0ELb1EEESF_E7ProcessEPNS2_26Hipc2ClientProxyBaseObjectENS6_6client23InRawClientArgumentTypeILm8ELm8EvEESM_SM_j
00000000000d0a90 g    DF .text	0000000000000024 _ZN2nn3apm28GetInternalManagerPrivilegedEv
000000000031454c g    DF .text	0000000000000048 _ZN2nn3fgm8Debugger21GetSystemEventPointerEv
00000000002860b8 g    DF .text	0000000000000010 nvgr_get_stereo_info
0000000000297e8c g    DF .text	00000000000000d0 _ZN7android12BpMemoryHeapC2ERKNS_2spINS_7IBinderEEE
00000000001c5bc0 g    DF .text	0000000000000040 _ZNK2nn3mii15PrivateDatabase9FindIndexERKNS0_8CreateIdEb
000000000006f0dc g    DF .text	000000000000005c _ZN2nn4lmem13AdjustExpHeapEPNS0_6detail8HeapHeadE
00000000000fcdc8 g    DF .text	00000000000001a8 silk_process_NLSFs
00000000000b9998  w   DF .text	0000000000000074 _ZN2nn2sf6detail39ObjectImplFactoryWithStatelessAllocatorINS0_4cmif6client16CmifProxyFactoryINS_7account31IAccountServiceForAdministratorENS4_15CmifDomainProxyINS0_4hipc6client38Hipc2ClientSessionManagedProxyKindBaseINSA_18Hipc2ProxyKindBaseILNS9_6detail11MessageTypeE4EEEEEEENS0_25StatelessAllocationPolicyINS0_22ExpHeapStaticAllocatorILm2048ENS6_6detail12ObjectHolder24ObjectHolderAllocatorTagEEEEEE13ServiceObjectESO_E6Object7ReleaseEv
0000000000822dde g    DO .rodata	0000000000000002 _ZNSt3__110ctype_base5blankE
000000000008ce6c g    DF .text	0000000000000010 _ZN2nn2os11GetHostArgvEv
00000000000c1ab0 g    DF .text	0000000000000030 _ZN2nn7account31NintendoAccountLinkageProcedureC1Ev
00000000007f6210 g    DO .rodata	0000000000000018 _ZN2nn3mii6detail14EyeShadowColorE
0000000000318c54  w   DF .text	0000000000000028 _ZN2nn2sf4cmif6client6detail13CmifProxyImplINS_3pcv6detail11IPcvServiceENS0_4hipc6client18Hipc2ProxyKindBaseILNS8_6detail11MessageTypeE4EEENS0_30MemoryResourceAllocationPolicyES7_E29_nn_sf_sync_SetVoltageEnabledEib
000000000002e734 g    DF .text	000000000000006c _ZN2nn5image11JpegDecoder6DecodeEPvmiS2_m
00000000002ac65c g    DF .text	00000000000005ec _ZN7android19BufferQueueConsumer13acquireBufferEPNS_22IGraphicBufferConsumer10BufferItemEl
00000000001ae478 g    DF .text	000000000000056c _ZN2nn5audio26I3dl2Reverb6ChannelMonoMixEPNS0_16I3dl2ReverbStateEPPKiPPij
00000000000c1e3c g    DF .text	0000000000000030 _ZN2nn7account49ExternalNetworkServiceAccountIntroducingProcedureC2EOS1_
000000000011867c g    DF .text	0000000000000008 _ZNK2nn5codec11OpusEncoder17GetBitRateControlEv
000000000024ed00 g    DF .text	0000000000000014 _ZN2nn6capsrv12LibraryStateC2Ev
0000000000264f6c g    DF .text	0000000000000058 _ZN2nv21GetGraphicsMemoryInfoEPNS_10MemoryInfoE
00000000001b9a64 g    DF .text	0000000000000048 _ZN2nn3mii6detail11CoreDataRaw7SetEyeXEi
000000000033b7e8  w   DF .text	00000000000001e0 _ZNSt3__19__num_getIcE17__stage2_int_prepERNS_8ios_baseEPcRc
0000000000091320 g    DF .text	0000000000000004 nnosSetThreadNamePointer
00000000003146d4 g    DF .text	0000000000000060 _ZN2nn3fgm8DebuggerD2Ev
00000000000cfdc4  w   DF .text	00000000000000b0 _ZZN2nn2sf40SimpleAllInOneHipcSubDomainClientManagerILm100EE27InitializeShimLibraryHolderINS_2am7service24IApplicationProxyServiceEEENS_6ResultEPNS0_23ShimLibraryObjectHolderIT_EEPKcPNS_14MemoryResourceEENKUlPvE_clESG_
000000000016ccd4 g    DF .text	0000000000000070 _ZN2nn8settings6detail23GetEciDeviceCertificateEPNS0_7factory24EccB233DeviceCertificateE
0000000000072cc0 g    DF .text	00000000000001c0 nnmem_nlib_memchr
0000000000162ddc  w   DF .text	0000000000000260 _ZN2nn2sf4cmif6client34CmifDomainProxyClientCoreProcessorINS0_4hipc6client38Hipc2ClientSessionManagedProxyKindBaseINS5_18Hipc2ProxyKindBaseILNS4_6detail11MessageTypeE4EEEEENS1_6detail14CoreMethodInfoINSt3__15tupleIJNSC_18OutRawArgumentInfoILm8ELm4ELl0EEENSC_21OutHandleArgumentInfoILi0ELi1EEENSG_ILm4ELm4ELl8EEENSC_18BufferArgumentInfoILi0ELi10ELm0EEENSC_17InRawArgumentInfoILm16ELm8ELl0EEEEEELm16ELm12ELb0EEESP_E7ProcessEPNS2_23CmifDomainClientMessageISB_E15ProxyBaseObjectENS2_24OutRawClientArgumentTypeILm8ELm4EEENS2_27OutHandleClientArgumentTypeENSW_ILm4ELm4EEENS2_24BufferClientArgumentTypeENS2_23InRawClientArgumentTypeILm16ELm8EvEEj
0000000000121ce8 g    DF .text	000000000000002c _ZN2nn7friends12AsyncContextD2Ev
00000000002707dc g    DF .text	0000000000000004 NvRmMemCacheListSyncForCpu
00000000001bcd94 g    DF .text	0000000000000004 _ZN2nn3mii6detail12StoreDataRaw12SetMouthTypeEi
00000000001bae88 g    DF .text	000000000000005c _ZN2nn3mii6detail10NicknameLe7ConvertEPS2_RKNS0_8NicknameE
000000000012f898  w   DF .text	0000000000000174 _ZN2nn2sf4hipc6client24Hipc2ClientCoreProcessorILNS1_6detail11MessageTypeE4ENS0_4cmif6detail14CoreMethodInfoINSt3__15tupleIJNS7_18OutRawArgumentInfoILm4ELm4ELl0EEENS7_21OutHandleArgumentInfoILi0ELi1EEENS7_17InRawArgumentInfoILm4ELm4ELl0EEENSF_ILm4ELm4ELl4EEEEEELm8ELm4ELb0EEESI_E7ProcessEPNS2_26Hipc2ClientProxyBaseObjectENS6_6client24OutRawClientArgumentTypeILm4ELm4EEENSN_27OutHandleClientArgumentTypeENSN_23InRawClientArgumentTypeILm4ELm4EvEESS_j
00000000000453dc g    DF .text	000000000000000c _ZN2nn4diag29InitializeAbortObserverHolderEPNS0_19AbortObserverHolderEPFvRKNS0_9AbortInfoEE
00000000001a3e00 g    DF .text	00000000000000ec _ZN2nn5audio6server10MixContext27UpdateDistancesFromFinalMixEv
000000000001eb44 g    DF .text	0000000000000068 _ZN2nn5image6detail4jpeg22jinit_input_controllerEPNS2_22jpeg_decompress_structE
00000000002c888c g    DF .text	0000000000000230 sync_create_nvrm_mapping
00000000008057b0 g    DO .rodata	0000000000000020 _ZN2nn4util10BitFlagSetILi256ENS_3hid11KeyboardKeyEE4FlagILi147EE4MaskE
000000000022ff70 g    DF .text	0000000000000008 _ZNK2nn3hid15VibrationPlayer18GetLoopEndPositionEv
00000000001a2704 g    DF .text	0000000000000018 _ZNK2nn5audio6server12BehaviorInfo51IsAudioRenererProcessingTimeLimit75PercentSupportedEv
000000000017f354 g    DF .text	0000000000000094 _ZN2nn4time26StandardNetworkSystemClock20IsAccuracySufficientEv
00000000001a2d48 g    DF .text	0000000000000100 _ZN2nn5audio6server15I3dl2ReverbInfo6UpdateEPNS0_6common17BehaviorParameter9ErrorInfoEPKNS0_10EffectInfo11InParameterERNS1_10PoolMapperE
00000000003c2bac g    DF .text	0000000000000080 iswprint
0000000000073570 g    DF .text	0000000000000198 nnmem_nlib_memchr_gt_generic
00000000000b635c  w   DF .text	0000000000000020 _ZN2nn2sf4cmif6client6detail13CmifProxyImplINS_7account6detail13IAsyncContextENS2_15CmifDomainProxyINS0_4hipc6client38Hipc2ClientSessionManagedProxyKindBaseINSA_18Hipc2ProxyKindBaseILNS9_6detail11MessageTypeE4EEEEEEENS0_25StatelessAllocationPolicyINS0_22ExpHeapStaticAllocatorILm2048ENS6_12ObjectHolder24ObjectHolderAllocatorTagEEEEES7_E21_nn_sf_sync_GetResultEv
0000000000255e84 g    DF .text	000000000000005c _ZNK2nn3web20SharePageReturnValue13GetPostIdSizeEv
00000000007e02c0  w   DO .rodata	00000000000001a9 _ZTSN2nn2sf6detail39ObjectImplFactoryWithStatelessAllocatorINS0_4cmif6client16CmifProxyFactoryINS_4nifm6detail15IGeneralServiceENS4_15CmifDomainProxyINS0_4hipc6client38Hipc2ClientSessionManagedProxyKindBaseINSB_18Hipc2ProxyKindBaseILNSA_6detail11MessageTypeE4EEEEEEENS0_25StatelessAllocationPolicyINS0_22ExpHeapStaticAllocatorILm16384ENS7_21ServiceProviderClient30CreateNifmUserServiceObjectTagEEEEEE13ServiceObjectESO_E6ObjectE
00000000002105f4 g    DF .text	0000000000000048 get_ttf_table
0000000000804150  w   DO .rodata	0000000000000022 _ZTSN2nn3hid6detail15SleepButtonLifoE
00000000009590b8 g    DO .data	0000000000000028 _ZTVN2nn5audio6server15I3dl2ReverbInfoE
0000000000977ed8  w   DO .data	0000000000000070 _ZTVN2nn2sf6detail38ObjectImplFactoryWithStatefulAllocatorINS0_4cmif6client16CmifProxyFactoryINS_3fgm2sf8IRequestENS4_15CmifDomainProxyINS0_4hipc6client38Hipc2ClientSessionManagedProxyKindBaseINSB_18Hipc2ProxyKindBaseILNSA_6detail11MessageTypeE4EEEEEEENS0_30MemoryResourceAllocationPolicyEE13ServiceObjectESJ_E6ObjectE
000000000002f6ac g    DF .text	00000000000004c4 _ZN2nn5image11ExifBuilder7AnalyzeEv
0000000000227880 g    DF .text	0000000000000090 _ZN2nn3hid6detail23GetActualVibrationValueEPNS0_14VibrationValueERKNS0_21VibrationDeviceHandleE
0000000000396aa4 g    DF .text	0000000000000004 _ZNSt9type_infoD0Ev
000000000009ddf4  w   DF .text	00000000000000e4 _ZN2nn2sf4hipc6server17HipcServerMessage12SetOutObjectEiONS0_4cmif6server20CmifServerObjectInfoE
0000000000133038 g    DF .text	0000000000000058 _ZN2nn4htcs5CloseEi
0000000000133b70 g    DF .text	0000000000000188 _ZN2nn4htcs6detail9sendLargeENS_2sf13SharedPointerINS_3tma7ISocketEEEPKvmiRi
000000000018587c g    DF .text	000000000000000c _ZN2nn5audio14ResetAuxBufferEPNS0_13AuxBufferInfoE
0000000000090584 g    DF .text	0000000000000028 _ZN2nn2os17GetThreadCoreMaskEPiPmPKNS0_10ThreadTypeE
00000000000a1894 g    DF .text	0000000000000004 _ZN2nn6socket11GetPeerNameEiP8sockaddrPj
00000000001afb3c g    DF .text	00000000000000ac _ZN2nn5audio8ResampleEPiPKiiS1_i
00000000002a9804 g    DF .text	0000000000000008 _ZThn16_N7android18BnConsumerListener10onTransactEjRKNS_6ParcelEPS1_j
00000000008051d0 g    DO .rodata	0000000000000020 _ZN2nn4util10BitFlagSetILi256ENS_3hid11KeyboardKeyEE4FlagILi79EE4MaskE
0000000000805918 g    DO .rodata	0000000000000004 _ZN2nn3hid14KeyboardLayout5GreekE
0000000000978cb0  w   DO .data	0000000000000018 _ZTIN2nn3pcv19IArbitrationManagerE
000000000094def0  w   DO .data	0000000000000048 _ZTIN2nn2sf4cmif6client6detail13CmifProxyImplINS_2am7service18IAppletProxyCommonENS2_15CmifDomainProxyINS0_4hipc6client38Hipc2ClientSessionManagedProxyKindBaseINSA_18Hipc2ProxyKindBaseILNS9_6detail11MessageTypeE4EEEEEEENS0_30MemoryResourceAllocationPolicyENS6_19IOverlayAppletProxyEEE
0000000000955ce0  w   DO .data	0000000000000018 _ZTIN2nn2sf4cmif6client6detail9CmifProxyINS_3ssl2sf14ISslConnectionENS2_15CmifDomainProxyINS0_4hipc6client38Hipc2ClientSessionManagedProxyKindBaseINSA_18Hipc2ProxyKindBaseILNS9_6detail11MessageTypeE4EEEEEEENS0_24StatefulAllocationPolicyINS0_16ExpHeapAllocatorEEEvEE
00000000007e6840  w   DO .rodata	0000000000000185 _ZTSN2nn2sf4cmif6client16CmifProxyFactoryINS_7timesrv6detail7service14IStaticServiceENS2_15CmifDomainProxyINS0_4hipc6client38Hipc2ClientSessionManagedProxyKindBaseINSA_18Hipc2ProxyKindBaseILNS9_6detail11MessageTypeE4EEEEEEENS0_25StatelessAllocationPolicyINS0_22ExpHeapStaticAllocatorILm16384ENS_4time6detail7service21ServiceProviderClient30CreateTimeUserServiceObjectTagEEEEEE13ServiceObjectE
0000000000031d9c g    DF .text	000000000000152c nnutilZlib_deflate
00000000000b1ca4 g    DF .text	000000000000003c _ZN2nn7account25ShowUserCreatorForStarterEv
00000000002ce438 g    DF .text	000000000000002c _ZN7android8String16D1Ev
000000000097b548 g    DO .data	0000000000000060 _ZTVNSt3__115__codecvt_utf16IDiLb1EEE
00000000003baa04 g    DF .text	0000000000000008 conj
000000000023b0d8 g    DF .text	0000000000000044 _ZN2nn8irsensor17RunIrLedProcessorERKNS0_14IrCameraHandleERKNS0_20IrLedProcessorConfigE
00000000000a5c20 g    DF .text	0000000000000058 _ZN2nn6socket6detail26DestroyClientMonitorByHipcEPNS_2sf13SharedPointerINS0_2sf7IClientEEE
000000000022d58c g    DF .text	0000000000000044 _ZN2nn3hid19GetTouchScreenStateILm6EEEvPNS0_16TouchScreenStateIXT_EEE
0000000000060e24 g    DF .text	0000000000000134 _ZN2nn2fs13EraseGameCardENS0_12GameCardSizeEm
0000000000051f78 g    DF .text	0000000000000034 _ZN2nn2fs26GetContentStorageMountNameENS0_16ContentStorageIdE
000000000008f594 g    DF .text	0000000000000008 _ZN2nn2os24FinalizeReaderWriterLockEPNS0_20ReaderWriterLockTypeE
0000000000125fa8  w   DF .text	0000000000000024 _ZN2nn2sf4cmif6client6detail13CmifProxyImplINS_7friends6detail3ipc14IFriendServiceENS2_15CmifDomainProxyINS0_4hipc6client38Hipc2ClientSessionManagedProxyKindBaseINSB_18Hipc2ProxyKindBaseILNSA_6detail11MessageTypeE4EEEEEEENS0_30MemoryResourceAllocationPolicyES8_E36_nn_sf_sync_ChangeFriendFavoriteFlagERKNS_7account3UidENSL_23NetworkServiceAccountIdEb
00000000001bcd68 g    DF .text	0000000000000004 _ZN2nn3mii6detail12StoreDataRaw7SetEyeYEi
00000000008048d0 g    DO .rodata	0000000000000020 _ZN2nn4util10BitFlagSetILi256ENS_3hid11KeyboardKeyEE4FlagILi7EE4MaskE
0000000000174e70  w   DF .text	0000000000000024 _ZN2nn2sf4cmif6client6detail13CmifProxyImplINS_8settings21ISystemSettingsServerENS0_4hipc6client18Hipc2ProxyKindBaseILNS7_6detail11MessageTypeE4EEENS0_25StatelessAllocationPolicyINS0_22ExpHeapStaticAllocatorILm16384ES6_EEEES6_E42_nn_sf_sync_SetHeadphoneVolumeWarningCountEi
000000000021eee8 g    DF .text	000000000000004c _ZN2nn3hid6detail33InitializeSharedMemoryForRingLifoEPNS_2os16SharedMemoryTypeEm
00000000002328c4  w   DF .text	0000000000000024 _ZN2nn2sf4cmif6client6detail13CmifProxyImplINS_3hid10IHidServerENS0_4hipc6client18Hipc2ProxyKindBaseILNS7_6detail11MessageTypeE4EEENS0_25StatelessAllocationPolicyINS0_22ExpHeapStaticAllocatorILm16384ENS5_6detail9HidServerEEEEES6_E38_nn_sf_sync_EnableUsbFullKeyControllerEb
0000000000986e78 g    DO .data	0000000000000004 optind
0000000000218550 g    DF .text	0000000000000208 _ZN2nn3hid6detail21GetJoyXpadRightStatesEPiPNS0_12JoyXpadStateEiRKNS0_9JoyXpadIdE
0000000000070e94 g    DF .text	000000000000008c _ZN2nn4lmem6detail18ExtendUnitHeapAreaEPNS1_8HeapHeadEm
000000000015d1b0 g    DF .text	0000000000000058 _ZN2nn4pctl19GenerateInquiryCodeEPNS0_11InquiryCodeE
0000000000186370 g    DF .text	000000000000005c _ZN2nn5audio22IsBufferMixerRemovableEPKNS0_15BufferMixerTypeE
0000000000196584 g    DF .text	00000000000000e4 _ZN2nn5audio49CreateFinalOutputRecorderManagerForDebuggerByHipcEv
00000000000cab2c  w   DF .text	00000000000000a8 _ZN2nn2sf4cmif6client6detail13CmifProxyImplINS_2am7service21ILibraryAppletCreatorENS2_15CmifDomainProxyINS0_4hipc6client38Hipc2ClientSessionManagedProxyKindBaseINSA_18Hipc2ProxyKindBaseILNS9_6detail11MessageTypeE4EEEEEEENS0_30MemoryResourceAllocationPolicyES7_E25_nn_sf_sync_CreateStorageENS0_3OutINS0_13SharedPointerINS6_8IStorageEEEvEEl
000000000014b0e4 g    DF .text	00000000000001f0 _ZN2nn3ngc6detail12OutputStream6Write_EPKvm
00000000001d2594  w   DF .text	0000000000000010 _ZN2nn2sf4cmif6client6detail13CmifProxyImplINS_5visrv2sf23IApplicationRootServiceENS0_4hipc6client18Hipc2ProxyKindBaseILNS8_6detail11MessageTypeE4EEENS0_30MemoryResourceAllocationPolicyES7_E17GetCmifBaseObjectEv
0000000000398534 g    DF .text	0000000000000084 __cxa_throw
0000000000329b90  w   DF .text	0000000000000014 _ZTv0_n24_NSt3__113basic_istreamIcNS_11char_traitsIcEEED1Ev
00000000003e7e1c g    DF .text	0000000000000074 __nnmusl_pthread_setschedprio
00000000001862e4 g    DF .text	0000000000000010 _ZN2nn5audio20GetBufferMixerVolumeEPKNS0_15BufferMixerTypeEi
00000000008058d0 g    DO .rodata	0000000000000020 _ZN2nn4util10BitFlagSetILi256ENS_3hid11KeyboardKeyEE4FlagILi231EE4MaskE
0000000000396764 g    DF .text	0000000000000054 _ZNSt15underflow_errorD2Ev
00000000003a9738  w   DF .text	00000000000000ec freopen64
0000000000361a3c  w   DF .text	0000000000000004 _ZdaPv
00000000009affd8  w   DO .bss	0000000000000008 _ZGVZN2nn4bcat6detail17ShimLibraryGlobal11GetInstanceEvE10s_Instance
000000000018c094 g    DF .text	0000000000000030 _ZN2nn5audio17SetVoicePlayStateEPNS0_9VoiceTypeENS1_9PlayStateE
0000000000234e98  w   DF .text	0000000000000020 _ZN2nn2sf4cmif6client6detail13CmifProxyImplINS_3hid16IHidSystemServerENS0_4hipc6client18Hipc2ProxyKindBaseILNS7_6detail11MessageTypeE4EEENS0_25StatelessAllocationPolicyINS0_22ExpHeapStaticAllocatorILm16384ENS5_6detail15HidSystemServerEEEEES6_E40_nn_sf_sync_GetUniquePadBluetoothAddressENS0_3OutINS_9bluetooth7AddressEvEENS5_6system11UniquePadIdE
00000000002cc23c g    DF .text	00000000000000cc _ZN7android6Region13operationSelfERKS0_iii
000000000004e798 g    DF .text	0000000000000054 _ZN2nn2fs6detail14CheckMountNameEPKc
000000000036d780 g    DF .text	0000000000000018 _ZNSt3__121__libcpp_mutex_unlockEPN2nn2os9MutexTypeE
0000000000065c2c  w   DF .text	000000000000000c _ZN2nn2fs26ReadOnlyFileSystemTemplateINSt3__110unique_ptrINS0_3fsa11IFileSystemENS2_14default_deleteIS5_EEEEE19DoGetTotalSpaceSizeEPlPKc
0000000000055a10  w   DF .text	00000000000001cc _ZN2nn2sf4cmif6client34CmifDomainProxyClientCoreProcessorINS0_4hipc6client38Hipc2ClientSessionManagedProxyKindBaseINS5_18Hipc2ProxyKindBaseILNS4_6detail11MessageTypeE4EEEEENS1_6detail14CoreMethodInfoINSt3__15tupleIJNSC_21OutObjectArgumentInfoILi0ELi0EEEEEELm0ELm0ELb0EEESI_E21ProcessWithOutObjectsEPNS2_23CmifDomainClientMessageISB_E15ProxyBaseObjectENS2_27OutObjectClientArgumentTypeEjPNS0_13SharedPointerINS0_14IServiceObjectEEE
00000000001c681c  w   DF .text	0000000000000010 _ZN2nn2sf4cmif6client6detail13CmifProxyImplINS_3mii6detail16IDatabaseServiceENS2_15CmifDomainProxyINS0_4hipc6client38Hipc2ClientSessionManagedProxyKindBaseINSA_18Hipc2ProxyKindBaseILNS9_6detail11MessageTypeE4EEEEEEENS0_25StatelessAllocationPolicyINS0_22ExpHeapStaticAllocatorILm16384ENS6_21ServiceProviderClient30CreateNifmUserServiceObjectTagEEEEES7_E17GetCmifBaseObjectEv
00000000003c5d94 g    DF .text	0000000000000054 posix_memalign
00000000000839bc g    DF .text	0000000000000088 _ZN2nn7nlibsdk4heap14TlsHeapCentral18FreeSpanToSpanPageEPNS1_4SpanEPNS1_8SpanPageE
00000000002d0200 g    DF .text	00000000000000d4 _ZN7android7String811setPathNameEPKc
000000000094e2f0  w   DO .data	0000000000000038 _ZTIN2nn2sf6detail38ObjectImplFactoryWithStatefulAllocatorINS0_4cmif6client16CmifProxyFactoryINS_2am7service17IApplicationProxyENS4_15CmifDomainProxyINS0_4hipc6client38Hipc2ClientSessionManagedProxyKindBaseINSB_18Hipc2ProxyKindBaseILNSA_6detail11MessageTypeE4EEEEEEENS0_30MemoryResourceAllocationPolicyEE13ServiceObjectESJ_E6ObjectE
0000000000168ff8 g    DF .text	0000000000000074 _ZN2nn8settings7factory22GetGameCardCertificateEPNS1_19GameCardCertificateE
0000000000358788 g    DF .text	0000000000000068 _ZNKSt3__114__codecvt_utf8IwE6do_outER11__mbstate_tPKwS5_RS5_PcS7_RS7_
000000000015dde4 g    DF .text	000000000000005c _ZN2nn4pctl38UpdateFreeCommunicationApplicationListEPKNS0_32FreeCommunicationApplicationInfoEi
000000000023c48c  w   DF .text	0000000000000008 _ZThn16_N2nn2sf4cmif6client6detail13CmifProxyImplINS_8irsensor15IIrSensorServerENS0_4hipc6client18Hipc2ProxyKindBaseILNS7_6detail11MessageTypeE4EEENS0_25StatelessAllocationPolicyINS0_22ExpHeapStaticAllocatorILm16384ENS5_6detail14IrSensorServerEEEEES6_E17GetCmifBaseObjectEv
0000000000074660 g    DF .text	0000000000000134 nnmem_nlib_strnlen_generic
000000000018d8f0 g    DF .text	000000000000000c _ZN2nn5audio6common19WorkBufferAllocatorC2EPvm
0000000000216b1c g    DF .text	00000000000000d0 _ZN2nn3hid6detail17InitializeGestureEv
000000000006e458 g    DF .text	000000000000009c _ZN2nn3htc43WaitUntilTargetEnvironmentVariableAvailableENS_8TimeSpanE
000000000002a454 g    DF .text	0000000000000004 _ZN2nn5image6detail4jpeg15jpeg_free_largeEPNS2_18jpeg_common_structEPvm
0000000000183f34  w   DF .text	0000000000000044 _ZN2nn2sf4cmif6client6detail13CmifProxyImplINS_6aocsrv6detail20IAddOnContentManagerENS0_4hipc6client18Hipc2ProxyKindBaseILNS8_6detail11MessageTypeE4EEENS0_30MemoryResourceAllocationPolicyES7_E43_nn_sf_sync_ListAddOnContentByApplicationIdENS0_3OutIivEERKNS0_8OutArrayIiEEiiNS_3ncm13ApplicationIdE
00000000003a837c g    DF .text	00000000000003b8 dcngettext
0000000000124548 g    DF .text	000000000000014c _ZN2nn7friends6detail9CallAsyncEPNS0_12AsyncContextEPKcPFNS_6ResultEPNS1_3ipc14IFriendServiceEPvEPFvPKvSA_mESE_
00000000002b4c0c g    DF .text	000000000000000c _ZNK7android19IGraphicBufferAlloc22getInterfaceDescriptorEv
00000000000ac740 g    DF .text	0000000000000068 _ZN2nn6socket8resolver3tls10InitializeEv
00000000000bb240  w   DF .text	0000000000000020 _ZN2nn2sf4cmif6client6detail13CmifProxyImplINS_7account4baas12IManagerBaseENS2_15CmifDomainProxyINS0_4hipc6client38Hipc2ClientSessionManagedProxyKindBaseINSA_18Hipc2ProxyKindBaseILNS9_6detail11MessageTypeE4EEEEEEENS0_25StatelessAllocationPolicyINS0_22ExpHeapStaticAllocatorILm2048ENS5_6detail12ObjectHolder24ObjectHolderAllocatorTagEEEEENS6_14IAdministratorEE29_nn_sf_sync_CheckAvailabilityEv
0000000000346530 g    DF .text	0000000000000094 _ZNSt3__110__time_putD1Ev
000000000082e3d8 g    DO .rodata	0000000000000040 __c_locale
00000000003350f8  w   DF .text	0000000000000480 _ZNKSt3__17num_getIcNS_19istreambuf_iteratorIcNS_11char_traitsIcEEEEE15__do_get_signedIxEES4_S4_S4_RNS_8ios_baseERjRT_
0000000000971c98 g    DO .data	0000000000000250 _ZTVN7android17BnSurfaceComposerE
0000000000396688 g    DF .text	0000000000000004 _ZNSt9exceptionD2Ev
00000000000926bc g    DF .text	000000000000003c _ZN2nn2os6detail17MemoryHeapManager25SplitFreeMemoryNodeUnsafeENS_4util13IntrusiveListINS1_14FreeMemoryNodeENS3_29IntrusiveListMemberNodeTraitsIS5_XadL_ZNS5_6m_nodeEEES5_EEE8iteratorEm
0000000000958ac0  w   DO .data	0000000000000038 _ZTIN2nn2sf4impl6detail17ImplTemplateBaseTINS_5audio6detail14IAudioRendererES6_NS0_6detail18EmplacedImplHolderINS4_6server24AudioRendererManagerImpl17AudioRendererImplEEESC_S6_EE
0000000000008100  w   DF .text	0000000000000008 _ZN2nn6crypto6detail11XtsModeImplINS1_20XtsModeGenericHelperEEC2Ev
0000000000186724 g    DF .text	0000000000000048 _ZN2nn5audio11RemoveDelayEPNS0_19AudioRendererConfigEPNS0_9DelayTypeEPNS0_12FinalMixTypeE
00000000001b5c58 g    DF .text	0000000000000008 _ZNK2nn3mii16CharInfoAccessor9GetHeightEv
00000000003153bc g    DF .text	0000000000000088 _ZN2nn4gpio13BindInterruptEPNS_2os15SystemEventTypeEPNS0_14GpioPadSessionE
00000000001b6658 g    DF .text	0000000000000014 _ZN2nn3mii16GetNoselineColorENS0_9GammaTypeE
0000000000165954 g    DF .text	0000000000000020 _ZN2nn5prepo16SystemPlayReport3AddEPKcd
0000000000a80cb0  w   DO .bss	0000000000000010 _ZNSt3__110moneypunctIcLb1EE2idE
0000000000186004 g    DF .text	000000000000008c _ZN2nn5audio14AddBufferMixerEPNS0_19AudioRendererConfigEPNS0_15BufferMixerTypeEPNS0_12FinalMixTypeE
0000000000066f68 g    DF .text	0000000000000020 _ZN2nn2fs21MountSaveDataForDebugEPKc
00000000002552c8 g    DF .text	00000000000000b4 _ZN2nn3web13ShowSharePageEPNS0_20SharePageReturnValueERKNS0_16ShowSharePageArgE
0000000000149640 g    DF .text	0000000000000064 _ZN2nn3ngc6detail2Bp6ImportEPNS1_12BinaryReaderE
00000000000b9cec  w   DF .text	000000000000009c _ZN2nn2sf4cmif6client6detail13CmifProxyImplINS_7account31IAccountServiceForSystemServiceENS2_15CmifDomainProxyINS0_4hipc6client38Hipc2ClientSessionManagedProxyKindBaseINS9_18Hipc2ProxyKindBaseILNS8_6detail11MessageTypeE4EEEEEEENS0_25StatelessAllocationPolicyINS0_22ExpHeapStaticAllocatorILm2048ENS5_6detail12ObjectHolder24ObjectHolderAllocatorTagEEEEENS5_31IAccountServiceForAdministratorEE49_nn_sf_sync_GetBaasAccountManagerForSystemServiceENS0_3OutINS0_13SharedPointerINS5_4baas24IManagerForSystemServiceEEEvEERKNS5_3UidE
000000000094daa0  w   DO .data	0000000000000038 _ZTIN2nn2sf6detail38ObjectImplFactoryWithStatefulAllocatorINS0_4cmif6client16CmifProxyFactoryINS_2am7service19ILibraryAppletProxyENS4_15CmifDomainProxyINS0_4hipc6client38Hipc2ClientSessionManagedProxyKindBaseINSB_18Hipc2ProxyKindBaseILNSA_6detail11MessageTypeE4EEEEEEENS0_30MemoryResourceAllocationPolicyEE13ServiceObjectESJ_E6ObjectE
0000000000165914 g    DF .text	0000000000000020 _ZN2nn5prepo16SystemPlayReport3AddEPKcl
000000000022bc20 g    DF .text	0000000000000064 _ZN2nn3hid6system21GetUniquePadsFromNpadEPNS1_11UniquePadIdEiRKj
0000000000092324 g    DF .text	00000000000000b0 _ZN2nn2os6detail10TlsManager20InvokeTlsDestructorsEv
0000000000160f74  w   DF .text	0000000000000030 _ZN2nn2sf4cmif6client6detail13CmifProxyImplINS_4pctl6detail3ipc23IParentalControlServiceENS2_15CmifDomainProxyINS0_4hipc6client38Hipc2ClientSessionManagedProxyKindBaseINSB_18Hipc2ProxyKindBaseILNSA_6detail11MessageTypeE4EEEEEEENS0_30MemoryResourceAllocationPolicyES8_E35_nn_sf_sync_GetAccountMiiImageAsyncENS0_3OutINS6_9AsyncDataEvEENSL_INS0_12NativeHandleEvEENSL_IjvEERKNS0_9OutBufferERKNS6_22PairingAccountInfoBaseE
00000000000ee75c g    DF .text	0000000000000164 renormalise_vector
000000000012d690 g    DF .text	0000000000000040 _ZN2nn2fs36CorruptSaveDataThumbnailFileForDebugEmRKNS_7account3UidE
000000000097a0c8  w   DO .data	0000000000000030 _ZTVNSt3__18time_putIcNS_19ostreambuf_iteratorIcNS_11char_traitsIcEEEEEE
00000000003e4554 g    DF .text	0000000000000038 timespec_get
000000000009067c g    DF .text	0000000000000040 _ZN2nn2os18SdkAllocateTlsSlotEPNS0_7TlsSlotEPFvmE
00000000000c12ac g    DF .text	0000000000000048 _ZN2nn7account42NintendoAccountAuthorizationRequestContextC2EOS1_
00000000001d9d10 g    DF .text	0000000000000004 _ZN2nn6fontll18ScalableFontEngine8FinalizeEv
000000000018c158 g    DF .text	0000000000000054 _ZN2nn5audio17SetVoiceMixVolumeEPNS0_9VoiceTypeEPNS0_12FinalMixTypeEfii
00000000000d40c0 g    DF .text	000000000000000c _ZN2nn6applet14ReleaseStorageENS0_13StorageHandleE
000000000024fd34 g    DF .text	0000000000000044 _ZN2nn3ldn24GetIpv4AddressForMonitorEPNS0_11Ipv4AddressEPNS0_10SubnetMaskE
00000000000473d4 g    DF .text	0000000000000048 _ZN2nn2fs23ScopedAutoAbortDisablerC2Ev
0000000000174a10  w   DF .text	0000000000000024 _ZN2nn2sf4cmif6client6detail13CmifProxyImplINS_8settings21ISystemSettingsServerENS0_4hipc6client18Hipc2ProxyKindBaseILNS7_6detail11MessageTypeE4EEENS0_25StatelessAllocationPolicyINS0_22ExpHeapStaticAllocatorILm16384ES6_EEEES6_E29_nn_sf_sync_GetDeviceNickNameENS0_3OutINS5_6system14DeviceNickNameEvEE
000000000005f8f8 g    DF .text	0000000000000038 _ZN2nn2fs6detail24FileServiceObjectAdapter7DoWriteElPKvmRKNS0_11WriteOptionE
0000000000182e38 g    DF .text	0000000000000078 _ZN2nn3ntc4shim29ResumeAutonomicTimeCorrectionEv
00000000001eb4ec g    DF .text	0000000000000294 emboss_graymap
0000000000361290 g    DF .text	0000000000000094 _ZNSt3__111timed_mutexD1Ev
00000000001695cc g    DF .text	0000000000000044 _ZN2nn8settings6system24SetVibrationMasterVolumeEf
0000000000215110 g    DF .text	00000000000000cc _ZN2nn3hid6detail23InitializeCaptureButtonEv
000000000003b750 g    DF .text	0000000000000014 _ZN2nn4util16BinaryFileHeader18GetRelocationTableEv
0000000000150534 g    DF .text	0000000000000018 _ZN2nn4nifm6detail29TemporaryNetworkProfileClientD1Ev
00000000001f8c6c g    DF .text	0000000000000378 BAZOutlineSmooth
0000000000230fb8  w   DF .text	0000000000000020 _ZN2nn2sf4cmif6client6detail13CmifProxyImplINS_3hid15IHidDebugServerENS0_4hipc6client18Hipc2ProxyKindBaseILNS7_6detail11MessageTypeE4EEENS0_25StatelessAllocationPolicyINS0_22ExpHeapStaticAllocatorILm16384ENS5_6detail14HidDebugServerEEEEES6_E36_nn_sf_sync_IsFirmwareUpdatingDeviceENS0_3OutIbvEENS5_6system11UniquePadIdE
00000000001c34f8 g    DF .text	0000000000000010 _ZN2nn3mii6detail16Ver3StoreDataRaw11SetMoleTypeEi
00000000001b4fd8 g    DF .text	0000000000000060 _ZN2nn2la28StartLibraryAppletBackgroundEPKvmNS_6applet8AppletIdEb
00000000002504e8 g    DF .text	000000000000003c _ZN2nn3ldn16GetNetworkConfigEPNS0_13NetworkConfigE
00000000000cd868  w   DF .text	0000000000000008 _ZN2nn2sf6detail38ObjectImplFactoryWithStatefulAllocatorINS0_4cmif6client16CmifProxyFactoryINS_2am7service19IOverlayAppletProxyENS4_15CmifDomainProxyINS0_4hipc6client38Hipc2ClientSessionManagedProxyKindBaseINSB_18Hipc2ProxyKindBaseILNSA_6detail11MessageTypeE4EEEEEEENS0_30MemoryResourceAllocationPolicyEE13ServiceObjectESJ_E6Object12AddReferenceEv
0000000000812260  w   DO .rodata	0000000000000029 _ZTSN2nn3ldn6detail22IMonitorServiceCreatorE
0000000000042258 g    DF .text	0000000000000020 _ZN2nn4edid6detail30GetDetailedTimingHsyncPolarityEh
000000000017eab8 g    DF .text	000000000000001c _ZN2nn4time39AsyncEnsureNetworkClockAvailabilityTaskC1Ev
0000000000319a30  w   DF .text	0000000000000028 _ZN2nn2sf4cmif6client6detail13CmifProxyImplINS_3pcv17IImmediateManagerENS0_4hipc6client18Hipc2ProxyKindBaseILNS7_6detail11MessageTypeE4EEENS0_30MemoryResourceAllocationPolicyES6_E24_nn_sf_sync_SetClockRateEij
00000000000b4d44  w   DF .text	0000000000000164 _ZN2nn2sf4cmif6client34CmifDomainProxyClientCoreProcessorINS0_4hipc6client38Hipc2ClientSessionManagedProxyKindBaseINS5_18Hipc2ProxyKindBaseILNS4_6detail11MessageTypeE4EEEEENS1_6detail14CoreMethodInfoINSt3__15tupleIJNSC_18OutRawArgumentInfoILm1ELm1ELl0EEENSC_17InRawArgumentInfoILm16ELm8ELl0EEEEEELm16ELm1ELb0EEESK_E7ProcessEPNS2_23CmifDomainClientMessageISB_E15ProxyBaseObjectENS2_24OutRawClientArgumentTypeILm1ELm1EEENS2_23InRawClientArgumentTypeILm16ELm8EvEEj
0000000000240c94  w   DF .text	00000000000003f8 _ZN22nerd_gillette_internal5otete7jaimev29SerializeINS0_15BitStreamReaderINS0_14InputBitStreamEEEEEbRNS1_20ProtuberanceInPacketERT_
000000000032bd3c  w   DF .text	000000000000014c _ZNSt3__113basic_istreamIcNS_11char_traitsIcEEE8readsomeEPcl
000000000039c92c g    DF .text	0000000000000024 _Unwind_GetGR
00000000000e8ea4 g    DF .text	0000000000000138 ec_encode
00000000001f0160 g    DF .text	00000000000000b8 FixSqrt
00000000000514a0 g    DF .text	0000000000000098 _ZN2nn2fs18InvalidateBisCacheEv
0000000000286750 g    DF .text	000000000000000c NvRmGpuDeviceZbcGetTableSize
00000000003e7d24 g    DF .text	0000000000000050 __nnmusl_GetThreadNamePointer
0000000000946c10  w   DO .data	0000000000000018 _ZTIN2nn6socket8resolver9IResolverE
0000000000327f00 g    DF .text	00000000000000c0 _ZNSt3__120__threads_data_queueD1Ev
00000000008232e0 g    DO .rodata	0000000000000022 _ZTSNSt3__115__codecvt_utf16IDsLb1EEE
000000000003d49c g    DF .text	0000000000000084 _ZN2nn4util40InitializeStreamingDecompressZlibContextEPNS0_30StreamingDecompressZlibContextE
000000000036de74 g    DF .text	000000000000001c _ZNSt13__libcxx_shim19__libcxx_shim_ver_119__allocate_tls_slotEPNS0_11__tls_key_tEPFvmE
0000000000095f18 g    DF .text	0000000000000050 _ZNK2nn2os6detail26ThreadManagerImplByHorizon17SetThreadCoreMaskEPNS0_10ThreadTypeEim
000000000006f024 g    DF .text	0000000000000054 _ZN2nn4lmem13FreeToExpHeapEPNS0_6detail8HeapHeadEPv
0000000000091344 g    DF .text	0000000000000004 nnosFinalizeSemaphore
000000000025bd28 g    DF .text	000000000000000c NvMemoryProfilerBeginFree
00000000009510f0  w   DO .data	0000000000000018 _ZTIN2nn2sf4cmif6client16CmifProxyFactoryINS_7friends6detail3ipc15IServiceCreatorENS2_15CmifDomainProxyINS0_4hipc6client38Hipc2ClientSessionManagedProxyKindBaseINSA_18Hipc2ProxyKindBaseILNS9_6detail11MessageTypeE4EEEEEEENS0_30MemoryResourceAllocationPolicyEE13ServiceObjectE
0000000000361f34 g    DF .text	000000000000004c _ZNKSt3__123__match_any_but_newlineIcE6__execERNS_7__stateIcEE
00000000008044e0  w   DO .rodata	0000000000000061 _ZTSN2nn3hid6detail8RingLifoINS1_33SixAxisSensorUserCalibrationStateELi1ENS1_13AtomicStorageIS3_EEEE
00000000002a61e4 g    DF .text	0000000000000008 ashmem_create_region
0000000000943c40  w   DO .data	0000000000000018 _ZTIN2nn5fssrv2sf24ISaveDataTransferManagerE
00000000007a8670 g    DO .rodata	0000000000000019 _ZTSN2nn5image11ExifBuilderE
0000000000160c20  w   DF .text	0000000000000020 _ZN2nn2sf4cmif6client6detail13CmifProxyImplINS_4pctl6detail3ipc23IParentalControlServiceENS2_15CmifDomainProxyINS0_4hipc6client38Hipc2ClientSessionManagedProxyKindBaseINSB_18Hipc2ProxyKindBaseILNSA_6detail11MessageTypeE4EEEEEEENS0_30MemoryResourceAllocationPolicyES8_E37_nn_sf_sync_GetPlayTimerRemainingTimeENS0_3OutINS_12TimeSpanTypeEvEE
000000000021cab0 g    DF .text	000000000000007c _ZN2nn3hid6detail24SetAccelerometerPlayModeENS0_19SixAxisSensorHandleENS0_21AccelerometerPlayModeE
00000000003e1bb0 g    DF .text	0000000000000138 memset
00000000001cdfd4  w   DF .text	0000000000000160 _ZN2nn2sf4hipc6client24Hipc2ClientCoreProcessorILNS1_6detail11MessageTypeE4ENS0_4cmif6detail14CoreMethodInfoINSt3__15tupleIJNS7_17InRawArgumentInfoILm4ELm4ELl0EEENSB_ILm4ELm4ELl4EEENS7_21OutHandleArgumentInfoILi0ELi1EEEEEELm8ELm0ELb0EEESG_E7ProcessEPNS2_26Hipc2ClientProxyBaseObjectENS6_6client23InRawClientArgumentTypeILm4ELm4EvEESN_NSL_27OutHandleClientArgumentTypeEj
0000000000359458 g    DF .text	00000000000000a0 _ZNKSt3__115__codecvt_utf16IDsLb0EE6do_outER11__mbstate_tPKDsS5_RS5_PcS7_RS7_
00000000001d5bb4  w   DF .text	0000000000000004 _ZNK2nn2sf13SharedPointerINS_5visrv2sf21ISystemDisplayServiceEE19FunctionForBoolTypeEv
0000000000222994 g    DF .text	0000000000000234 _ZN2nn3hid6detail20GetTouchScreenStatesILm2EEENS_6ResultEPiPNS0_16TouchScreenStateIXT_EEEi
00000000007b0da0  w   DO .rodata	0000000000000031 _ZTSN2nn2sf4hipc6client26Hipc2ClientProxyBaseObjectE
000000000011ce8c g    DF .text	00000000000000d8 _ZN2nn7friends10InitializeEv
00000000001247b0 g    DF .text	0000000000000080 _ZN2nn7friends6detail20AsyncContextInternal14DeleteInstanceEPS2_
0000000000166400 g    DF .text	000000000000011c _ZN2nn5prepo6detail19PlayReportGenerator11AddKeyValueEPmPKclPhmm
0000000000044d44 g    DF .text	0000000000000040 nndetailDiagVLogImplForC
0000000000072a60 g    DF .text	0000000000000260 nnmem_nlib_memcmp
00000000001e04d8 g    DF .text	00000000000000e0 FSS_get_link_info
000000000006ebc0  w   DF .text	0000000000000164 _ZN2nn2sf4cmif6client34CmifDomainProxyClientCoreProcessorINS0_4hipc6client38Hipc2ClientSessionManagedProxyKindBaseINS5_18Hipc2ProxyKindBaseILNS4_6detail11MessageTypeE4EEEEENS1_6detail14CoreMethodInfoINSt3__15tupleIJNSC_18OutRawArgumentInfoILm8ELm8ELl0EEENSC_17InRawArgumentInfoILm64ELm1ELl0EEEEEELm64ELm8ELb0EEESK_E7ProcessEPNS2_23CmifDomainClientMessageISB_E15ProxyBaseObjectENS2_24OutRawClientArgumentTypeILm8ELm8EEENS2_23InRawClientArgumentTypeILm64ELm1EvEEj
000000000094c7e0  w   DO .data	0000000000000048 _ZTIN2nn2sf4cmif6client6detail13CmifProxyImplINS_2am7service15IDebugFunctionsENS2_15CmifDomainProxyINS0_4hipc6client38Hipc2ClientSessionManagedProxyKindBaseINSA_18Hipc2ProxyKindBaseILNS9_6detail11MessageTypeE4EEEEEEENS0_30MemoryResourceAllocationPolicyES7_EE
00000000001d5050 g    DF .text	00000000000000b8 _ZN2nn2vi13ObjectManager27CreateValidateDisplayHolderEmPKc
000000000004235c g    DF .text	0000000000000010 _ZN2nn4edid6detail26IsDetailedTimingInterlacedEh
000000000004c1ec g    DF .text	0000000000000100 _ZN2nn2fs15RomFsFileSystem10DoOpenFileEPNSt3__110unique_ptrINS0_3fsa5IFileENS2_14default_deleteIS5_EEEEPKcNS0_8OpenModeE
0000000000070f20 g    DF .text	0000000000000024 _ZN2nn4lmem6detail17AllocFromUnitHeapEPNS1_8HeapHeadE
000000000003b844 g    DF .text	0000000000000014 _ZN2nn4util16BinaryFileHeader13SetFirstBlockEPNS0_17BinaryBlockHeaderE
0000000000316098 g    DF .text	0000000000000004 nngpioGetDirection
000000000012cb5c g    DF .text	000000000000004c _ZN2nn2fs13MountSaveDataEPKcRKNS_7account3UidE
000000000015b72c g    DF .text	0000000000000074 _ZN2nn2oe43GetUserInactivityDetectionTimeExtensionModeEv
000000000022e83c g    DF .text	0000000000000058 _ZN2nn3hid6system14IsUsbConnectedENS1_11UniquePadIdE
000000000024f7d0 g    DF .text	00000000000000a0 _ZN2nn3ldn14FinalizeSystemEv
000000000022a0f8 g    DF .text	0000000000000054 _ZNK2nn3hid15KeyCodeComposer14GetCompositionEPti
0000000000361a48  w   DF .text	0000000000000084 _ZnwmSt11align_val_t
00000000001bc82c g    DF .text	0000000000000004 _ZNK2nn3mii6detail12StoreDataRaw15GetEyebrowColorEv
00000000000a1d7c g    DF .text	00000000000000e0 _ZN2nn6socket6detail7ReallocEPvm
000000000006aa5c g    DF .text	0000000000000094 _ZN2nn2fs23SaveDataTransferManager8SetTokenEPKvm
0000000000121b80 g    DF .text	000000000000013c _ZN2nn7friends29GetPlayHistoryRegistrationKeyEPNS0_26PlayHistoryRegistrationKeyENS_7account23NetworkServiceAccountIdEb
000000000012d6d0 g    DF .text	0000000000000078 _ZN2nn2fs23SaveDataTransferManager20OpenSaveDataImporterEPNSt3__110unique_ptrINS0_16SaveDataImporterENS2_14default_deleteIS4_EEEEPlPKvmRKNS_7account3UidENS0_15SaveDataSpaceIdE
000000000036d3f4 g    DF .text	0000000000000018 _ZNSt3__129__libcpp_recursive_mutex_lockEPNSt13__libcxx_shim19__libcxx_shim_ver_119__libcxx_shim_mutexE
000000000011919c g    DF .text	0000000000000028 _ZN2nn5codec6detail20GetLookAheadInternalEP11OpusEncoder
000000000036835c g    DF .text	00000000000001e4 _ZNSt3__15stollERKNS_12basic_stringIwNS_11char_traitsIwEENS_9allocatorIwEEEEPmi
00000000001bc804 g    DF .text	0000000000000004 _ZNK2nn3mii6detail12StoreDataRaw12GetHairColorEv
0000000000803e20  w   DO .rodata	0000000000000052 _ZTSN2nn3hid6detail8RingLifoINS0_17NpadJoyRightStateELi16ENS1_13AtomicStorageIS3_EEEE
00000000003c3d5c g    DF .text	0000000000000008 catclose
000000000014b500 g    DF .text	00000000000000c4 _ZN2nn3ngc6detail12OutputStream12WriteGather_EPKNS1_7FdIoVecEi
000000000010a55c g    DF .text	0000000000000134 opus_decoder_create
000000000016ae54 g    DF .text	0000000000000044 _ZN2nn8settings6system29GetDeviceTimeZoneLocationNameEPNS_4time12LocationNameE
00000000007c4330  w   DO .rodata	0000000000000032 _ZTSN2nn7account34NetworkServiceAccountAdministratorE
00000000002203fc  w   DF .text	0000000000000004 _ZN2nn3hid6detail8RingLifoINS0_17NpadJoyRightStateELi16ENS1_13AtomicStorageIS3_EEED2Ev
00000000002cf048 g    DF .text	000000000000002c _ZN7android7String8C1EPKDsm
00000000009426f0  w   DO .data	0000000000000018 _ZTIN2nn2sf4hipc6client26Hipc2ClientProxyBaseObjectE
00000000001c3388 g    DF .text	0000000000000010 _ZN2nn3mii6detail16Ver3StoreDataRaw15SetEyebrowColorEi
00000000000b7808  w   DF .text	000000000000002c _ZN2nn2sf4cmif6client6detail13CmifProxyImplINS_7account19IAccountServiceBaseENS2_15CmifDomainProxyINS0_4hipc6client38Hipc2ClientSessionManagedProxyKindBaseINS9_18Hipc2ProxyKindBaseILNS8_6detail11MessageTypeE4EEEEEEENS0_25StatelessAllocationPolicyINS0_22ExpHeapStaticAllocatorILm2048ENS5_6detail12ObjectHolder24ObjectHolderAllocatorTagEEEEENS5_31IAccountServiceForSystemServiceEE24_nn_sf_sync_ListAllUsersERKNS0_8OutArrayINS5_3UidEEE
00000000003c7f90 g    DF .text	000000000000018c cosf
00000000000b7bcc  w   DF .text	0000000000000090 _ZN2nn2sf4cmif6client6detail13CmifProxyImplINS_7account31IAccountServiceForSystemServiceENS2_15CmifDomainProxyINS0_4hipc6client38Hipc2ClientSessionManagedProxyKindBaseINS9_18Hipc2ProxyKindBaseILNS8_6detail11MessageTypeE4EEEEEEENS0_25StatelessAllocationPolicyINS0_22ExpHeapStaticAllocatorILm2048ENS5_6detail12ObjectHolder24ObjectHolderAllocatorTagEEEEES6_E36_nn_sf_sync_GetProfileUpdateNotifierENS0_3OutINS0_13SharedPointerINSJ_9INotifierEEEvEE
00000000002c3b0c g    DF .text	0000000000000024 _ZNK7android14SurfaceControl20clearLayerFrameStatsEv
000000000039c954 g    DF .text	0000000000000028 _Unwind_GetIP
00000000003c811c g    DF .text	00000000000000ac cosh
000000000004cfa4 g    DF .text	000000000000002c _ZN2nn2fs6detail12FileAccessor16UpdateLastResultENS_6ResultE
00000000001752a4  w   DF .text	00000000000000b0 _ZN2nn2sf6detail39ObjectImplFactoryWithStatelessAllocatorINS0_4cmif6client16CmifProxyFactoryINS_8settings21ISystemSettingsServerENS0_4hipc6client18Hipc2ProxyKindBaseILNS8_6detail11MessageTypeE4EEENS0_25StatelessAllocationPolicyINS0_22ExpHeapStaticAllocatorILm16384ES7_EEEEE13ServiceObjectESH_E6Object11DisposeImplEv
00000000001f8b04 g    DF .text	0000000000000168 RoundFuncCall
00000000000b9f9c  w   DF .text	0000000000000038 _ZN2nn2sf4cmif6client6detail13CmifProxyImplINS_7account31IAccountServiceForSystemServiceENS2_15CmifDomainProxyINS0_4hipc6client38Hipc2ClientSessionManagedProxyKindBaseINS9_18Hipc2ProxyKindBaseILNS8_6detail11MessageTypeE4EEEEEEENS0_25StatelessAllocationPolicyINS0_22ExpHeapStaticAllocatorILm2048ENS5_6detail12ObjectHolder24ObjectHolderAllocatorTagEEEEENS5_31IAccountServiceForAdministratorEE33_nn_sf_sync_LoadSaveDataThumbnailENS0_3OutIjvEERKNS0_9OutBufferERKNS5_3UidENS_13ApplicationIdE
00000000001d0288  w   DF .text	0000000000000024 _ZN2nn2sf4cmif6client6detail13CmifProxyImplINS_5visrv2sf22IManagerDisplayServiceENS0_4hipc6client18Hipc2ProxyKindBaseILNS8_6detail11MessageTypeE4EEENS0_30MemoryResourceAllocationPolicyES7_E30_nn_sf_sync_SetLayerVisibilityEmb
000000000029dd04 g    DF .text	0000000000000014 _ZNK7android6Parcel8dataSizeEv
00000000009479e0  w   DO .data	0000000000000018 _ZTIN2nn2sf4cmif6client16CmifProxyFactoryINS_7account31IAccountServiceForSystemServiceENS2_15CmifDomainProxyINS0_4hipc6client38Hipc2ClientSessionManagedProxyKindBaseINS8_18Hipc2ProxyKindBaseILNS7_6detail11MessageTypeE4EEEEEEENS0_25StatelessAllocationPolicyINS0_22ExpHeapStaticAllocatorILm2048ENS4_6detail12ObjectHolder24ObjectHolderAllocatorTagEEEEEE13ServiceObjectE
00000000007eef70  w   DO .rodata	0000000000000035 _ZTSN2nn5audio6detail32IAudioRendererManagerForDebuggerE
00000000003c8294 g    DF .text	00000000000000f4 cosl
00000000000ad030 g    DF .text	000000000000000c _ZN2nn6socket8resolver13GetHostByNameEPKc
000000000016be70 g    DF .text	0000000000000070 _ZN2nn8settings6detail22GetPrimaryAlbumStorageEPi
0000000000a83490  w   DO .bss	0000000000000008 environ
00000000009a2dd0 g    DO .bss	0000000000000008 _ZN2nn2fs16g_DefaultContextE
00000000000d8814  w   DF .text	0000000000000008 _ZN2nn2sf6detail38ObjectImplFactoryWithStatefulAllocatorINS0_4cmif6client16CmifProxyFactoryINS_4bcat6detail3ipc29IDeliveryCacheProgressServiceENS4_15CmifDomainProxyINS0_4hipc6client38Hipc2ClientSessionManagedProxyKindBaseINSC_18Hipc2ProxyKindBaseILNSB_6detail11MessageTypeE4EEEEEEENS0_30MemoryResourceAllocationPolicyEE13ServiceObjectESK_E6Object12AddReferenceEv
00000000003a7c5c g    DF .text	0000000000000000 sqrtf
00000000001a79a0 g    DF .text	0000000000000030 _ZN2nn5audio6server24AudioRendererManagerImpl15AudioDeviceImpl24GetActiveAudioDeviceNameERKNS_2sf9OutBufferE
00000000001a81e8 g    DF .text	0000000000000004 _ZN2nn5audio3dsp19InvalidateDataCacheEPvmb
0000000000979688  w   DO .data	0000000000000010 _ZTTNSt3__113basic_ostreamIwNS_11char_traitsIwEEEE
00000000007b9030  w   DO .rodata	0000000000000023 _ZTSN2nn2sf4hipc6detail12IHipcManagerE
0000000000059da4  w   DF .text	00000000000001d8 _ZN2nn2sf4cmif6client34CmifDomainProxyClientCoreProcessorINS0_4hipc6client38Hipc2ClientSessionManagedProxyKindBaseINS5_18Hipc2ProxyKindBaseILNS4_6detail11MessageTypeE4EEEEENS1_6detail14CoreMethodInfoINSt3__15tupleIJNSC_18BufferArgumentInfoILi0ELi6ELm0EEENSC_17InRawArgumentInfoILm1ELm1ELl0EEENSI_ILm8ELm8ELl8EEEEEELm16ELm0ELb0EEESL_E7ProcessEPNS2_23CmifDomainClientMessageISB_E15ProxyBaseObjectENS2_24BufferClientArgumentTypeENS2_23InRawClientArgumentTypeILm1ELm1EvEENST_ILm8ELm8EvEEj
00000000000bb260  w   DF .text	0000000000000020 _ZN2nn2sf4cmif6client6detail13CmifProxyImplINS_7account4baas12IManagerBaseENS2_15CmifDomainProxyINS0_4hipc6client38Hipc2ClientSessionManagedProxyKindBaseINSA_18Hipc2ProxyKindBaseILNS9_6detail11MessageTypeE4EEEEEEENS0_25StatelessAllocationPolicyINS0_22ExpHeapStaticAllocatorILm2048ENS5_6detail12ObjectHolder24ObjectHolderAllocatorTagEEEEENS6_14IAdministratorEE24_nn_sf_sync_GetAccountIdENS0_3OutINS5_23NetworkServiceAccountIdEvEE
0000000000091440 g    DF .text	0000000000000004 nnosInitializeMultiWaitHolderForEvent
00000000001caa20 g    DF .text	0000000000000024 _ZN2nn5swkbd6detail18InlineKeyboardImpl11SetUtf8ModeEb
00000000001cea60  w   DF .text	0000000000000020 _ZN2nn2sf4cmif6client6detail13CmifProxyImplINS_5visrv2sf21ISystemDisplayServiceENS0_4hipc6client18Hipc2ProxyKindBaseILNS8_6detail11MessageTypeE4EEENS0_30MemoryResourceAllocationPolicyES7_E47_nn_sf_sync_GetSharedFrameBufferAcquirableEventENS0_3OutINS0_12NativeHandleEvEENS_2vi7fbshare17SharedLayerHandleE
00000000003160a0 g    DF .text	0000000000000004 nngpioGetInterruptMode
00000000003cf114 g    DF .text	0000000000000030 sqrtl
0000000000183738 g    DF .text	0000000000000010 _ZN2nn3ntc6detail4shim40EnsureNetworkClockAvailabilityClientImpl6CancelEv
00000000001491b8 g    DF .text	000000000000006c _ZNK2nn3ngc6detail2Bp8FindOpenEj
00000000008254c8 g    DO .rodata	0000000000000003 _ZTSDh
000000000094e600  w   DO .data	0000000000000018 _ZTIN2nn2sf4cmif6client6detail9CmifProxyINS_2am7service24IApplicationProxyServiceENS2_15CmifDomainProxyINS0_4hipc6client38Hipc2ClientSessionManagedProxyKindBaseINSA_18Hipc2ProxyKindBaseILNS9_6detail11MessageTypeE4EEEEEEENS0_30MemoryResourceAllocationPolicyEvEE
000000000010a3b8 g    DF .text	00000000000001a4 opus_decoder_init
000000000011f810 g    DF .text	0000000000000168 _ZN2nn7friends22GetFriendCandidateListEPNS0_12AsyncContextEPiPNS0_15FriendCandidateERKNS_7account3UidEiNS0_19FriendCandidateTypeE
0000000000396878 g    DF .text	000000000000005c _ZNSt16invalid_argumentD0Ev
0000000000825518 g    DO .rodata	0000000000000003 _ZTSDi
0000000000948280  w   DO .data	0000000000000018 _ZTIN2nn2sf4cmif6client6detail13CmifProxyImplINS_7account4baas28IFloatingRegistrationRequestENS2_15CmifDomainProxyINS0_4hipc6client38Hipc2ClientSessionManagedProxyKindBaseINSA_18Hipc2ProxyKindBaseILNS9_6detail11MessageTypeE4EEEEEEENS0_25StatelessAllocationPolicyINS0_22ExpHeapStaticAllocatorILm2048ENS5_6detail12ObjectHolder24ObjectHolderAllocatorTagEEEEES7_EE
00000000009591f0  w   DO .data	0000000000000018 _ZTIN2nn5audio6server8SinkInfoINS0_6common23CircularBufferParameterENS1_23CircularBufferSinkStateEEE
00000000001a553c g    DF .text	0000000000000044 _ZNK2nn5audio6server15SplitterContext13UsingSplitterEv
00000000001fa9ac g    DF .text	0000000000000104 init_phantom_points
00000000003966ac g    DF .text	0000000000000054 _ZNSt12out_of_rangeD1Ev
0000000000318bc4  w   DF .text	0000000000000040 _ZN2nn2sf4cmif6client6detail13CmifProxyImplINS_3pcv6detail11IPcvServiceENS0_4hipc6client18Hipc2ProxyKindBaseILNS8_6detail11MessageTypeE4EEENS0_30MemoryResourceAllocationPolicyES7_E33_nn_sf_sync_GetPossibleClockRatesENS0_3OutIivEERKNS0_8OutArrayIjEESH_ii
0000000000825404 g    DO .rodata	0000000000000003 _ZTSDn
00000000000dd8cc g    DF .text	0000000000000044 celt_decoder_get_size
00000000002c925c g    DF .text	0000000000000014 _ZNK7android10FrameStats16getFlattenedSizeEv
0000000000801590  w   DO .rodata	00000000000000b3 _ZTSN2nn2sf4cmif6client6detail9CmifProxyIN3nns9hosbinder16IHOSBinderDriverENS0_4hipc6client18Hipc2ProxyKindBaseILNS8_6detail11MessageTypeE4EEENS0_30MemoryResourceAllocationPolicyEvEE
0000000000825508 g    DO .rodata	0000000000000003 _ZTSDs
00000000003dfd64 g    DF .text	000000000000009c .protected __overflow
00000000000a1c40 g    DF .text	0000000000000004 nnsocketCancel
00000000000b9b68  w   DF .text	0000000000000020 _ZN2nn2sf4cmif6client6detail13CmifProxyImplINS_7account19IAccountServiceBaseENS2_15CmifDomainProxyINS0_4hipc6client38Hipc2ClientSessionManagedProxyKindBaseINS9_18Hipc2ProxyKindBaseILNS8_6detail11MessageTypeE4EEEEEEENS0_25StatelessAllocationPolicyINS0_22ExpHeapStaticAllocatorILm2048ENS5_6detail12ObjectHolder24ObjectHolderAllocatorTagEEEEENS5_31IAccountServiceForAdministratorEE28_nn_sf_sync_GetProfileDigestENS0_3OutINS5_13ProfileDigestEvEERKNS5_3UidE
00000000000bff20 g    DF .text	0000000000000024 _ZN2nn7account28NetworkServiceAccountManager26GetNetworkServiceAccountIdEPNS0_23NetworkServiceAccountIdE
000000000021da58 g    DF .text	0000000000000098 _ZN2nn3hid6detail37SetShiftAccelerometerCalibrationValueERKNS0_19SixAxisSensorHandleEff
0000000000227404 g    DF .text	0000000000000078 _ZN2nn3hid6detail20IsVibrationPermittedEPb
00000000007c8900  w   DO .rodata	0000000000000119 _ZTSN2nn2sf4cmif6client6detail13CmifProxyImplINS_2am7service15IAppletAccessorENS2_15CmifDomainProxyINS0_4hipc6client38Hipc2ClientSessionManagedProxyKindBaseINSA_18Hipc2ProxyKindBaseILNS9_6detail11MessageTypeE4EEEEEEENS0_30MemoryResourceAllocationPolicyENS6_22ILibraryAppletAccessorEEE
0000000000348b54  w   DF .text	0000000000000008 _ZNKSt3__117moneypunct_bynameIwLb1EE16do_decimal_pointEv
0000000000804ad0 g    DO .rodata	0000000000000020 _ZN2nn4util10BitFlagSetILi256ENS_3hid11KeyboardKeyEE4FlagILi23EE4MaskE
0000000000962cb0 g    DO .data	0000000000000018 _ZTIN7android12BnMemoryHeapE
00000000003e1520 g    DF .text	0000000000000004 bcmp
0000000000116af0 g    DF .text	0000000000000038 opus_multistream_encode_float
00000000001e0100 g    DF .text	00000000000000c8 FSS_font_name_with_offset
000000000097b008 g    DO .data	0000000000000060 _ZTVNSt3__117__widen_from_utf8ILm16EEE
00000000003e7590 g    DF .text	0000000000000018 __nnmusl_MutexDestroy
000000000003bbe4 g    DF .text	0000000000000018 _ZN2nn4util15RelocationTable13CalculateSizeEii
000000000016dc1c g    DF .text	0000000000000070 _ZN2nn8settings6detail14GetLcdVendorIdEPj
00000000003c3dd0 g    DF .text	0000000000000034 freelocale
000000000006ae74 g    DF .text	0000000000000024 _ZN2nn2fs30SaveDataTransferSizeCalculator23QuerySaveDataExportSizeERKNS0_12SaveDataInfoE
000000000021909c g    DF .text	0000000000000244 _ZN2nn3hid6detail26GetSixAxisSensorLeftStatesEPiPNS0_18SixAxisSensorStateEiRKNS0_9JoyXpadIdE
0000000000045e54 g    DF .text	00000000000000dc _ZN2nn4diag6detail17GetModulePathImplEPcmm
0000000000949588  w   DO .data	0000000000000020 _ZTVN2nn7account34NetworkServiceAccountAdministratorE
00000000000ca5dc  w   DF .text	0000000000000020 _ZN2nn2sf4cmif6client6detail13CmifProxyImplINS_2am7service24ITransferStorageAccessorENS2_15CmifDomainProxyINS0_4hipc6client38Hipc2ClientSessionManagedProxyKindBaseINSA_18Hipc2ProxyKindBaseILNS9_6detail11MessageTypeE4EEEEEEENS0_30MemoryResourceAllocationPolicyES7_E21_nn_sf_sync_GetHandleENS0_3OutINS0_12NativeHandleEvEENSK_ImvEE
000000000019ec24 g    DF .text	0000000000000114 _ZN2nn5audio6server13CommandBuffer33GenerateCircularBufferSinkCommandEiPKNS1_12SinkInfoBaseEj
000000000006362c g    DF .text	0000000000000100 _ZN2nn2fs27GetAndClearMemoryReportInfoEPNS0_16MemoryReportInfoE
0000000000156dfc g    DF .text	0000000000000008 _ZN2nn4nifm7RequestC2ERKNS0_17RequestParametersENS_2os14EventClearModeE
0000000000800f20  w   DO .rodata	00000000000000b9 _ZTSN2nn2sf4cmif6client6detail13CmifProxyImplINS_5visrv2sf18ISystemRootServiceENS0_4hipc6client18Hipc2ProxyKindBaseILNS8_6detail11MessageTypeE4EEENS0_30MemoryResourceAllocationPolicyES7_EE
00000000002500d8 g    DF .text	0000000000000034 _ZN2nn3ldn11OpenStationEv
0000000000017ef4 g    DF .text	0000000000000194 _ZN2nn5image6detail4jpeg21jpeg_start_decompressEPNS2_22jpeg_decompress_structE
0000000000091340 g    DF .text	0000000000000004 nnosInitializeSemaphore
00000000000f59d8 g    DF .text	000000000000002c silk_PLC_Reset
0000000000953790  w   DO .data	0000000000000038 _ZTIN2nn2sf6detail39ObjectImplFactoryWithStatelessAllocatorINS0_4cmif6client16CmifProxyFactoryINS_4nifm6detail15IGeneralServiceENS4_15CmifDomainProxyINS0_4hipc6client38Hipc2ClientSessionManagedProxyKindBaseINSB_18Hipc2ProxyKindBaseILNSA_6detail11MessageTypeE4EEEEEEENS0_25StatelessAllocationPolicyINS0_22ExpHeapStaticAllocatorILm16384ENS7_21ServiceProviderClient30CreateNifmUserServiceObjectTagEEEEEE13ServiceObjectESO_E6ObjectE
000000000026a55c g    DF .text	0000000000000294 NvRmSurfaceComputeSize
0000000000360d4c g    DF .text	0000000000000004 _ZNSt3__114__shared_countD1Ev
0000000000361458 g    DF .text	0000000000000074 _ZNSt3__111timed_mutex6unlockEv
0000000000078fe8 g    DF .text	000000000000012c nnmem_nlib_mq_readonly
00000000000982a0  w   DF .text	0000000000000100 _ZN2nn2sf4hipc6client24Hipc2ClientCoreProcessorILNS1_6detail11MessageTypeE4ENS0_4cmif6detail14CoreMethodInfoINSt3__15tupleIJNS7_17InRawArgumentInfoILm8ELm8ELl0EEENSB_ILm8ELm8ELl8EEEEEELm16ELm0ELb1EEESE_E7ProcessEPNS2_26Hipc2ClientProxyBaseObjectENS6_6client23InRawClientArgumentTypeILm8ELm8EvEESL_j
000000000095d708  w   DO .data	0000000000000058 _ZTVN2nn2sf6detail39ObjectImplFactoryWithStatelessAllocatorINS0_4cmif6client16CmifProxyFactoryINS_3hid19IHidTemporaryServerENS0_4hipc6client18Hipc2ProxyKindBaseILNS8_6detail11MessageTypeE4EEENS0_25StatelessAllocationPolicyINS0_22ExpHeapStaticAllocatorILm16384ENS6_6detail18HidTemporaryServerEEEEEE13ServiceObjectESJ_E6ObjectE
00000000002c4c00 g    DF .text	0000000000000090 _ZN7android8Composer11setPositionERKNS_2spINS_21SurfaceComposerClientEEERKNS1_INS_7IBinderEEEff
000000000097a910 g    DO .data	0000000000000068 _ZTVNSt3__15ctypeIcEE
0000000000118da0 g    DF .text	0000000000000030 _ZN2nn5codec6detail18OpusPacketInternal23GetOpusPacketCodingModeEPNS0_14OpusCodingModeEPKhm
0000000000163bfc g    DF .text	0000000000000050 _ZN2nn5prepo6detail7msgpack10WriteMap32EPNS2_17OutputStreamParamEj
000000000094fbd0  w   DO .data	0000000000000018 _ZTIN2nn2sf4cmif6client16CmifProxyFactoryINS_4bcat6detail3ipc29IDeliveryCacheProgressServiceENS2_15CmifDomainProxyINS0_4hipc6client38Hipc2ClientSessionManagedProxyKindBaseINSA_18Hipc2ProxyKindBaseILNS9_6detail11MessageTypeE4EEEEEEENS0_30MemoryResourceAllocationPolicyEE13ServiceObjectE
00000000001529a4  w   DF .text	0000000000000028 _ZN2nn2sf4cmif6client6detail13CmifProxyImplINS_4nifm6detail8IRequestENS2_15CmifDomainProxyINS0_4hipc6client38Hipc2ClientSessionManagedProxyKindBaseINSA_18Hipc2ProxyKindBaseILNS9_6detail11MessageTypeE4EEEEEEENS0_25StatelessAllocationPolicyINS0_22ExpHeapStaticAllocatorILm16384ENS6_21ServiceProviderClient30CreateNifmUserServiceObjectTagEEEEES7_E26_nn_sf_sync_SetSustainableEbh
0000000000159900 g    DF .text	00000000000000cc _ZN2nn3nsd6detail3ipc38SetChangeEnvironmentIdentifierDisabledEb
0000000000133354 g    DF .text	0000000000000068 _ZN2nn4htcs5FcntlEiii
0000000000362bf4  w   DF .text	0000000000000014 _ZNSt3__112basic_stringIcNS_11char_traitsIcEENS_9allocatorIcEEED1Ev
00000000003c28a4 g    DF .text	0000000000000064 iswctype
00000000000937a0 g    DF .text	0000000000000014 _ZNK2nn2os6detail34MultiWaitHolderOfInterProcessEvent15GetNativeHandleEPj
0000000000230128 g    DF .text	0000000000000044 _ZN2nn3hid15VibrationTargetC1ERKNS0_21VibrationDeviceHandleE
0000000000189330 g    DF .text	0000000000000020 _ZN2nn5audio14MemoryPoolInfo7PrepareEPNS1_11InParameterE
00000000001a1f08 g    DF .text	0000000000000014 _ZN2nn5audio6server18PerformanceManagerC1Ev
0000000000255c14 g    DF .text	000000000000000c _ZN2nn3web20SharePageReturnValueC1Ev
000000000097d5b0 g    DO .data	0000000000000018 _ZTISt16bad_array_length
00000000001d0c14  w   DF .text	0000000000000178 _ZN2nn2sf4hipc6client24Hipc2ClientCoreProcessorILNS1_6detail11MessageTypeE4ENS0_4cmif6detail14CoreMethodInfoINSt3__15tupleIJNS7_18OutRawArgumentInfoILm8ELm8ELl0EEENS7_17InRawArgumentInfoILm8ELm8ELl0EEENS7_18BufferArgumentInfoILi0ELi21ELm392EEEEEELm8ELm8ELb0EEESH_E7ProcessEPNS2_26Hipc2ClientProxyBaseObjectENS6_6client24OutRawClientArgumentTypeILm8ELm8EEENSM_23InRawClientArgumentTypeILm8ELm8EvEENSM_24BufferClientArgumentTypeEj
00000000000c91a8  w   DF .text	0000000000000010 _ZN2nn2sf4cmif6client6detail13CmifProxyImplINS_2am7service15IAppletAccessorENS2_15CmifDomainProxyINS0_4hipc6client38Hipc2ClientSessionManagedProxyKindBaseINSA_18Hipc2ProxyKindBaseILNS9_6detail11MessageTypeE4EEEEEEENS0_30MemoryResourceAllocationPolicyES7_E17GetCmifBaseObjectEv
000000000006b244 g    DF .text	000000000000008c _ZN2nn2fs16SaveDataImporterC1EONS_2sf13SharedPointerINS_5fssrv2sf17ISaveDataImporterEEE
00000000002cbc14 g    DF .text	0000000000000018 _ZN7android6Region7xorSelfERKNS_4RectE
000000000097b830 g    DO .data	0000000000000018 _ZTINSt3__112ctype_bynameIcEE
0000000000167cb4 g    DF .text	0000000000000050 _ZN2nn8settings6system44GetHeadphoneVolumeWarningDisplayedEventCountEv
00000000001cd854  w   DF .text	0000000000000020 _ZN2nn2sf4cmif6client6detail13CmifProxyImplINS_5visrv2sf26IApplicationDisplayServiceENS0_4hipc6client18Hipc2ProxyKindBaseILNS8_6detail11MessageTypeE4EEENS0_30MemoryResourceAllocationPolicyES7_E30_nn_sf_sync_OpenDefaultDisplayENS0_3OutImvEE
00000000002c49f8 g    DF .text	000000000000002c _ZN7android8Composer27setAnimationTransactionImplEv
000000000036ccd8 g    DF .text	0000000000000004 _ZNSt3__112system_errorD1Ev
00000000003c2c2c g    DF .text	0000000000000084 __iswprint_l
00000000000c9c68  w   DF .text	0000000000000020 _ZN2nn2sf4cmif6client6detail13CmifProxyImplINS_2am7service22ILibraryAppletAccessorENS2_15CmifDomainProxyINS0_4hipc6client38Hipc2ClientSessionManagedProxyKindBaseINSA_18Hipc2ProxyKindBaseILNS9_6detail11MessageTypeE4EEEEEEENS0_30MemoryResourceAllocationPolicyES7_E30_nn_sf_sync_NeedsToExitProcessENS0_3OutIbvEE
00000000007b2710  w   DO .rodata	0000000000000015 _ZTSN2nn5fssrv2sf5IFileE
00000000000665f0 g    DF .text	0000000000000130 _ZN2nn2fs18IsSaveDataExistingENS_3ncm13ApplicationIdERKNS0_6UserIdE
000000000008a75c g    DF .text	000000000000007c _ZN2nn3mem19NumberLineAllocator8AddRangeEii
000000000008fa04 g    DF .text	00000000000000bc _ZN2nn2os24SdkConditionVariableType9TimedWaitERNS0_12SdkMutexTypeENS_8TimeSpanE
0000000000119140 g    DF .text	0000000000000010 _ZN2nn5codec6detail21SetComplexityInternalEP11OpusEncoderi
000000000016584c g    DF .text	000000000000009c _ZN2nn5prepo16SystemPlayReport10SetEventIdEPKc
00000000007b8760 g    DO .rodata	0000000000000034 _ZTSN2nn2os6detail34MultiWaitHolderOfInterProcessEventE
00000000002c1784 g    DF .text	0000000000000024 _ZNK7android7Surface25getIGraphicBufferProducerEv
0000000000071b9c g    DF .text	0000000000000088 nnmem_nlib_rwlock_trywrlock
0000000000360d18 g    DF .text	0000000000000004 _ZNSt3__112bad_weak_ptrD2Ev
00000000001633ac g    DF .text	00000000000007b8 _ZN2nn5prepo6detail7msgpack11ReadCurrentEPNS2_7AnyDataEPNS2_16InputStreamParamE
000000000014edcc g    DF .text	00000000000000c4 _ZN2nn3ngc6detail9SparseSet4SwapERS2_
000000000018c2dc g    DF .text	00000000000000c0 _ZN2nn5audio16AppendWaveBufferEPNS0_9VoiceTypeEPKNS0_10WaveBufferE
00000000001cdc94  w   DF .text	000000000000002c _ZN2nn2sf4cmif6client6detail13CmifProxyImplIN3nns9hosbinder16IHOSBinderDriverENS0_4hipc6client18Hipc2ProxyKindBaseILNS8_6detail11MessageTypeE4EEENS0_30MemoryResourceAllocationPolicyES7_E26_nn_sf_sync_AdjustRefcountEiii
0000000000975f70 g    DO .data	0000000000000018 _ZTIN7android16SortedVectorImplE
00000000007adca0 g    DO .rodata	0000000000000010 _ZN2nn4util7Color4f13ConstantWhiteE
00000000003e053c g    DF .text	0000000000000010 imaxdiv
00000000000228c0 g    DF .text	00000000000001a8 _ZN2nn5image6detail4jpeg22jinit_merged_upsamplerEPNS2_22jpeg_decompress_structE
000000000003cad0 g    DF .text	0000000000000138 _ZN2nn4util6detail16IntrusiveDicImpl10InsertImplEPNS0_16IntrusiveDicNodeE
000000000036c914 g    DF .text	00000000000000c0 _ZNSt3__112system_errorC2ENS_10error_codeE
000000000016aa98 g    DF .text	0000000000000044 _ZN2nn8settings6system24SetInitialLaunchSettingsERKNS1_21InitialLaunchSettingsE
00000000001c5768 g    DF .text	0000000000000038 _ZNK2nn3mii8Database8GetCountEi
000000000014f544 g    DF .text	000000000000005c _ZN2nn3ngc6detail15CompressedArray5ResetEv
00000000002507b0 g    DF .text	0000000000000024 _ZN2nn3ldn15MakeIpv4AddressERA4_Kh
000000000019cb08 g    DF .text	0000000000000004 _ZN2nn5audio6server24AudioRendererManagerImpl5SleepEv
00000000003e7c24 g    DF .text	00000000000000e8 __nnmusl_pthread_setaffinity_np
0000000000294f90 g    DF .text	0000000000000080 _ZNK7android7BBinder22getInterfaceDescriptorEv
000000000026feb8 g    DF .text	0000000000000008 NvRmMemHandleFromIVCId
00000000000d801c  w   DF .text	0000000000000104 _ZN2nn2sf4hipc6client34HipcSimpleClientSessionManagerBase4Impl18InitializeByHandleINS_4bcat6detail3ipc15IServiceCreatorENS0_30MemoryResourceAllocationPolicyEEENS_6ResultEPNS0_13SharedPointerIT_EEPNT0_9AllocatorENS_3svc6HandleE
00000000001a3508 g    DF .text	0000000000000018 _ZN2nn5audio6server10PoolMapperC1Ejb
00000000000473cc g    DF .text	0000000000000008 _ZN2nn2fs22AllReturnResultHandlerENS_6ResultE
00000000007e38c0  w   DO .rodata	0000000000000103 _ZTSN2nn2sf4cmif6client6detail13CmifProxyImplINS_5prepo6detail3ipc13IPrepoServiceENS2_15CmifDomainProxyINS0_4hipc6client38Hipc2ClientSessionManagedProxyKindBaseINSB_18Hipc2ProxyKindBaseILNSA_6detail11MessageTypeE4EEEEEEENS0_30MemoryResourceAllocationPolicyES8_EE
00000000001b902c g    DF .text	0000000000000038 _ZNK2nn3mii6detail11CoreDataRaw11GetEyebrowXEv
000000000022bed0 g    DF .text	0000000000000064 _ZN2nn3hid13GetNpadStatesEPNS0_17NpadHandheldStateEiRKj
0000000000174b7c  w   DF .text	0000000000000020 _ZN2nn2sf4cmif6client6detail13CmifProxyImplINS_8settings21ISystemSettingsServerENS0_4hipc6client18Hipc2ProxyKindBaseILNS7_6detail11MessageTypeE4EEENS0_25StatelessAllocationPolicyINS0_22ExpHeapStaticAllocatorILm16384ES6_EEEES6_E34_nn_sf_sync_GetBluetoothEnableFlagENS0_3OutIbvEE
0000000000a80c00  w   DO .bss	0000000000000010 _ZNSt3__17collateIcE2idE
00000000001ca9e4 g    DF .text	000000000000003c _ZN2nn5swkbd6detail18InlineKeyboardImpl17UnsetUserWordInfoEv
00000000000ce958  w   DF .text	0000000000000020 _ZN2nn2sf4cmif6client6detail13CmifProxyImplINS_2am7service21IApplicationFunctionsENS2_15CmifDomainProxyINS0_4hipc6client38Hipc2ClientSessionManagedProxyKindBaseINSA_18Hipc2ProxyKindBaseILNS9_6detail11MessageTypeE4EEEEEEENS0_30MemoryResourceAllocationPolicyES7_E30_nn_sf_sync_GetDesiredLanguageENS0_3OutINS_8settings12LanguageCodeEvEE
0000000000118eb0 g    DF .text	0000000000000038 _ZN2nn5codec6detail21GetOpusFrameSizeValueENS0_13OpusFrameSizeE
00000000000c90e8  w   DF .text	0000000000000020 _ZN2nn2sf4cmif6client6detail13CmifProxyImplINS_2am7service15IAppletAccessorENS2_15CmifDomainProxyINS0_4hipc6client38Hipc2ClientSessionManagedProxyKindBaseINSA_18Hipc2ProxyKindBaseILNS9_6detail11MessageTypeE4EEEEEEENS0_30MemoryResourceAllocationPolicyES7_E38_nn_sf_sync_GetAppletStateChangedEventENS0_3OutINS0_12NativeHandleEvEE
0000000000136084 g    DF .text	0000000000000018 _ZN2nn2lm6detail20LogPacketTransmitter14PushThreadNameEPKcm
00000000001d4f2c g    DF .text	0000000000000038 _ZN2nn2vi24GetLayerIdWithValidationEPKNS0_5LayerE
00000000000477fc g    DF .text	0000000000000058 _ZN2nn2fs24HierarchicalRomFileTable19CreateRootDirectoryEv
000000000004edfc g    DF .text	00000000000000ec _ZN2nn2fs8ReadFileENS0_10FileHandleElPvmRKNS0_10ReadOptionE
000000000017877c g    DF .text	0000000000000094 _ZN2nn3ssl10Connection20SetRenegotiationModeENS1_17RenegotiationModeE
0000000000955180  w   DO .data	0000000000000038 _ZTIN2nn2sf6detail39ObjectImplFactoryWithStatelessAllocatorINS0_4cmif6client16CmifProxyFactoryINS_8settings15ISettingsServerENS0_4hipc6client18Hipc2ProxyKindBaseILNS8_6detail11MessageTypeE4EEENS0_25StatelessAllocationPolicyINS0_22ExpHeapStaticAllocatorILm16384ES7_EEEEE13ServiceObjectESH_E6ObjectE
00000000001b8a8c g    DF .text	0000000000000014 _ZN2nn3mii6detail11CoreDataRaw11SetNicknameERKNS0_8NicknameE
00000000001c66ec  w   DF .text	0000000000000020 _ZN2nn2sf4cmif6client6detail13CmifProxyImplINS_3mii6detail16IDatabaseServiceENS2_15CmifDomainProxyINS0_4hipc6client38Hipc2ClientSessionManagedProxyKindBaseINSA_18Hipc2ProxyKindBaseILNS9_6detail11MessageTypeE4EEEEEEENS0_25StatelessAllocationPolicyINS0_22ExpHeapStaticAllocatorILm16384ENS6_21ServiceProviderClient30CreateNifmUserServiceObjectTagEEEEES7_E24_nn_sf_sync_AddOrReplaceERKNS5_9StoreDataE
000000000017a014 g    DF .text	0000000000000024 nnsslConnectionGetVerifyOption
00000000000005a8  w   DF .text	0000000000000264 _ZN2nn6crypto6detail11CcmModeImplINS0_12AesEncryptorILm16EEEE10InitializeEPKS4_PKvmllm
00000000000454fc g    DF .text	0000000000000058 _ZN2nn4diag24RegisterSdkAbortObserverEPNS0_22SdkAbortObserverHolderE
0000000000946130  w   DO .data	0000000000000010 _ZTIN2nn2sf4cmif6server17CmifServerMessageE
000000000022e054 g    DF .text	0000000000000044 _ZN2nn3hid5debug28SetTouchScreenAutoPilotStateILm6EEEvRKNS1_25TouchScreenAutoPilotStateIXT_EEE
000000000097cfa0 g    DO .data	0000000000000050 _ZTVNSt3__110ostrstreamE
0000000000122008 g    DF .text	0000000000000030 _ZN2nn7friends16DaemonSuspension6AttachEPNS0_6detail3ipc28IDaemonSuspendSessionServiceE
000000000018b5f4 g    DF .text	0000000000000028 _ZN2nn5audio23SplitterDestinationData8FinalizeEv
00000000003c59e4  w   DF .text	0000000000000004 wcscoll_l
000000000008c5e8 g    DF .text	0000000000000124 _ZN2nn3mem19NumberLineAllocator9GetSizeOfEi
0000000000119160 g    DF .text	000000000000003c _ZN2nn5codec6detail24SetFrameSizeTypeInternalEP11OpusEncoderNS0_13OpusFrameSizeE
00000000008223a8 g    DO .rodata	0000000000000004 _ZNSt3__18ios_base10scientificE
00000000000edb34 g    DF .text	0000000000000274 amp2Log2
0000000000187b7c g    DF .text	000000000000001c _ZN2nn5audio32GetReverbHighFrequencyDecayRatioEPKNS0_10ReverbTypeE
00000000002cf708 g    DF .text	000000000000006c _ZN7android7String85setToEPKDim
00000000003dc8e8 g    DF .text	00000000000001a8 fflush
00000000007dfe60  w   DO .rodata	0000000000000167 _ZTSN2nn2sf4cmif6client16CmifProxyFactoryINS_4nifm6detail14IStaticServiceENS2_15CmifDomainProxyINS0_4hipc6client38Hipc2ClientSessionManagedProxyKindBaseINS9_18Hipc2ProxyKindBaseILNS8_6detail11MessageTypeE4EEEEEEENS0_25StatelessAllocationPolicyINS0_22ExpHeapStaticAllocatorILm16384ENS5_21ServiceProviderClient30CreateNifmUserServiceObjectTagEEEEEE13ServiceObjectE
0000000000182d54 g    DF .text	0000000000000014 _ZN2nn3ntc4shim38CancelEnsuringNetworkClockAvailabilityEv
00000000001b2f78 g    DF .text	0000000000000104 _ZN2nn2ec6detail15ShowShopPageArg14SetCallbackUrlEPKc
00000000002c8c2c g    DF .text	0000000000000008 _ZN7android11DisplayEDIDC1Ev
00000000000914b4 g    DF .text	0000000000000004 nnosLinkMultiWaitHolder
00000000001a7d7c  w   DF .text	0000000000000004 _ZN2nn2sf6detail37UnmanagedEmplacedImplHolderBaseGetterINS_5audio6server24AudioRendererManagerImplEvE5Impl27ReleaseEv
00000000003e6e58 g    DF .text	00000000000000f4 __nnmusl_ExitThread
0000000000221348 g    DF .text	00000000000001d0 _ZN2nn3hid6detail20GetSleepButtonStatesEPiPNS0_6system16SleepButtonStateEi
00000000001a5580 g    DF .text	0000000000000034 _ZN2nn5audio6server15SplitterContext25ClearAllNewConnectionFlagEv
000000000023c20c  w   DF .text	0000000000000020 _ZN2nn2sf4cmif6client6detail13CmifProxyImplINS_8irsensor15IIrSensorServerENS0_4hipc6client18Hipc2ProxyKindBaseILNS7_6detail11MessageTypeE4EEENS0_25StatelessAllocationPolicyINS0_22ExpHeapStaticAllocatorILm16384ENS5_6detail14IrSensorServerEEEEES6_E30_nn_sf_sync_DeactivateIrsensorENS_6applet20AppletResourceUserIdE
0000000000361b84 g    DF .text	0000000000000004 _ZNSt19bad_optional_accessD1Ev
000000000019a178 g    DF .text	00000000000000f0 _ZN2nn5audio23OpenFinalOutputRecorderEPNS0_19FinalOutputRecorderEPNS_2os11SystemEventERKNS0_28FinalOutputRecorderParameterERKNS_6applet20AppletResourceUserIdE
000000000018cc24 g    DF .text	0000000000000128 _ZN2nn5audio16VoiceInfoManager19FlushVoiceDataCacheEPKNS0_9VoiceInfoE
0000000000326908 g    DF .text	0000000000000180 _ZNSt3__117__assoc_sub_state13set_exceptionESt13exception_ptr
0000000000233094  w   DF .text	000000000000011c _ZN2nn2sf4hipc6client24Hipc2ClientCoreProcessorILNS1_6detail11MessageTypeE4ENS0_4cmif6detail14CoreMethodInfoINSt3__15tupleIJNS7_17InRawArgumentInfoILm8ELm8ELl16EEENSB_ILm4ELm4ELl0EEENSB_ILm4ELm4ELl4EEENSB_ILm4ELm4ELl8EEEEEELm24ELm0ELb1EEESG_E7ProcessEPNS2_26Hipc2ClientProxyBaseObjectENS6_6client23InRawClientArgumentTypeILm8ELm8EvEENSM_ILm4ELm4EvEESO_SO_j
000000000002d78c g    DF .text	00000000000000e0 _ZN2nn5image6detail11GetExifInfoEPPKvPtPKhm
00000000000fcc80 g    DF .text	000000000000003c silk_inner_prod_aligned_scale
0000000000235060  w   DF .text	0000000000000020 _ZN2nn2sf4cmif6client6detail13CmifProxyImplINS_3hid16IHidSystemServerENS0_4hipc6client18Hipc2ProxyKindBaseILNS7_6detail11MessageTypeE4EEENS0_25StatelessAllocationPolicyINS0_22ExpHeapStaticAllocatorILm16384ENS5_6detail15HidSystemServerEEEEES6_E37_nn_sf_sync_IsFirmwareUpdateAvailableENS0_3OutIbvEENS5_6system11UniquePadIdE
000000000004c69c  w   DF .text	000000000000000c _ZN2nn2fs3fsa11IFileSystem21DoGetFileTimeStampRawEPNS0_16FileTimeStampRawEPKc
00000000003ccce4 g    DF .text	0000000000000048 logbf
000000000003bd04 g    DF .text	0000000000000074 _ZN2nn4util8BitArray4flipEv
000000000016a0b8 g    DF .text	0000000000000044 _ZN2nn8settings6system34SetServiceDiscoveryControlSettingsERKNS1_31ServiceDiscoveryControlSettingsE
00000000001bb3f8 g    DF .text	00000000000000a8 _ZN2nn3mii6detail12IsValidCrc16EPKvit
000000000004cc88 g    DF .text	0000000000000060 _ZN2nn2fs6detail17DirectoryAccessorD1Ev
0000000000132fe8 g    DF .text	0000000000000050 _ZN2nn4htcs6SocketEv
0000000000332d84  w   DF .text	0000000000000054 _ZNSt3__113basic_ostreamIwNS_11char_traitsIwEEE5tellpEv
00000000003ccd2c g    DF .text	0000000000000078 logbl
0000000000230da8  w   DF .text	0000000000000020 _ZN2nn2sf4cmif6client6detail13CmifProxyImplINS_3hid15IHidDebugServerENS0_4hipc6client18Hipc2ProxyKindBaseILNS7_6detail11MessageTypeE4EEENS0_25StatelessAllocationPolicyINS0_22ExpHeapStaticAllocatorILm16384ENS5_6detail14HidDebugServerEEEEES6_E44_nn_sf_sync_UnsetCaptureButtonAutoPilotStateEv
00000000003c253c g    DF .text	0000000000000024 __isalnum_l
0000000000118610 g    DF .text	0000000000000008 _ZNK2nn5codec11OpusEncoder10GetBitRateEv
000000000009c440 g    DF .text	0000000000000090 _ZN2nn2sf4hipc6server6detail29HipcAllInOneServerManagerBase16ReceiveAsSessionEPNS_2os19MultiWaitHolderTypeE
00000000000bcfe0  w   DF .text	0000000000000010 _ZN2nn2sf4cmif6client6detail13CmifProxyImplINS_7account4http15IOAuthProcedureENS2_15CmifDomainProxyINS0_4hipc6client38Hipc2ClientSessionManagedProxyKindBaseINSA_18Hipc2ProxyKindBaseILNS9_6detail11MessageTypeE4EEEEEEENS0_25StatelessAllocationPolicyINS0_22ExpHeapStaticAllocatorILm2048ENS5_6detail12ObjectHolder24ObjectHolderAllocatorTagEEEEES7_E17GetCmifBaseObjectEv
00000000001bfd48 g    DF .text	0000000000000084 _ZNK2nn3mii6detail16Ver3StoreDataRaw11GetEyebrowYEv
000000000015c404 g    DF .text	0000000000000054 _ZN2nn2oe15EnableRecordingEv
000000000016b7b0 g    DF .text	0000000000000078 _ZN2nn8settings6detail18GetAudioOutputModeEPii
000000000016b4d0 g    DF .text	0000000000000044 _ZN2nn8settings22ResetXpadGenericPadMapEi
00000000001beab8 g    DF .text	0000000000000084 _ZNK2nn3mii6detail16Ver3StoreDataRaw11GetCopyableEv
000000000095a550  w   DO .data	0000000000000048 _ZTIN2nn2sf4cmif6client6detail13CmifProxyImplINS_5visrv2sf22IManagerDisplayServiceENS0_4hipc6client18Hipc2ProxyKindBaseILNS8_6detail11MessageTypeE4EEENS0_30MemoryResourceAllocationPolicyES7_EE
00000000003197f8  w   DF .text	0000000000000178 _ZZN2nn2sf31SimpleAllInOneHipcClientManagerILm3EE27InitializeShimLibraryHolderINS_3pcv17IImmediateManagerEEENS_6ResultEPNS0_23ShimLibraryObjectHolderIT_EEPKcPNS_14MemoryResourceEENUlPNS0_13SharedPointerIS5_EEE_clESH_
00000000001d035c  w   DF .text	0000000000000020 _ZN2nn2sf4cmif6client6detail13CmifProxyImplINS_5visrv2sf22IManagerDisplayServiceENS0_4hipc6client18Hipc2ProxyKindBaseILNS8_6detail11MessageTypeE4EEENS0_30MemoryResourceAllocationPolicyES7_E31_nn_sf_sync_DestroySharedBufferENS_2vi7fbshare18SharedBufferHandleE
0000000000395d88 g    DF .text	0000000000000004 _ZNSt20bad_array_new_lengthD2Ev
000000000006c3d0 g    DF .text	00000000000000a8 _ZN2nn2fs18IsSdCardAccessibleEv
0000000000080b34 g    DF .text	0000000000000018 nnmem_nlib_yield
0000000000362668 g    DF .text	000000000000008c _ZNSt13runtime_errorC2ERKNSt3__112basic_stringIcNS0_11char_traitsIcEENS0_9allocatorIcEEEE
00000000000a1aac g    DF .text	0000000000000004 nnsocketSetSockOpt
00000000000d70f8 g    DF .text	0000000000000038 _ZNK2nn4bcat21DeliveryCacheProgress9GetResultEv
0000000000157a38 g    DF .text	000000000000001c _ZN2nn4nifm6detail43ConvertInternetConnectionStatusToSfFromNifmEPNS1_2sf24InternetConnectionStatusERKNS0_24InternetConnectionStatusE
0000000000256e00 g    DF .text	0000000000000188 _ZN2nn3web15ShowNewsPageArgC2Ev
00000000000d434c g    DF .text	0000000000000270 _ZN2nn6applet16MapHandleStorageEPPvPmNS0_13StorageHandleE
00000000001c5918 g    DF .text	0000000000000018 _ZN2nn3mii15PrivateDatabaseD1Ev
000000000080b850  w   DO .rodata	00000000000000ea _ZTSN2nn2sf4cmif6client6detail9CmifProxyINS_3hid15IHidDebugServerENS0_4hipc6client18Hipc2ProxyKindBaseILNS7_6detail11MessageTypeE4EEENS0_25StatelessAllocationPolicyINS0_22ExpHeapStaticAllocatorILm16384ENS5_6detail14HidDebugServerEEEEEvEE
0000000000945c38 g    DO .data	0000000000000098 _ZTVN2nn2sf4cmif6server23CmifServerDomainManager6DomainE
00000000000a57ec g    DF .text	000000000000018c _ZN2nn6socket6detail10socketAtonEPKcP7in_addr
00000000003a2ad4 g    DF .text	0000000000000044 __lshrti3
000000000006372c g    DF .text	0000000000000164 _ZN2nn2fs15GetMmcSpeedModeEPNS0_12MmcSpeedModeE
00000000007c1700  w   DO .rodata	0000000000000150 _ZTSN2nn2sf4cmif6client6detail9CmifProxyINS_7account4baas14IAdministratorENS2_15CmifDomainProxyINS0_4hipc6client38Hipc2ClientSessionManagedProxyKindBaseINSA_18Hipc2ProxyKindBaseILNS9_6detail11MessageTypeE4EEEEEEENS0_25StatelessAllocationPolicyINS0_22ExpHeapStaticAllocatorILm2048ENS5_6detail12ObjectHolder24ObjectHolderAllocatorTagEEEEEvEE
000000000022c2b8 g    DF .text	0000000000000044 _ZN2nn3hid24SetNpadCommunicationModeENS0_21NpadCommunicationModeE
00000000002c76c4 g    DF .text	0000000000000004 _ZN7android21SurfaceComposerClient15releaseInstanceEv
00000000002329dc  w   DF .text	0000000000000010 _ZN2nn2sf4cmif6client6detail13CmifProxyImplINS_3hid10IHidServerENS0_4hipc6client18Hipc2ProxyKindBaseILNS7_6detail11MessageTypeE4EEENS0_25StatelessAllocationPolicyINS0_22ExpHeapStaticAllocatorILm16384ENS5_6detail9HidServerEEEEES6_E17GetCmifBaseObjectEv
00000000002c5b30 g    DF .text	0000000000000020 _ZN7android21SurfaceComposerClient21getHotplugEventHandleERjRb
000000000012923c  w   DF .text	00000000000001e0 _ZN2nn2sf4cmif6client34CmifDomainProxyClientCoreProcessorINS0_4hipc6client38Hipc2ClientSessionManagedProxyKindBaseINS5_18Hipc2ProxyKindBaseILNS4_6detail11MessageTypeE4EEEEENS1_6detail14CoreMethodInfoINSt3__15tupleIJNSC_18BufferArgumentInfoILi0ELi26ELm1208EEENSC_17InRawArgumentInfoILm16ELm8ELl8EEENSI_ILm8ELm1ELl0EEEEEELm24ELm0ELb0EEESL_E7ProcessEPNS2_23CmifDomainClientMessageISB_E15ProxyBaseObjectENS2_24BufferClientArgumentTypeENS2_23InRawClientArgumentTypeILm16ELm8EvEENST_ILm8ELm1EvEEj
00000000001b16cc g    DF .text	0000000000000014 _ZN2nn2ec23ShowShopSettingsForMenuERKNS_7account3UidENS0_8SourceIdE
00000000003619fc  w   DF .text	000000000000002c _ZnamRKSt9nothrow_t
0000000000947510  w   DO .data	0000000000000038 _ZTIN2nn2sf6detail39ObjectImplFactoryWithStatelessAllocatorINS0_4cmif6client16CmifProxyFactoryINS_7account6detail13IAsyncContextENS4_15CmifDomainProxyINS0_4hipc6client38Hipc2ClientSessionManagedProxyKindBaseINSB_18Hipc2ProxyKindBaseILNSA_6detail11MessageTypeE4EEEEEEENS0_25StatelessAllocationPolicyINS0_22ExpHeapStaticAllocatorILm2048ENS7_12ObjectHolder24ObjectHolderAllocatorTagEEEEEE13ServiceObjectESO_E6ObjectE
0000000000239630 g    DF .text	00000000000000f4 _ZN2nn8irsensor6detail15IrSensorSessionC1ERKNS_6applet20AppletResourceUserIdE
000000000097ab68 g    DO .data	0000000000000050 _ZTVNSt3__115numpunct_bynameIcEE
00000000003c3b60 g    DF .text	0000000000000078 strerror
0000000000204374 g    DF .text	0000000000000088 setup_outline
00000000008056b0 g    DO .rodata	0000000000000020 _ZN2nn4util10BitFlagSetILi256ENS_3hid11KeyboardKeyEE4FlagILi136EE4MaskE
0000000000270930 g    DF .text	000000000000001c NvRmSyncIsSyncpoints
0000000000137b88  w   DF .text	00000000000001d4 _ZN2nn2sf4cmif6client34CmifDomainProxyClientCoreProcessorINS0_4hipc6client38Hipc2ClientSessionManagedProxyKindBaseINS5_18Hipc2ProxyKindBaseILNS4_6detail11MessageTypeE4EEEEENS1_6detail14CoreMethodInfoINSt3__15tupleIJNSC_17InRawArgumentInfoILm8ELm8ELl0EEENSG_ILm8ELm8ELl8EEENSC_18BufferArgumentInfoILi0ELi5ELm0EEEEEELm16ELm0ELb1EEESL_E7ProcessEPNS2_23CmifDomainClientMessageISB_E15ProxyBaseObjectENS2_23InRawClientArgumentTypeILm8ELm8EvEEST_NS2_24BufferClientArgumentTypeEj
0000000000314d74 g    DF .text	0000000000000058 _ZN2nn4gpio8FinalizeEv
0000000000238be4 g    DF .text	0000000000000088 _ZN2nn8irsensor6detail13StatusManager23UnregisterIrSensorAruidERKNS_6applet20AppletResourceUserIdE
00000000003e89a8 g    DF .text	0000000000000408 __nnmusl_fini_dso
0000000000039418 g    DF .text	0000000000000144 nnutilZlib__tr_align
000000000008f9a0 g    DF .text	0000000000000018 _ZN2nn2os29IsReaderWriterLockOwnerThreadEPKNS0_20ReaderWriterLockTypeE
00000000002958ec g    DF .text	0000000000000078 _ZTv0_n24_N7android9BpRefBaseD1Ev
00000000003bb878 g    DF .text	0000000000000190 ctanhf
000000000015b100 g    DF .text	0000000000000050 _ZN2nn2oe33EndBlockingHomeButtonShortPressedEv
000000000018d1d4 g    DF .text	000000000000004c _ZN2nn5audio6common10EdgeMatrix11RemoveEdgesEi
0000000000348280 g    DF .text	00000000000007ec _ZNSt3__117moneypunct_bynameIwLb1EE4initEPKc
00000000001258a4  w   DF .text	0000000000000054 _ZN2nn2sf4cmif6client6detail13CmifProxyImplINS_7friends6detail3ipc14IFriendServiceENS2_15CmifDomainProxyINS0_4hipc6client38Hipc2ClientSessionManagedProxyKindBaseINSB_18Hipc2ProxyKindBaseILNSA_6detail11MessageTypeE4EEEEEEENS0_30MemoryResourceAllocationPolicyES8_E25_nn_sf_sync_GetFriendListENS0_3OutIivEERKNS0_8OutArrayINS6_10FriendImplEEERKNS_7account3UidEiRKNS7_17SizedFriendFilterEm
000000000022c348 g    DF .text	000000000000005c _ZN2nn3hid12GetNpadStateEPNS0_16NpadJoyDualStateERKj
00000000000bd4d4  w   DF .text	0000000000000010 _ZN2nn2sf4cmif6client6detail13CmifProxyImplINS_7account6detail14ISessionObjectENS2_15CmifDomainProxyINS0_4hipc6client38Hipc2ClientSessionManagedProxyKindBaseINSA_18Hipc2ProxyKindBaseILNS9_6detail11MessageTypeE4EEEEEEENS0_25StatelessAllocationPolicyINS0_22ExpHeapStaticAllocatorILm2048ENS6_12ObjectHolder24ObjectHolderAllocatorTagEEEEES7_E17GetCmifBaseObjectEv
000000000014be00 g    DF .text	0000000000000014 _ZNK2nn3ngc6detail7SbvRank7MemSizeEj
0000000000220624 g    DF .text	0000000000000008 _ZN2nn3hid6detail35GetSixAxisSensorHandleXpadTypeValueERKNS0_19SixAxisSensorHandleE
00000000003bba08 g    DF .text	000000000000005c ctanhl
00000000003c54f0 g    DF .text	0000000000000004 __strcoll_l
0000000000954560  w   DO .data	0000000000000018 _ZTIN2nn4pctl6detail3ipc23IParentalControlServiceE
000000000009bbdc g    DF .text	000000000000000c _ZNK2nn2sf4hipc6detail25HipcMessageBufferAccessor13GetMoveHandleEi
000000000097d150 g    DO .data	0000000000000018 _ZTINSt3__110istrstreamE
000000000004567c g    DF .text	0000000000000038 _ZN2nn4diag40GetRequiredBufferSizeForGetAllModuleInfoEv
0000000000235cbc  w   DF .text	0000000000000108 _ZN2nn2sf4hipc6client24Hipc2ClientCoreProcessorILNS1_6detail11MessageTypeE4ENS0_4cmif6detail14CoreMethodInfoINSt3__15tupleIJNS7_18OutRawArgumentInfoILm6ELm1ELl0EEENS7_17InRawArgumentInfoILm8ELm8ELl0EEEEEELm8ELm6ELb0EEESF_E7ProcessEPNS2_26Hipc2ClientProxyBaseObjectENS6_6client24OutRawClientArgumentTypeILm6ELm1EEENSK_23InRawClientArgumentTypeILm8ELm8EvEEj
000000000002ecc0 g    DF .text	0000000000000018 _ZN2nn5image11JpegEncoder10SetQualityEi
000000000094fea0  w   DO .data	0000000000000038 _ZTIN2nn2sf6detail38ObjectImplFactoryWithStatefulAllocatorINS0_4cmif6client16CmifProxyFactoryINS_4bcat6detail3ipc25IDeliveryCacheFileServiceENS4_15CmifDomainProxyINS0_4hipc6client38Hipc2ClientSessionManagedProxyKindBaseINSC_18Hipc2ProxyKindBaseILNSB_6detail11MessageTypeE4EEEEEEENS0_30MemoryResourceAllocationPolicyEE13ServiceObjectESK_E6ObjectE
0000000000805070 g    DO .rodata	0000000000000020 _ZN2nn4util10BitFlagSetILi256ENS_3hid11KeyboardKeyEE4FlagILi68EE4MaskE
000000000097e070 g    DO .data	0000000000000020 _ZTIPKDh
00000000001d3c6c g    DF .text	0000000000000090 _ZN2nn2vi18GetDisplayRgbRangeEPNS0_8RgbRangeEPKNS0_7DisplayE
000000000097e340 g    DO .data	0000000000000018 _ZTIN10__cxxabiv116__enum_type_infoE
000000000097e250 g    DO .data	0000000000000020 _ZTIPKDi
0000000000188f80 g    DF .text	0000000000000038 _ZN2nn5audio17ReleaseMemoryPoolEPNS0_19AudioRendererConfigEPNS0_14MemoryPoolTypeE
00000000002168bc g    DF .text	0000000000000070 _ZN2nn3hid6system6detail18GetFirmwareVersionEPNS1_15FirmwareVersionENS1_11UniquePadIdE
00000000002648a4 g    DF .text	0000000000000018 NvOsAtomicExchangeAdd32
00000000003341b0 g    DF .text	0000000000000004 _ZNSt3__116__narrow_to_utf8ILm32EED2Ev
0000000000263994 g    DF .text	0000000000000004 NvOsPhysicalMemUnmap
000000000000156c g    DF .text	0000000000000078 _ZN2nn6crypto19GenerateHmacSha1MacEPvmPKvmS3_m
000000000097db70 g    DO .data	0000000000000020 _ZTIPKDn
0000000000122208 g    DF .text	000000000000000c _ZN2nn7friends15FriendCandidateC1Ev
00000000002c53e0 g    DF .text	00000000000000a4 _ZN7android21SurfaceComposerClientC2Ev
000000000094fc28  w   DO .data	0000000000000068 _ZTVN2nn2sf6detail38ObjectImplFactoryWithStatefulAllocatorINS0_4cmif6client16CmifProxyFactoryINS_4bcat6detail3ipc28IDeliveryCacheStorageServiceENS4_15CmifDomainProxyINS0_4hipc6client38Hipc2ClientSessionManagedProxyKindBaseINSC_18Hipc2ProxyKindBaseILNSB_6detail11MessageTypeE4EEEEEEENS0_30MemoryResourceAllocationPolicyEE13ServiceObjectESK_E6ObjectE
00000000003ddb24  w   DF .text	000000000000015c fwrite_unlocked
00000000001cc01c  w   DF .text	0000000000000018 _ZN2nn2sf13SharedPointerINS_5visrv2sf26IApplicationDisplayServiceEED2Ev
000000000029ad0c g    DF .text	0000000000000328 _ZN7android16BnServiceManager10onTransactEjRKNS_6ParcelEPS1_j
00000000000c9430  w   DF .text	0000000000000008 _ZN2nn2sf4cmif6client6detail13CmifProxyImplINS_2am7service25IProcessWindingControllerENS2_15CmifDomainProxyINS0_4hipc6client38Hipc2ClientSessionManagedProxyKindBaseINSA_18Hipc2ProxyKindBaseILNS9_6detail11MessageTypeE4EEEEEEENS0_30MemoryResourceAllocationPolicyES7_E12GetProxyInfoEv
0000000000296494 g    DF .text	0000000000000008 _ZN7android8BpBinder11linkToDeathERKNS_2spINS_7IBinder14DeathRecipientEEEPvj
00000000001a78a4 g    DF .text	0000000000000044 _ZN2nn5audio6server24AudioRendererManagerImpl15AudioDeviceImpl34GetAudioDeviceOutputVolumeInternalERKNS_2sf8InBufferENS4_3OutIfvEE
000000000097e200 g    DO .data	0000000000000020 _ZTIPKDs
0000000000189b50 g    DF .text	0000000000000010 _ZN2nn5audio15PerformanceInfoD2Ev
0000000000825280 g    DO .rodata	000000000000000f _ZTSSt10bad_typeid
000000000011a6b8 g    DF .text	000000000000005c _ZN2nn3err39ShowUnacceptableApplicationVersionErrorEv
00000000001da5bc g    DF .text	0000000000000004 _ZN2nn6fontll18ScalableFontEngine8GetErrorEv
0000000000269adc g    DF .text	0000000000000070 NvRmSurfaceInitRmPitch
0000000000070fd0 g    DF .text	0000000000000030 _ZN2nn4lmem6detail12DumpUnitHeapEPNS1_8HeapHeadE
00000000000cab0c  w   DF .text	0000000000000020 _ZN2nn2sf4cmif6client6detail13CmifProxyImplINS_2am7service21ILibraryAppletCreatorENS2_15CmifDomainProxyINS0_4hipc6client38Hipc2ClientSessionManagedProxyKindBaseINSA_18Hipc2ProxyKindBaseILNS9_6detail11MessageTypeE4EEEEEEENS0_30MemoryResourceAllocationPolicyES7_E36_nn_sf_sync_AreAnyLibraryAppletsLeftENS0_3OutIbvEE
00000000001742e8  w   DF .text	0000000000000020 _ZN2nn2sf4cmif6client6detail13CmifProxyImplINS_8settings21ISystemSettingsServerENS0_4hipc6client18Hipc2ProxyKindBaseILNS7_6detail11MessageTypeE4EEENS0_25StatelessAllocationPolicyINS0_22ExpHeapStaticAllocatorILm16384ES6_EEEES6_E25_nn_sf_sync_GetColorSetIdENS0_3OutIivEE
00000000001b99d4 g    DF .text	0000000000000048 _ZN2nn3mii6detail11CoreDataRaw12SetEyeAspectEi
0000000000154a2c  w   DF .text	00000000000001bc _ZN2nn2sf4cmif6client34CmifDomainProxyClientCoreProcessorINS0_4hipc6client38Hipc2ClientSessionManagedProxyKindBaseINS5_18Hipc2ProxyKindBaseILNS4_6detail11MessageTypeE4EEEEENS1_6detail14CoreMethodInfoINSt3__15tupleIJNSC_18BufferArgumentInfoILi0ELi25ELm4EEEEEELm0ELm0ELb0EEESI_E7ProcessEPNS2_23CmifDomainClientMessageISB_E15ProxyBaseObjectENS2_24BufferClientArgumentTypeEj
00000000007b0f30  w   DO .rodata	0000000000000015 _ZTSN2nn2fs10SubStorageE
0000000000315268 g    DF .text	0000000000000054 _ZN2nn4gpio18SetInterruptEnableEPNS0_14GpioPadSessionEb
00000000000ca020  w   DF .text	0000000000000008 _ZN2nn2sf6detail38ObjectImplFactoryWithStatefulAllocatorINS0_4cmif6client16CmifProxyFactoryINS_2am7service16IStorageAccessorENS4_15CmifDomainProxyINS0_4hipc6client38Hipc2ClientSessionManagedProxyKindBaseINSB_18Hipc2ProxyKindBaseILNSA_6detail11MessageTypeE4EEEEEEENS0_30MemoryResourceAllocationPolicyEE13ServiceObjectESJ_E6Object12AddReferenceEv
000000000023c378  w   DF .text	0000000000000024 _ZN2nn2sf4cmif6client6detail13CmifProxyImplINS_8irsensor15IIrSensorServerENS0_4hipc6client18Hipc2ProxyKindBaseILNS7_6detail11MessageTypeE4EEENS0_25StatelessAllocationPolicyINS0_22ExpHeapStaticAllocatorILm16384ENS5_6detail14IrSensorServerEEEEES6_E33_nn_sf_sync_SuspendImageProcessorENS_6applet20AppletResourceUserIdENS5_14IrCameraHandleE
0000000000977d98  w   DO .data	0000000000000058 _ZTVN2nn2sf6detail38ObjectImplFactoryWithStatefulAllocatorINS0_4cmif6client16CmifProxyFactoryINS_3fgm2sf8ISessionENS4_15CmifDomainProxyINS0_4hipc6client38Hipc2ClientSessionManagedProxyKindBaseINSB_18Hipc2ProxyKindBaseILNSA_6detail11MessageTypeE4EEEEEEENS0_30MemoryResourceAllocationPolicyEE13ServiceObjectESJ_E6ObjectE
00000000007c0e00  w   DO .rodata	000000000000016d _ZTSN2nn2sf4cmif6client16CmifProxyFactoryINS_7account4baas28IFloatingRegistrationRequestENS2_15CmifDomainProxyINS0_4hipc6client38Hipc2ClientSessionManagedProxyKindBaseINS9_18Hipc2ProxyKindBaseILNS8_6detail11MessageTypeE4EEEEEEENS0_25StatelessAllocationPolicyINS0_22ExpHeapStaticAllocatorILm2048ENS4_6detail12ObjectHolder24ObjectHolderAllocatorTagEEEEEE13ServiceObjectE
0000000000254814 g    DF .text	0000000000000084 _ZNK2nn3web38ShowApplicationLegalInformationPageArg15PushToInChannelENS_6applet19LibraryAppletHandleE
0000000000188980 g    DF .text	000000000000004c _ZN2nn5audio21SetI3dl2ReverbEnabledEPNS0_15I3dl2ReverbTypeEb
0000000000190d00 g    DF .text	0000000000000058 _ZN2nn5audio27GetAudioRendererSampleCountENS0_19AudioRendererHandleE
000000000025a844 g    DF .text	000000000000003c pack_ufixed_20_12_f
00000000003a8ab0 g    DF .text	0000000000000400 setlocale
0000000000125850  w   DF .text	0000000000000054 _ZN2nn2sf4cmif6client6detail13CmifProxyImplINS_7friends6detail3ipc14IFriendServiceENS2_15CmifDomainProxyINS0_4hipc6client38Hipc2ClientSessionManagedProxyKindBaseINSB_18Hipc2ProxyKindBaseILNSA_6detail11MessageTypeE4EEEEEEENS0_30MemoryResourceAllocationPolicyES8_E28_nn_sf_sync_GetFriendListIdsENS0_3OutIivEERKNS0_8OutArrayINS_7account23NetworkServiceAccountIdEEERKNSO_3UidEiRKNS7_17SizedFriendFilterEm
000000000017b484  w   DF .text	0000000000000030 _ZN2nn2sf4cmif6client6detail13CmifProxyImplINS_3ssl2sf14ISslConnectionENS2_15CmifDomainProxyINS0_4hipc6client38Hipc2ClientSessionManagedProxyKindBaseINSA_18Hipc2ProxyKindBaseILNS9_6detail11MessageTypeE4EEEEEEENS0_24StatefulAllocationPolicyINS0_16ExpHeapAllocatorEEES7_E23_nn_sf_sync_GetHostNameERKNS0_9OutBufferENS0_3OutIjvEE
0000000000108540 g    DF .text	00000000000001b0 silk_residual_energy_FIX
0000000000329854  w   DF .text	0000000000000004 _ZNSt3__115basic_streambufIwNS_11char_traitsIwEEE5imbueERKNS_6localeE
0000000000177ba8 g    DF .text	00000000000000b0 _ZN2nn3ssl7Context9GetOptionEPiNS1_13ContextOptionE
0000000000955930  w   DO .data	0000000000000018 _ZTIN2nn2sf4cmif6client6detail9CmifProxyINS_3ssl2sf11ISslServiceENS2_15CmifDomainProxyINS0_4hipc6client38Hipc2ClientSessionManagedProxyKindBaseINSA_18Hipc2ProxyKindBaseILNS9_6detail11MessageTypeE4EEEEEEENS0_24StatefulAllocationPolicyINS0_16ExpHeapAllocatorEEEvEE
000000000018a7c4 g    DF .text	0000000000000008 _ZNK2nn5audio8SinkInfo6IsUsedEv
000000000018ba90 g    DF .text	0000000000000008 _ZNK2nn5audio23SplitterDestinationData16GetDestinationIdEv
00000000000fef98 g    DF .text	0000000000000954 silk_stereo_LR_to_MS
0000000000126070  w   DF .text	0000000000000020 _ZN2nn2sf4cmif6client6detail13CmifProxyImplINS_7friends6detail3ipc14IFriendServiceENS2_15CmifDomainProxyINS0_4hipc6client38Hipc2ClientSessionManagedProxyKindBaseINSB_18Hipc2ProxyKindBaseILNSA_6detail11MessageTypeE4EEEEEEENS0_30MemoryResourceAllocationPolicyES8_E31_nn_sf_sync_AcceptFriendRequestERKNS_7account3UidENS5_9RequestIdE
0000000000125c54  w   DF .text	0000000000000034 _ZN2nn2sf4cmif6client6detail13CmifProxyImplINS_7friends6detail3ipc14IFriendServiceENS2_15CmifDomainProxyINS0_4hipc6client38Hipc2ClientSessionManagedProxyKindBaseINSB_18Hipc2ProxyKindBaseILNSA_6detail11MessageTypeE4EEEEEEENS0_30MemoryResourceAllocationPolicyES8_E29_nn_sf_sync_LoadFriendSettingENS0_3OutINS6_17FriendSettingImplEvEERKNS_7account3UidENSO_23NetworkServiceAccountIdE
0000000000187990 g    DF .text	000000000000004c _ZN2nn5audio18SetReverbEarlyGainEPNS0_10ReverbTypeEf
0000000000262bd4 g    DF .text	0000000000000078 NvOsHeapAllocatorPrintStatistics
00000000002cdc00 g    DF .text	0000000000000004 _ZN7android7RefBase11renameRefIdEPS0_PKvS3_
00000000007caad0  w   DO .rodata	000000000000014b _ZTSN2nn2sf6detail38ObjectImplFactoryWithStatefulAllocatorINS0_4cmif6client16CmifProxyFactoryINS_2am7service19ILibraryAppletProxyENS4_15CmifDomainProxyINS0_4hipc6client38Hipc2ClientSessionManagedProxyKindBaseINSB_18Hipc2ProxyKindBaseILNSA_6detail11MessageTypeE4EEEEEEENS0_30MemoryResourceAllocationPolicyEE13ServiceObjectESJ_E6ObjectE
00000000002b36a8 g    DF .text	00000000000001a0 _ZN7android12ConsumerBase16onFrameAvailableERKNS_10BufferItemE
00000000001a785c g    DF .text	0000000000000048 _ZN2nn5audio6server24AudioRendererManagerImpl15AudioDeviceImpl30SetAudioDeviceOutputVolumeAutoERKNS_2sf8InBufferEf
0000000000313fc0  w   DF .text	0000000000000028 _ZN2nn2sf4cmif6client6detail13CmifProxyImplINS_3fgm2sf8IRequestENS2_15CmifDomainProxyINS0_4hipc6client38Hipc2ClientSessionManagedProxyKindBaseINSA_18Hipc2ProxyKindBaseILNS9_6detail11MessageTypeE4EEEEEEENS0_30MemoryResourceAllocationPolicyES7_E15_nn_sf_sync_SetEjj
0000000000953a40  w   DO .data	0000000000000018 _ZTIN2nn4nifm6detail8IRequestE
00000000003240bc g    DF .text	0000000000000018 _ZNSt3__118condition_variableD2Ev
0000000000133f54 g    DF .text	000000000000001c _ZN2nn4htcs14GetPeerNameAnyEv
00000000002c3b5c g    DF .text	000000000000012c _ZN7android14SurfaceControl20writeSurfaceToParcelERKNS_2spIS0_EEPNS_6ParcelE
00000000000d8678  w   DF .text	0000000000000020 _ZN2nn2sf4cmif6client6detail13CmifProxyImplINS_4bcat6detail3ipc12IBcatServiceENS2_15CmifDomainProxyINS0_4hipc6client38Hipc2ClientSessionManagedProxyKindBaseINSB_18Hipc2ProxyKindBaseILNSA_6detail11MessageTypeE4EEEEEEENS0_30MemoryResourceAllocationPolicyES8_E31_nn_sf_sync_UnblockDeliveryTaskENS_13ApplicationIdE
0000000000135fc8 g    DF .text	0000000000000030 _ZN2nn2lm6detail20LogPacketTransmitter17PushLogSessionEndEv
000000000023c1ec  w   DF .text	0000000000000020 _ZN2nn2sf4cmif6client6detail13CmifProxyImplINS_8irsensor15IIrSensorServerENS0_4hipc6client18Hipc2ProxyKindBaseILNS7_6detail11MessageTypeE4EEENS0_25StatelessAllocationPolicyINS0_22ExpHeapStaticAllocatorILm16384ENS5_6detail14IrSensorServerEEEEES6_E28_nn_sf_sync_ActivateIrsensorENS_6applet20AppletResourceUserIdE
0000000000354850 g    DF .text	0000000000000054 _ZNSt3__114collate_bynameIcED0Ev
0000000000139c54 g    DF .text	0000000000000108 _ZN2nn3nfc29AttachAvailabilityChangeEventEPNS_2os15SystemEventTypeE
00000000000ae3f0 g    DF .text	000000000000003c _ZN2nn6socket8resolver3tls6Client24GetCurrentGaiErrorStringEv
0000000000158524 g    DF .text	0000000000000048 _ZN2nn3nsd14GetSettingNameEPNS0_11SettingNameE
0000000000362398 g    DF .text	0000000000000084 _ZNSt3__118shared_timed_mutex11lock_sharedEv
00000000009ef6a8 g    DO .bss	0000000000000008 _ZN2nn3ssl6detail16SslMemoryManager6g_HeapE
00000000001179d8 g    DF .text	0000000000000028 _ZN2nn5codec30HardwareOpusMultiStreamDecoderC1Ei
00000000000390a0 g    DF .text	0000000000000040 nnutilZlib__tr_init
0000000000205998 g    DF .text	00000000000000c4 internal_get_outline
000000000081f220  w   DO .rodata	000000000000013b _ZTSN2nn2sf6detail38ObjectImplFactoryWithStatefulAllocatorINS0_4cmif6client16CmifProxyFactoryINS_3fgm2sf8IRequestENS4_15CmifDomainProxyINS0_4hipc6client38Hipc2ClientSessionManagedProxyKindBaseINSB_18Hipc2ProxyKindBaseILNSA_6detail11MessageTypeE4EEEEEEENS0_30MemoryResourceAllocationPolicyEE13ServiceObjectESJ_E6ObjectE
0000000000331070  w   DF .text	0000000000000004 _ZNSt3__113basic_ostreamIwNS_11char_traitsIwEEED2Ev
000000000013ba60  w   DF .text	00000000000001c8 _ZN2nn2sf4cmif6client34CmifDomainProxyClientCoreProcessorINS0_4hipc6client38Hipc2ClientSessionManagedProxyKindBaseINS5_18Hipc2ProxyKindBaseILNS4_6detail11MessageTypeE4EEEEENS1_6detail14CoreMethodInfoINSt3__15tupleIJNSC_18BufferArgumentInfoILi0ELi26ELm64EEENSC_17InRawArgumentInfoILm8ELm4ELl0EEEEEELm8ELm0ELb0EEESK_E7ProcessEPNS2_23CmifDomainClientMessageISB_E15ProxyBaseObjectENS2_24BufferClientArgumentTypeENS2_23InRawClientArgumentTypeILm8ELm4EvEEj
00000000007c8350  w   DO .rodata	0000000000000109 _ZTSN2nn2sf4cmif6client6detail13CmifProxyImplINS_2am7service25IProcessWindingControllerENS2_15CmifDomainProxyINS0_4hipc6client38Hipc2ClientSessionManagedProxyKindBaseINSA_18Hipc2ProxyKindBaseILNS9_6detail11MessageTypeE4EEEEEEENS0_30MemoryResourceAllocationPolicyES7_EE
00000000007bd7a0  w   DO .rodata	0000000000000024 _ZTSN2nn7account6detail13IAsyncContextE
00000000003de104 g    DF .text	00000000000000cc perror
0000000000151da0  w   DF .text	0000000000000024 _ZN2nn2sf4cmif6client6detail13CmifProxyImplINS_4nifm6detail15IGeneralServiceENS2_15CmifDomainProxyINS0_4hipc6client38Hipc2ClientSessionManagedProxyKindBaseINSA_18Hipc2ProxyKindBaseILNS9_6detail11MessageTypeE4EEEEEEENS0_25StatelessAllocationPolicyINS0_22ExpHeapStaticAllocatorILm16384ENS6_21ServiceProviderClient30CreateNifmUserServiceObjectTagEEEEES7_E36_nn_sf_sync_GetCurrentNetworkProfileENS0_3OutINS6_2sf18NetworkProfileDataEvEE
0000000000942f00 g    DO .data	0000000000000018 _ZTIN2nn2fs6detail18FileSystemAccessorE
000000000008de74 g    DF .text	0000000000000084 _ZN2nn2os22StartOneShotTimerEventEPNS0_14TimerEventTypeENS_8TimeSpanE
000000000021ddb8 g    DF .text	0000000000000078 _ZN2nn3hid6detail20GetNpadInterfaceTypeEPhRKj
000000000027072c g    DF .text	0000000000000098 NvRmMemIsOwnedByAruid
00000000003e6f4c g    DF .text	00000000000001e4 __nnmusl_CreateThread
000000000015850c g    DF .text	0000000000000004 _ZNK2nn4nifm6detail12HttpResponse10GetPointerEv
0000000000955e20  w   DO .data	0000000000000018 _ZTIN2nn7timesrv6detail7service14IStaticServiceE
0000000000978470  w   DO .data	0000000000000018 _ZTIN2nn3i2c8IManagerE
00000000002c8f54 g    DF .text	0000000000000008 _ZNK7android5Fence10getFdCountEv
0000000000348278  w   DF .text	0000000000000008 _ZNKSt3__117moneypunct_bynameIwLb0EE13do_neg_formatEv
0000000000367a10 g    DF .text	00000000000001d4 _ZNSt3__14stolERKNS_12basic_stringIcNS_11char_traitsIcEENS_9allocatorIcEEEEPmi
000000000019a720 g    DF .text	0000000000000108 _ZN2nn5audio36GetReleasedFinalOutputRecorderBufferEPNS0_19FinalOutputRecorderE
00000000001b8c18 g    DF .text	0000000000000038 _ZNK2nn3mii6detail11CoreDataRaw15GetFacelineTypeEv
00000000000b1774 g    DF .text	0000000000000064 _ZN2nn4util20GenerateUuidVersion5EPKv
0000000000167f10 g    DF .text	0000000000000044 _ZN2nn8settings6system20SetBacklightSettingsERKNS1_19BacklightSettingsExE
00000000009f7b38 g    DO .bss	0000000000000004 _ZN2nn5audio6detail20g_AudioRendererCountE
000000000026cc20 g    DF .text	0000000000000008 NvRmSyncCalculateSizeForInplaceFd
000000000016c954 g    DF .text	0000000000000070 _ZN2nn8settings6detail22SetBluetoothEnableFlagEb
0000000000084138 g    DF .text	0000000000000008 _ZN2nn7nlibsdk4heap14TlsHeapCentralC2Ev
00000000001a8ef0 g    DF .text	0000000000000008 _ZNK2nn5audio3dsp20CommandListProcessor14GetBufferCountEv
0000000000140cac g    DF .text	00000000000001b8 _ZN2nn3ngc12CountNumbersEPKc
0000000000161004  w   DF .text	0000000000000030 _ZN2nn2sf4cmif6client6detail13CmifProxyImplINS_4pctl6detail3ipc23IParentalControlServiceENS2_15CmifDomainProxyINS0_4hipc6client38Hipc2ClientSessionManagedProxyKindBaseINSB_18Hipc2ProxyKindBaseILNSA_6detail11MessageTypeE4EEEEEEENS0_30MemoryResourceAllocationPolicyES8_E47_nn_sf_sync_FinishGetAccountMiiImageContentTypeENS0_3OutIjvEERKNS0_8OutArrayIcEENS6_9AsyncDataE
00000000003c3c44  w   DF .text	0000000000000014 creat64
0000000000220644 g    DF .text	000000000000000c _ZN2nn3hid6detail32GetSixAxisSensorHandleNpadIdTypeERKNS0_19SixAxisSensorHandleE
00000000003a2518 g    DF .text	00000000000000a4 __floatundisf
00000000000b21ec g    DF .text	0000000000000034 _ZN2nn7account6detail18OAuthProcedureBase13ApplyResponseEPKcm
000000000015b6cc g    DF .text	0000000000000060 _ZN2nn2oe37IsUserInactivityDetectionTimeExtendedEv
00000000003e68f0 g    DF .text	00000000000002e0 __nnmusl_DirChange
00000000002aa864 g    DF .text	00000000000001e8 _ZNK7android10BufferItem7flattenERPvRmRPiS3_
000000000033338c g    DF .text	0000000000000004 _ZNSt3__18ios_base7failureD1Ev
0000000000230e68  w   DF .text	0000000000000020 _ZN2nn2sf4cmif6client6detail13CmifProxyImplINS_3hid15IHidDebugServerENS0_4hipc6client18Hipc2ProxyKindBaseILNS7_6detail11MessageTypeE4EEENS0_25StatelessAllocationPolicyINS0_22ExpHeapStaticAllocatorILm16384ENS5_6detail14HidDebugServerEEEEES6_E42_nn_sf_sync_DeactivateConsoleSixAxisSensorEv
000000000008d5ac g    DF .text	0000000000000030 _ZN2nn2os20InitializeLightEventEPNS0_14LightEventTypeEbNS0_14EventClearModeE
000000000035a84c g    DF .text	0000000000000028 _ZNSt3__18numpunctIcEC2Em
0000000000174240  w   DF .text	0000000000000024 _ZN2nn2sf4cmif6client6detail13CmifProxyImplINS_8settings21ISystemSettingsServerENS0_4hipc6client18Hipc2ProxyKindBaseILNS7_6detail11MessageTypeE4EEENS0_25StatelessAllocationPolicyINS0_22ExpHeapStaticAllocatorILm16384ES6_EEEES6_E26_nn_sf_sync_GetAudioVolumeENS0_3OutINS5_6system11AudioVolumeEvEEi
00000000007d7760  w   DO .rodata	0000000000000107 _ZTSN2nn2sf4cmif6client6detail13CmifProxyImplINS_7friends6detail3ipc15IServiceCreatorENS2_15CmifDomainProxyINS0_4hipc6client38Hipc2ClientSessionManagedProxyKindBaseINSB_18Hipc2ProxyKindBaseILNSA_6detail11MessageTypeE4EEEEEEENS0_30MemoryResourceAllocationPolicyES8_EE
000000000018909c g    DF .text	0000000000000058 _ZN2nn5audio18GetMemoryPoolStateEPKNS0_14MemoryPoolTypeE
00000000003310b8  w   DF .text	0000000000000030 _ZTv0_n24_NSt3__113basic_ostreamIwNS_11char_traitsIwEEED0Ev
0000000000156f94 g    DF .text	0000000000000004 _ZN2nn4nifm23TemporaryNetworkProfile9GetHandleEv
000000000009cd24  w   DF .text	000000000000007c _ZN2nn2sf4hipc6server24HipcServerSessionManager19CreateServerSessionEONS0_4cmif6server20CmifServerObjectInfoE
0000000000210368 g    DF .text	00000000000000b8 ttf_read_buf
0000000000328428 g    DF .text	00000000000000e4 _ZNSt3__18ios_base5clearEj
00000000001c09ac g    DF .text	0000000000000008 _ZN2nn3mii6detail16Ver3StoreDataRaw9UpdateCrcEv
00000000001c6b28  w   DF .text	0000000000000160 _ZN2nn2sf4cmif6client34CmifDomainProxyClientCoreProcessorINS0_4hipc6client38Hipc2ClientSessionManagedProxyKindBaseINS5_18Hipc2ProxyKindBaseILNS4_6detail11MessageTypeE4EEEEENS1_6detail14CoreMethodInfoINSt3__15tupleIJNSC_18OutRawArgumentInfoILm88ELm4ELl0EEENSC_17InRawArgumentInfoILm4ELm4ELl0EEEEEELm4ELm88ELb0EEESK_E7ProcessEPNS2_23CmifDomainClientMessageISB_E15ProxyBaseObjectENS2_24OutRawClientArgumentTypeILm88ELm4EEENS2_23InRawClientArgumentTypeILm4ELm4EvEEj
000000000097ae68 g    DO .data	0000000000000060 _ZTVNSt3__17codecvtIDic11__mbstate_tEE
0000000000140e64 g    DF .text	000000000000015c _ZN2nn3ngc12CountNumbersEPKt
00000000001848c8  w   DF .text	0000000000000108 _ZN2nn2sf4hipc6client24Hipc2ClientCoreProcessorILNS1_6detail11MessageTypeE4ENS0_4cmif6detail14CoreMethodInfoINSt3__15tupleIJNS7_17InRawArgumentInfoILm4ELm4ELl0EEENSB_ILm8ELm8ELl8EEEEEELm16ELm0ELb1EEESE_E7ProcessEPNS2_26Hipc2ClientProxyBaseObjectENS6_6client23InRawClientArgumentTypeILm4ELm4EvEENSK_ILm8ELm8EvEEj
000000000018d0f8 g    DF .text	0000000000000008 _ZN2nn5audio6common13NodeIdManager7GetBaseEj
0000000000264614 g    DF .text	0000000000000018 app_Free
00000000003ab0c0 g    DF .text	0000000000000004 pthread_cond_signal
00000000001feba8 g    DF .text	0000000000000eac make_graymap
0000000000081cb4 g    DF .text	0000000000000010 nnmem_nlib_thread_priority_max
00000000001cb8b4 g    DF .text	000000000000005c _ZN2nn5swkbd6detail18InlineKeyboardImpl25GetImageMemoryRequirementEPmS3_
000000000017a330 g    DF .text	0000000000000030 _ZN2nn3ssl6detail14ServiceSession8FinalizeEv
00000000001b94f4 g    DF .text	0000000000000038 _ZNK2nn3mii6detail11CoreDataRaw8GetMoleYEv
0000000000186340 g    DF .text	0000000000000030 _ZN2nn5audio21SetBufferMixerEnabledEPNS0_15BufferMixerTypeEb
0000000000824030 g    DO .rodata	0000000000000028 _ZTSNSt12experimental19bad_optional_accessE
00000000001ce8b8  w   DF .text	0000000000000024 _ZN2nn2sf4cmif6client6detail13CmifProxyImplINS_5visrv2sf21ISystemDisplayServiceENS0_4hipc6client18Hipc2ProxyKindBaseILNS8_6detail11MessageTypeE4EEENS0_30MemoryResourceAllocationPolicyES7_E35_nn_sf_sync_SetDisplayContrastRatioEmf
0000000000954e90  w   DO .data	0000000000000038 _ZTIN2nn2sf6detail39ObjectImplFactoryWithStatelessAllocatorINS0_4cmif6client16CmifProxyFactoryINS_8settings28IFirmwareDebugSettingsServerENS0_4hipc6client18Hipc2ProxyKindBaseILNS8_6detail11MessageTypeE4EEENS0_25StatelessAllocationPolicyINS0_22ExpHeapStaticAllocatorILm16384ES7_EEEEE13ServiceObjectESH_E6ObjectE
00000000007f0ea0 g    DO .rodata	0000000000000024 _ZTSN2nn5audio6server15BufferMixerInfoE
0000000000948a80  w   DO .data	0000000000000018 _ZTIN2nn7account6detail14ISessionObjectE
00000000003b8dc0  w   DF .text	00000000000001e0 __memmove_device
00000000000b1c4c g    DF .text	0000000000000058 _ZN2nn7account22ShowUserNicknameEditorERKNS0_3UidE
00000000001769b4  w   DF .text	00000000000000f8 _ZN2nn2sf4hipc6client24Hipc2ClientCoreProcessorILNS1_6detail11MessageTypeE4ENS0_4cmif6detail14CoreMethodInfoINSt3__15tupleIJNS7_18OutRawArgumentInfoILm12ELm4ELl0EEEEEELm0ELm12ELb0EEESD_E7ProcessEPNS2_26Hipc2ClientProxyBaseObjectENS6_6client24OutRawClientArgumentTypeILm12ELm4EEEj
00000000000b10d0 g    DF .text	0000000000000008 _ZN2nn6socket8resolver10serializer13DNSSerializer12InternalNtohERKj
00000000002b443c g    DF .text	0000000000000034 _ZN7android18GraphicBufferAllocD2Ev
0000000000825530 g    DO .rodata	0000000000000022 _ZTSN10__cxxabiv117__array_type_infoE
000000000039db44 g    DF .text	000000000000006c __floatunditf
00000000007e9228 g    DO .rodata	0000000000000008 _ZN2nn5audio14MemoryPoolType16AddressAlignmentE
0000000000238b78 g    DF .text	000000000000006c _ZN2nn8irsensor6detail13StatusManager21RegisterIrSensorAruidERKNS_6applet20AppletResourceUserIdE
000000000039efdc g    DF .text	0000000000000058 __addvsi3
000000000021e594 g    DF .text	00000000000000a4 _ZN2nn3hid6detail16GetIrSensorStateEPNS0_6system13IrSensorStateERj
00000000000b10d8 g    DF .text	0000000000000008 _ZN2nn6socket8resolver10serializer13DNSSerializer12InternalNtohERKt
00000000000bf33c g    DF .text	000000000000002c _ZNK2nn7account33ExternalNetworkServiceAccountInfo26GetNetworkServiceAccountIdEPNS0_23NetworkServiceAccountIdE
0000000000132a98  w   DF .text	00000000000001e8 _ZN2nn2sf4cmif6client34CmifDomainProxyClientCoreProcessorINS0_4hipc6client38Hipc2ClientSessionManagedProxyKindBaseINS5_18Hipc2ProxyKindBaseILNS4_6detail11MessageTypeE4EEEEENS1_6detail14CoreMethodInfoINSt3__15tupleIJNSC_18OutRawArgumentInfoILm4ELm4ELl0EEENSC_21OutObjectArgumentInfoILi0ELi0EEENSC_17InRawArgumentInfoILm1ELm1ELl0EEEEEELm1ELm4ELb0EEESM_E21ProcessWithOutObjectsEPNS2_23CmifDomainClientMessageISB_E15ProxyBaseObjectENS2_24OutRawClientArgumentTypeILm4ELm4EEENS2_27OutObjectClientArgumentTypeENS2_23InRawClientArgumentTypeILm1ELm1EvEEjPNS0_13SharedPointerINS0_14IServiceObjectEEE
00000000007b91c0  w   DO .rodata	0000000000000028 _ZTSN2nn2sf4hipc6server17IHipcObjectDomainE
000000000018ae1c g    DF .text	0000000000000080 _ZN2nn5audio20SetSplitterMixVolumeEPNS0_12SplitterTypeEiPNS0_12FinalMixTypeEfii
0000000000333b78 g    DF .text	0000000000000048 _ZNSt3__18ios_base4InitD2Ev
000000000007e028 g    DF .text	00000000000000d8 nnmem_nlib_strto_int32
0000000000008704  w   DF .text	0000000000000034 _ZN2nn6crypto6detail11XtsModeImplINS1_19XtsModeAes128HelperEE8FinalizeEPvm
0000000000179f60 g    DF .text	0000000000000024 nnsslConnectionSetServerCertBuffer
0000000000234f78  w   DF .text	0000000000000024 _ZN2nn2sf4cmif6client6detail13CmifProxyImplINS_3hid16IHidSystemServerENS0_4hipc6client18Hipc2ProxyKindBaseILNS7_6detail11MessageTypeE4EEENS0_25StatelessAllocationPolicyINS0_22ExpHeapStaticAllocatorILm16384ENS5_6detail15HidSystemServerEEEEES6_E38_nn_sf_sync_EnableUsbFullKeyControllerEb
00000000001364b8 g    DF .text	00000000000000a8 _ZN2nn2lm6detail24LogPacketTransmitterBaseC2EPvmPFbPKhmEhhmbb
000000000004d0b4 g    DF .text	0000000000000040 _ZN2nn2fs6detail12FileAccessor7GetSizeEPl
00000000009496d0  w   DO .data	0000000000000028 _ZTIN2nn7account49ExternalNetworkServiceAccountIntroducingProcedureE
000000000023d158 g    DF .text	00000000000001f8 _ZN2nn8irsensor6detail31CreateIrSensorSystemServerProxyEPNS_2sf13SharedPointerINS0_21IIrSensorSystemServerEEE
000000000039cf2c g    DF .text	000000000000004c __unordtf2
00000000001a53d0 g    DF .text	000000000000008c _ZN2nn5audio6server12SplitterInfo6UpdateEPKNS0_12SplitterInfo11InParameterE
00000000002279a0 g    DF .text	0000000000000090 _ZN2nn3hid6detail30GetActualVibrationGcErmCommandEPNS0_21VibrationGcErmCommandERKNS0_21VibrationDeviceHandleE
00000000000c2200 g    DF .text	0000000000000078 _ZN2nn7account13ProfileEditorC1EOS1_
0000000000236a50 g    DF .text	0000000000000174 _ZN2nn8irsensor6detail19CheckInternalStatusERKNS0_14IrCameraHandleE
00000000007e0ee0  w   DO .rodata	0000000000000020 _ZTSN2nn4nifm6detail12IScanRequestE
00000000007e3560  w   DO .rodata	000000000000014b _ZTSN2nn2sf6detail38ObjectImplFactoryWithStatefulAllocatorINS0_4cmif6client16CmifProxyFactoryINS_5prepo6detail3ipc13IPrepoServiceENS4_15CmifDomainProxyINS0_4hipc6client38Hipc2ClientSessionManagedProxyKindBaseINSC_18Hipc2ProxyKindBaseILNSB_6detail11MessageTypeE4EEEEEEENS0_30MemoryResourceAllocationPolicyEE13ServiceObjectESK_E6ObjectE
00000000000c5f84  w   DF .text	0000000000000020 _ZN2nn2sf4cmif6client6detail13CmifProxyImplINS_2am7service18ICommonStateGetterENS2_15CmifDomainProxyINS0_4hipc6client38Hipc2ClientSessionManagedProxyKindBaseINSA_18Hipc2ProxyKindBaseILNS9_6detail11MessageTypeE4EEEEEEENS0_30MemoryResourceAllocationPolicyES7_E28_nn_sf_sync_ReleaseSleepLockEv
000000000031e2cc  w   DF .text	000000000000052c _ZNSt3__16__sortIRNS_6__lessIiiEEPiEEvT0_S5_T_
00000000003a47d8 g    DF .text	0000000000000080 __subvti3
0000000000046648 g    DF .text	000000000000013c _ZN2nn2fs6detail18IsEnabledAccessLogEj
00000000000b1f80 g    DF .text	0000000000000018 _ZN2nn7account6detail18OAuthProcedureBaseC1Ev
000000000024fe80 g    DF .text	00000000000000b4 _ZN2nn3ldn20CreateNetworkPrivateERKNS0_13NetworkConfigERKNS0_14SecurityConfigERKNS0_17SecurityParameterERKNS0_10UserConfigEiPKNS0_12AddressEntryE
00000000002c7344 g    DF .text	000000000000009c _ZN7android21SurfaceComposerClient14setContentTypeERKNS_2spINS_7IBinderEEEi
000000000097e300 g    DO .data	0000000000000038 _ZTVN10__cxxabiv116__enum_type_infoE
0000000000048d98 g    DF .text	000000000000016c _ZN2nn2fs24HierarchicalRomFileTable17FindNextDirectoryEPcPNS1_12FindPositionEm
00000000009557e8 g    DO .data	0000000000000018 _ZTVN2nn3ssl6detail18ISslServiceFactoryE
00000000001d7130 g    DF .text	0000000000000098 _ZN2nn2vi6buffer11BufferQueue26GetRequiredMemoryAlignmentERKNS1_10BufferInfoE
00000000001671f8  w   DF .text	0000000000000008 _ZThn32_N2nn2sf4cmif6client6detail13CmifProxyImplINS_5prepo6detail3ipc13IPrepoServiceENS2_15CmifDomainProxyINS0_4hipc6client38Hipc2ClientSessionManagedProxyKindBaseINSB_18Hipc2ProxyKindBaseILNSA_6detail11MessageTypeE4EEEEEEENS0_30MemoryResourceAllocationPolicyES8_E17GetCmifBaseObjectEv
00000000001bcdbc g    DF .text	0000000000000004 _ZN2nn3mii6detail12StoreDataRaw12SetGlassTypeEi
000000000022d878 g    DF .text	0000000000000060 _ZN2nn3hid20GetTouchScreenStatesILm1EEEiPNS0_16TouchScreenStateIXT_EEEi
000000000097bd20  w   DO .data	0000000000000018 _ZTINSt3__115time_put_bynameIwNS_19ostreambuf_iteratorIwNS_11char_traitsIwEEEEEE
00000000001740c0  w   DF .text	0000000000000024 _ZN2nn2sf4cmif6client6detail13CmifProxyImplINS_8settings21ISystemSettingsServerENS0_4hipc6client18Hipc2ProxyKindBaseILNS7_6detail11MessageTypeE4EEENS0_25StatelessAllocationPolicyINS0_22ExpHeapStaticAllocatorILm16384ES6_EEEES6_E29_nn_sf_sync_SetLockScreenFlagEb
00000000001c7a4c g    DF .text	0000000000000018 _ZN2nn3mii11StartAppletEPNS0_12AppletOutputERKNS0_11AppletInputE
0000000000360dc8 g    DF .text	0000000000000018 _ZNSt3__119__shared_weak_count10__add_weakEv
0000000000117cec g    DF .text	0000000000000008 _ZNK2nn5codec30HardwareOpusMultiStreamDecoder19GetTotalStreamCountEv
0000000000046784 g    DF .text	0000000000000008 _ZN2nn2fs6detail18IsEnabledAccessLogEv
000000000023c30c  w   DF .text	0000000000000024 _ZN2nn2sf4cmif6client6detail13CmifProxyImplINS_8irsensor15IIrSensorServerENS0_4hipc6client18Hipc2ProxyKindBaseILNS7_6detail11MessageTypeE4EEENS0_25StatelessAllocationPolicyINS0_22ExpHeapStaticAllocatorILm16384ENS5_6detail14IrSensorServerEEEEES6_E34_nn_sf_sync_RunTeraPluginProcessorENS_6applet20AppletResourceUserIdENS5_14IrCameraHandleENS5_31PackedTeraPluginProcessorConfigE
0000000000950408  w   DO .data	0000000000000010 _ZTIN2nn5codec12IOpusDecoderE
0000000000356974 g    DF .text	0000000000000010 _ZNKSt3__112ctype_bynameIwE10do_tolowerEw
00000000007f6750 g    DO .rodata	00000000000006c0 _ZN2nn3mii6detail15DefaultMiiTableE
000000000022a88c g    DF .text	0000000000000068 _ZN2nn3hid15KeyCodeComposer14RemoveKeyCodesEPti
00000000007adc48 g    DO .rodata	0000000000000004 _ZN2nn4util8Color4u813ConstantBlackE
000000000017754c g    DF .text	0000000000000104 _ZN2nn8settings6detail20GetXpadGenericPadMapEPNS0_22BasicXpadGenericPadMapEi
000000000023c06c g    DF .text	0000000000000138 _ZN2nn8irsensor6detail25CreateIrSensorServerProxyEPNS_2sf13SharedPointerINS0_15IIrSensorServerEEE
000000000097aac8 g    DO .data	0000000000000050 _ZTVNSt3__18numpunctIcEE
00000000008236d0  w   DO .rodata	0000000000000016 _ZTSNSt3__19__num_putIcEE
00000000002283bc g    DF .text	0000000000000044 _ZN2nn3hid6system19GetAnalogStickStateEPNS0_16AnalogStickStateENS1_11UniquePadIdENS1_19AnalogStickPositionE
00000000000ba550  w   DF .text	0000000000000010 _ZN2nn2sf4cmif6client6detail13CmifProxyImplINS_7account19IAccountServiceBaseENS2_15CmifDomainProxyINS0_4hipc6client38Hipc2ClientSessionManagedProxyKindBaseINS9_18Hipc2ProxyKindBaseILNS8_6detail11MessageTypeE4EEEEEEENS0_25StatelessAllocationPolicyINS0_22ExpHeapStaticAllocatorILm2048ENS5_6detail12ObjectHolder24ObjectHolderAllocatorTagEEEEENS5_31IAccountServiceForAdministratorEE17GetCmifBaseObjectEv
00000000001bb524 g    DF .text	0000000000000088 _ZN2nn3mii6detail24LoadLittleEndianNicknameEPNS0_8NicknameEPKti
00000000000a05dc g    DF .text	0000000000000044 _ZN2nn2sf4hipc31InitializeHipcServiceResolutionEv
00000000000bef1c g    DF .text	0000000000000034 _ZNK2nn7account25CachedNintendoAccountInfo11GetBirthdayEPm
00000000001b8b10 g    DF .text	0000000000000034 _ZNK2nn3mii6detail11CoreDataRaw9GetGenderEv
00000000003296bc  w   DF .text	0000000000000054 _ZNSt3__115basic_streambufIwNS_11char_traitsIwEEEC1ERKS3_
00000000008223b4 g    DO .rodata	0000000000000004 _ZNSt3__18ios_base7showposE
0000000000005fb0 g    DF .text	00000000000001e4 _ZN2nn6crypto6detail19CbcModeAes128Helper13DecryptBlocksEPvS3_PKviPKNS0_12AesDecryptorILm16EEE
00000000000c960c  w   DF .text	000000000000004c _ZN2nn2sf4cmif6client6detail13CmifProxyImplINS_2am7service25IProcessWindingControllerENS2_15CmifDomainProxyINS0_4hipc6client38Hipc2ClientSessionManagedProxyKindBaseINSA_18Hipc2ProxyKindBaseILNS9_6detail11MessageTypeE4EEEEEEENS0_30MemoryResourceAllocationPolicyES7_E46_nn_sf_sync_ReserveToStartAndWaitAndUnwindThisENS0_13SharedPointerINS6_22ILibraryAppletAccessorEEE
00000000001a3de0 g    DF .text	0000000000000010 _ZNK2nn5audio6server10MixContext7GetInfoEi
00000000000b7aa0  w   DF .text	000000000000009c _ZN2nn2sf4cmif6client6detail13CmifProxyImplINS_7account31IAccountServiceForSystemServiceENS2_15CmifDomainProxyINS0_4hipc6client38Hipc2ClientSessionManagedProxyKindBaseINS9_18Hipc2ProxyKindBaseILNS8_6detail11MessageTypeE4EEEEEEENS0_25StatelessAllocationPolicyINS0_22ExpHeapStaticAllocatorILm2048ENS5_6detail12ObjectHolder24ObjectHolderAllocatorTagEEEEES6_E49_nn_sf_sync_GetBaasAccountManagerForSystemServiceENS0_3OutINS0_13SharedPointerINS5_4baas24IManagerForSystemServiceEEEvEERKNS5_3UidE
00000000007d65f0  w   DO .rodata	000000000000001a _ZTSN2nn5codec12IOpusEncoderE
00000000001e0b18 g    DF .text	00000000000000cc FSS_font_metrics
0000000000285ecc g    DF .text	0000000000000008 nvgr_get_extformat
00000000000160d4 g    DF .text	000000000000037c _ZN2nn5image6detail4jpeg23jinit_c_prep_controllerEPNS2_20jpeg_compress_structEb
00000000001c03fc g    DF .text	0000000000000084 _ZNK2nn3mii6detail16Ver3StoreDataRaw9GetBeardYEv
000000000005fa94 g    DF .text	000000000000003c _ZN2nn2fs6detail29DirectoryServiceObjectAdapter6DoReadEPlPNS0_14DirectoryEntryEl
000000000009bd38 g    DF .text	000000000000003c _ZNK2nn2sf4hipc6detail25HipcMessageBufferAccessor10GetReceiveEi
000000000011cf64 g    DF .text	0000000000000004 _ZN2nn7friends12SetAllocatorEPFPvmEPFvS1_mE
00000000000055cc  w   DF .text	00000000000001e8 _ZN2nn6crypto6detail7AesImplILm16EE10InitializeEPKvmb
0000000000008220  w   DF .text	0000000000000108 _ZN2nn6crypto6detail11XtsModeImplINS1_19XtsModeAes128HelperEE6UpdateEPvmPKvm
00000000008238f0  w   DO .rodata	0000000000000020 _ZTSNSt3__118__time_get_storageIcEE
00000000001c4fb0 g    DF .text	0000000000000084 _ZNK2nn3mii6detail16Ver3StoreDataRaw12GetReserved2Ev
000000000025754c g    DF .text	0000000000000088 _ZN2nn3web15ShowNewsPageArg16SetLeftStickModeENS0_16WebLeftStickModeE
00000000001837cc g    DF .text	0000000000000004 _ZN2nn3aoc10InitializeEv
0000000000081408 g    DF .text	0000000000000098 nnmem_nlib_mutex_trylock
00000000002508a8 g    DF .text	000000000000003c _ZN2nn3ldn8MakeSsidEPKc
00000000001c3268 g    DF .text	0000000000000010 _ZN2nn3mii6detail16Ver3StoreDataRaw9SetHeightEi
00000000002950dc g    DF .text	0000000000000008 _ZN7android7BBinder13unlinkToDeathERKNS_2wpINS_7IBinder14DeathRecipientEEEPvjPS4_
00000000000ed6e4 g    DF .text	0000000000000220 unquant_coarse_energy
000000000009136c g    DF .text	0000000000000004 nnosStartOneShotTimerEvent
0000000000215cc4 g    DF .text	000000000000000c _ZN2nn3hid6detail30MakeConsoleSixAxisSensorHandleEhi
00000000003bd594 g    DF .text	0000000000000080 __crypt_md5
00000000007dc518 g    DO .rodata	0000000000000040 _ZN2nn3nfc6client22RequiredMcuVersionDataE
000000000039ef84 g    DF .text	0000000000000058 __addvdi3
00000000001c6834  w   DF .text	0000000000000180 _ZN2nn2sf4cmif6client34CmifDomainProxyClientCoreProcessorINS0_4hipc6client38Hipc2ClientSessionManagedProxyKindBaseINS5_18Hipc2ProxyKindBaseILNS4_6detail11MessageTypeE4EEEEENS1_6detail14CoreMethodInfoINSt3__15tupleIJNSC_18OutRawArgumentInfoILm88ELm4ELl0EEENSC_17InRawArgumentInfoILm88ELm4ELl0EEENSI_ILm4ELm4ELl88EEEEEELm92ELm88ELb0EEESL_E7ProcessEPNS2_23CmifDomainClientMessageISB_E15ProxyBaseObjectENS2_24OutRawClientArgumentTypeILm88ELm4EEENS2_23InRawClientArgumentTypeILm88ELm4EvEENSU_ILm4ELm4EvEEj
00000000003a26a0 g    DF .text	0000000000000160 __floatuntidf
00000000003c61cc g    DF .text	0000000000000180 asinf
00000000003e8144 g    DF .text	00000000000000a4 __nnmusl_get_tls_dtors_status
00000000003c634c g    DF .text	00000000000000fc asinh
00000000000c9cc8  w   DF .text	0000000000000020 _ZN2nn2sf4cmif6client6detail13CmifProxyImplINS_2am7service22ILibraryAppletAccessorENS2_15CmifDomainProxyINS0_4hipc6client38Hipc2ClientSessionManagedProxyKindBaseINSA_18Hipc2ProxyKindBaseILNS9_6detail11MessageTypeE4EEEEEEENS0_30MemoryResourceAllocationPolicyES7_E42_nn_sf_sync_GetIndirectLayerConsumerHandleENS0_3OutImvEENS_6applet20AppletResourceUserIdE
000000000017f014 g    DF .text	0000000000000070 _ZN2nn4time37SetEphemeralNetworkSystemClockContextERKNS0_18SystemClockContextE
00000000001881f0 g    DF .text	000000000000000c _ZN2nn5audio24GetI3dl2ReverbReverbGainEPKNS0_15I3dl2ReverbTypeE
00000000001563e4 g    DF .text	0000000000000114 _ZN2nn4nifm24EnumerateNetworkProfilesEPNS0_23NetworkProfileBasicInfoEPiih
00000000001fa6e0 g    DF .text	00000000000000f8 fsg_RunFontProgram
00000000000cc2b8  w   DF .text	0000000000000008 _ZN2nn2sf4cmif6client6detail13CmifProxyImplINS_2am7service26ILibraryAppletSelfAccessorENS2_15CmifDomainProxyINS0_4hipc6client38Hipc2ClientSessionManagedProxyKindBaseINSA_18Hipc2ProxyKindBaseILNS9_6detail11MessageTypeE4EEEEEEENS0_30MemoryResourceAllocationPolicyES7_E12GetProxyInfoEv
00000000003c6568 g    DF .text	00000000000002a4 asinl
00000000001679d0  w   DF .text	00000000000000a0 _ZZN2nn2sf40SimpleAllInOneHipcSubDomainClientManagerILm1EE27InitializeShimLibraryHolderINS_5prepo6detail3ipc13IPrepoServiceEEENS_6ResultEPNS0_23ShimLibraryObjectHolderIT_EEPKcPNS_14MemoryResourceEENKUlPvE_clESH_
00000000000cd074  w   DF .text	0000000000000008 _ZThn32_N2nn2sf4cmif6client6detail13CmifProxyImplINS_6grcsrv17IGameMovieTrimmerENS2_15CmifDomainProxyINS0_4hipc6client38Hipc2ClientSessionManagedProxyKindBaseINS9_18Hipc2ProxyKindBaseILNS8_6detail11MessageTypeE4EEEEEEENS0_30MemoryResourceAllocationPolicyES6_E17GetCmifBaseObjectEv
00000000003c9158  w   DF .text	0000000000000098 pow10
00000000001a0d6c g    DF .text	000000000000003c _ZN2nn5audio6server30CommandProcessingTimeEstimator8EstimateERKNS0_13ReverbCommandE
0000000000264720 g    DF .text	0000000000000020 multimedia_Realloc
0000000000259388 g    DF .text	0000000000000008 nvdcEventModeChange
0000000000089cf0 g    DF .text	0000000000000024 _ZN2nn3mem17StandardAllocatorC2EPvmb
00000000001339f4 g    DF .text	000000000000017c _ZN2nn4htcs6detail4recvENS_2sf13SharedPointerINS_3tma7ISocketEEEPvmiRi
0000000000062c64 g    DF .text	000000000000000c _ZN2nn2fs15UnmountHostRootEv
00000000007abade g    DO .rodata	000000000000002f nnutilZlib_inflate_copyright
0000000000095928 g    DF .text	0000000000000184 _ZN2nn2os6detail26ThreadManagerImplByHorizon12CreateThreadEPNS0_10ThreadTypeEPFvS4_Ei
00000000007bcd60  w   DO .rodata	0000000000000158 _ZTSN2nn2sf4cmif6client6detail9CmifProxyINS_7account4baas22IManagerForApplicationENS2_15CmifDomainProxyINS0_4hipc6client38Hipc2ClientSessionManagedProxyKindBaseINSA_18Hipc2ProxyKindBaseILNS9_6detail11MessageTypeE4EEEEEEENS0_25StatelessAllocationPolicyINS0_22ExpHeapStaticAllocatorILm2048ENS5_6detail12ObjectHolder24ObjectHolderAllocatorTagEEEEEvEE
000000000016e2a0 g    DF .text	0000000000000070 _ZN2nn8settings6detail23GetNotificationSettingsEPNS0_6system20NotificationSettingsE
000000000021a950 g    DF .text	0000000000000098 _ZN2nn3hid6detail24GetNpadCommunicationModeEPNS0_21NpadCommunicationModeE
000000000022dc38 g    DF .text	0000000000000060 _ZN2nn3hid20GetTouchScreenStatesILm11EEEiPNS0_16TouchScreenStateIXT_EEEi
000000000023c24c  w   DF .text	0000000000000024 _ZN2nn2sf4cmif6client6detail13CmifProxyImplINS_8irsensor15IIrSensorServerENS0_4hipc6client18Hipc2ProxyKindBaseILNS7_6detail11MessageTypeE4EEENS0_25StatelessAllocationPolicyINS0_22ExpHeapStaticAllocatorILm16384ENS5_6detail14IrSensorServerEEEEES6_E30_nn_sf_sync_StopImageProcessorENS_6applet20AppletResourceUserIdENS5_14IrCameraHandleE
00000000003c316c g    DF .text	000000000000001c towctrans
000000000032c638  w   DF .text	0000000000000030 _ZTv0_n24_NSt3__113basic_istreamIwNS_11char_traitsIwEEED0Ev
00000000007b92d0  w   DO .rodata	0000000000000083 _ZTSN2nn2sf22UnmanagedServiceObjectINS0_4hipc6detail12IHipcManagerENS2_6server34HipcServerSessionManagerWithDomain15HipcManagerImplEEE
000000000021b0a0 g    DF .text	0000000000000084 _ZN2nn3hid6detail23MergeSingleJoyAsDualJoyERKjS3_
000000000022fd68 g    DF .text	0000000000000068 _ZN2nn3hid15VibrationPlayer4StopEv
00000000001cab60 g    DF .text	0000000000000030 _ZN2nn5swkbd6detail18InlineKeyboardImpl16SetKeytopBgAlphaEf
00000000001d7278 g    DF .text	000000000000021c _ZN2nn2vi6buffer11BufferQueue13SetScanBufferEiPvm
000000000024bda8 g    DF .text	0000000000000004 _ZNK2nn3kpr15KeyCodeComposer7GetModeEv
00000000000ab9b4  w   DF .text	0000000000000178 _ZN2nn2sf4cmif6client34CmifDomainProxyClientCoreProcessorINS0_4hipc6client38Hipc2ClientSessionManagedProxyKindBaseINS5_18Hipc2ProxyKindBaseILNS4_6detail11MessageTypeE4EEEEENS1_6detail14CoreMethodInfoINSt3__15tupleIJNSC_18OutRawArgumentInfoILm4ELm4ELl0EEENSG_ILm4ELm4ELl4EEENSC_17InRawArgumentInfoILm4ELm4ELl0EEENSJ_ILm8ELm8ELl8EEEEEELm16ELm8ELb0EEESM_E7ProcessEPNS2_23CmifDomainClientMessageISB_E15ProxyBaseObjectENS2_24OutRawClientArgumentTypeILm4ELm4EEESU_NS2_23InRawClientArgumentTypeILm4ELm4EvEENSV_ILm8ELm8EvEEj
000000000013e5c0 g    DF .text	0000000000000070 _ZN2nn3nfp8BreakTagERKNS0_12DeviceHandleENS0_9BreakTypeE
00000000001590a8 g    DF .text	00000000000000dc _ZN2nn3nsd6detail3ipc20GetNasServiceSettingEPNS0_17NasServiceSettingERKNS0_14NasServiceNameE
00000000002592ac g    DF .text	000000000000007c nvdcEventFds
0000000000056cdc  w   DF .text	00000000000001f8 _ZN2nn2sf4cmif6client34CmifDomainProxyClientCoreProcessorINS0_4hipc6client38Hipc2ClientSessionManagedProxyKindBaseINS5_18Hipc2ProxyKindBaseILNS4_6detail11MessageTypeE4EEEEENS1_6detail14CoreMethodInfoINSt3__15tupleIJNSC_18OutRawArgumentInfoILm8ELm8ELl0EEENSC_17InRawArgumentInfoILm8ELm8ELl8EEENSC_18BufferArgumentInfoILi0ELi70ELm0EEENSI_ILm8ELm8ELl16EEENSI_ILm4ELm4ELl0EEEEEELm24ELm8ELb0EEESO_E7ProcessEPNS2_23CmifDomainClientMessageISB_E15ProxyBaseObjectENS2_24OutRawClientArgumentTypeILm8ELm8EEENS2_23InRawClientArgumentTypeILm8ELm8EvEENS2_24BufferClientArgumentTypeESY_NSX_ILm4ELm4EvEEj
00000000002cdaa0 g    DF .text	000000000000004c _ZN7android7RefBaseC1Ev
0000000000328dfc  w   DF .text	000000000000004c _ZNSt3__115basic_streambufIwNS_11char_traitsIwEEE8pubimbueERKNS_6localeE
0000000000181750  w   DF .text	0000000000000150 _ZN2nn2sf4cmif6client34CmifDomainProxyClientCoreProcessorINS0_4hipc6client38Hipc2ClientSessionManagedProxyKindBaseINS5_18Hipc2ProxyKindBaseILNS4_6detail11MessageTypeE4EEEEENS1_6detail14CoreMethodInfoINSt3__15tupleIJNSC_18OutRawArgumentInfoILm36ELm1ELl0EEEEEELm0ELm36ELb0EEESI_E7ProcessEPNS2_23CmifDomainClientMessageISB_E15ProxyBaseObjectENS2_24OutRawClientArgumentTypeILm36ELm1EEEj
0000000000314208  w   DF .text	0000000000000008 _ZZN2nn2sf40SimpleAllInOneHipcSubDomainClientManagerILm41EE27InitializeShimLibraryHolderINS_3fgm2sf8ISessionEEENS_6ResultEPNS0_23ShimLibraryObjectHolderIT_EEPKcPNS_14MemoryResourceEENUlPvE_8__invokeESG_
0000000000115d30 g    DF .text	00000000000000fc opus_multistream_surround_encoder_create
00000000001175c4 g    DF .text	0000000000000024 _ZN2nn5codec19HardwareOpusDecoderC1Ei
00000000009531e0 g    DO .data	0000000000000018 _ZTIN2nn3ngc15ProfanityFilterE
00000000003c2604 g    DF .text	0000000000000010 __isdigit_l
00000000003d350c g    DF .text	0000000000000034 srand48
000000000007e100 g    DF .text	00000000000000b4 nnmem_nlib_strto_int64
000000000025d7e8 g    DF .text	0000000000000038 NvUHashClear
00000000003a77a4 g    DF .text	0000000000000000 fegetenv
0000000000096f8c g    DF .text	000000000000003c _ZN2nn2os6detail36InternalCriticalSectionImplByHorizon5LeaveEv
00000000000d06c0 g    DF .text	00000000000000f4 _ZN2nn3apm19InitializeForSystemEv
00000000003df6c4 g    DF .text	0000000000000040 vprintf
00000000007c1b30  w   DO .rodata	0000000000000167 _ZTSN2nn2sf4cmif6client6detail13CmifProxyImplINS_7account4baas12IManagerBaseENS2_15CmifDomainProxyINS0_4hipc6client38Hipc2ClientSessionManagedProxyKindBaseINSA_18Hipc2ProxyKindBaseILNS9_6detail11MessageTypeE4EEEEEEENS0_25StatelessAllocationPolicyINS0_22ExpHeapStaticAllocatorILm2048ENS5_6detail12ObjectHolder24ObjectHolderAllocatorTagEEEEENS6_14IAdministratorEEE
000000000013d4b8 g    DF .text	0000000000000054 _ZN2nn3nfp6client20DestroyUserInterfaceEv
00000000001c3478 g    DF .text	0000000000000010 _ZN2nn3mii6detail16Ver3StoreDataRaw12SetBeardTypeEi
0000000000825448 g    DO .rodata	0000000000000003 _ZTSPa
000000000004cd78 g    DF .text	000000000000001c _ZN2nn2fs6detail12FileAccessorC1EONSt3__110unique_ptrINS0_3fsa5IFileENS3_14default_deleteIS6_EEEERNS1_18FileSystemAccessorEi
00000000000afef4 g    DF .text	0000000000000028 _ZN2nn6socket8resolver10serializer13DNSSerializer6SizeOfIcEEmPKT_
0000000000825418 g    DO .rodata	0000000000000003 _ZTSPb
000000000095ba98  w   DO .data	0000000000000010 _ZTIN2nn3hid6detail8RingLifoINS0_16NpadJoyDualStateELi16ENS1_13AtomicStorageIS3_EEEE
0000000000825430 g    DO .rodata	0000000000000003 _ZTSPc
000000000013fca0 g    DF .text	0000000000000118 _ZN2nn3nfp14StartDetectionERKNS0_12DeviceHandleE
000000000080d5d0  w   DO .rodata	00000000000000ef _ZTSN2nn2sf4cmif6client6detail9CmifProxyINS_8irsensor15IIrSensorServerENS0_4hipc6client18Hipc2ProxyKindBaseILNS7_6detail11MessageTypeE4EEENS0_25StatelessAllocationPolicyINS0_22ExpHeapStaticAllocatorILm16384ENS5_6detail14IrSensorServerEEEEEvEE
00000000008254e8 g    DO .rodata	0000000000000003 _ZTSPd
00000000000ca110  w   DF .text	00000000000001cc _ZN2nn2sf4cmif6client34CmifDomainProxyClientCoreProcessorINS0_4hipc6client38Hipc2ClientSessionManagedProxyKindBaseINS5_18Hipc2ProxyKindBaseILNS4_6detail11MessageTypeE4EEEEENS1_6detail14CoreMethodInfoINSt3__15tupleIJNSC_17InRawArgumentInfoILm8ELm8ELl0EEENSC_18BufferArgumentInfoILi0ELi33ELm0EEEEEELm8ELm0ELb0EEESK_E7ProcessEPNS2_23CmifDomainClientMessageISB_E15ProxyBaseObjectENS2_23InRawClientArgumentTypeILm8ELm8EvEENS2_24BufferClientArgumentTypeEj
0000000000220658 g    DF .text	00000000000000a0 _ZN2nn3hid6detail23GetSixAxisSensorHandlesEPNS0_19SixAxisSensorHandleES3_NS0_9JoyXpadIdE
00000000008254f4 g    DO .rodata	0000000000000003 _ZTSPe
00000000003c22f0 g    DF .text	00000000000000ac setkey
00000000008254dc g    DO .rodata	0000000000000003 _ZTSPf
00000000002cd704 g    DF .text	0000000000000090 _ZN7android7RefBase12weakref_type7decWeakEPKv
0000000000825500 g    DO .rodata	0000000000000003 _ZTSPg
0000000000156ee4 g    DF .text	000000000000007c _ZN2nn4nifm17NetworkConnection26HandleNetworkRequestResultEv
000000000082543c g    DO .rodata	0000000000000003 _ZTSPh
00000000007bbbc0  w   DO .rodata	000000000000002f _ZTSN2nn7account6detail24SimpleOAuthProcedureBaseE
000000000082546c g    DO .rodata	0000000000000003 _ZTSPi
0000000000825478 g    DO .rodata	0000000000000003 _ZTSPj
00000000001c36c4 g    DF .text	0000000000000034 _ZN2nn3mii6detail16Ver3StoreDataRaw11SetAuthorIdERKNS1_12Ver3AuthorIdE
0000000000097a68 g    DF .text	0000000000000280 _ZN2nn2ro10LoadModuleEPNS0_6ModuleEPKvPvmi
0000000000825484 g    DO .rodata	0000000000000003 _ZTSPl
0000000000184c3c g    DF .text	0000000000000010 _ZN2nn5audio35GetAudioOutCountMaxForLibraryAppletEv
0000000000825490 g    DO .rodata	0000000000000003 _ZTSPm
00000000008254b4 g    DO .rodata	0000000000000003 _ZTSPn
00000000007adc58 g    DO .rodata	0000000000000004 _ZN2nn4util8Color4u813ConstantGreenE
00000000000a1984 g    DF .text	0000000000000004 _ZN2nn6socket9InetHtonsEt
00000000008254c0 g    DO .rodata	0000000000000003 _ZTSPo
0000000000258dc4 g    DF .text	00000000000000d4 nvdcQueryDisplays
000000000025d19c g    DF .text	00000000000000a0 NvOsGetConfigU32
0000000000228af0 g    DF .text	0000000000000048 _ZN2nn3hid3tmp40GetConsoleSixAxisSensorCalibrationValuesEPNS1_37ConsoleSixAxisSensorCalibrationValuesERKNS0_26ConsoleSixAxisSensorHandleE
00000000000721e0 g    DF .text	0000000000000024 nnmem_nlib_error_string
0000000000396764 g    DF .text	0000000000000054 _ZNSt14overflow_errorD1Ev
0000000000360244  w   DF .text	0000000000000118 _ZNSt3__127__num_get_unsigned_integralIyEET_PKcS3_Rji
00000000003a25bc g    DF .text	000000000000002c __floatundixf
00000000000a002c g    DF .text	0000000000000040 _ZN2nn2sf4impl6detail22ServiceObjectImplBase211ReleaseImplEv
0000000000091458 g    DF .text	0000000000000004 nnosClearInterruptEvent
0000000000825454 g    DO .rodata	0000000000000003 _ZTSPs
0000000000825460 g    DO .rodata	0000000000000003 _ZTSPt
00000000003959f4 g    DF .text	0000000000000040 __cxa_get_globals_fast
00000000000a4038 g    DF .text	0000000000000130 _ZN2nn6socket6detail18ShutdownAllSocketsEb
00000000000b13cc g    DF .text	0000000000000004 _ZN2nn6socket6detail6CancelEi
00000000008253fc g    DO .rodata	0000000000000003 _ZTSPv
0000000000071258 g    DF .text	0000000000000008 nnmem_nlib_compiler_version
0000000000825424 g    DO .rodata	0000000000000003 _ZTSPw
0000000000160614  w   DF .text	0000000000000020 _ZN2nn2sf4cmif6client6detail13CmifProxyImplINS_4pctl6detail3ipc23IParentalControlServiceENS2_15CmifDomainProxyINS0_4hipc6client38Hipc2ClientSessionManagedProxyKindBaseINSB_18Hipc2ProxyKindBaseILNSA_6detail11MessageTypeE4EEEEEEENS0_30MemoryResourceAllocationPolicyES8_E36_nn_sf_sync_ConfirmSnsPostPermissionEv
000000000082549c g    DO .rodata	0000000000000003 _ZTSPx
00000000003e21b4 g    DF .text	0000000000000050 __strdup
0000000000071a74 g    DF .text	0000000000000070 nnmem_nlib_rwlock_rdunlock
0000000000144878 g    DF .text	0000000000000064 _ZN2nn3ngc7wcsncmpEPKDsS2_m
00000000008254a8 g    DO .rodata	0000000000000003 _ZTSPy
000000000036bc7c g    DF .text	00000000000000a4 _ZNSt3__110istrstreamD2Ev
00000000000c8110  w   DF .text	000000000000002c _ZN2nn2sf4cmif6client6detail13CmifProxyImplINS_2am7service18IDisplayControllerENS2_15CmifDomainProxyINS0_4hipc6client38Hipc2ClientSessionManagedProxyKindBaseINSA_18Hipc2ProxyKindBaseILNS9_6detail11MessageTypeE4EEEEEEENS0_30MemoryResourceAllocationPolicyES7_E30_nn_sf_sync_ClearCaptureBufferEibj
0000000000972380 g    DO .data	0000000000000098 _ZTCN7android17BnSurfaceComposerE0_NS_10IInterfaceE
0000000000027ca4 g    DF .text	00000000000003dc _ZN2nn5image6detail4jpeg14jpeg_idct_14x7EPNS2_22jpeg_decompress_structEPNS2_19jpeg_component_infoEPsPPhi
000000000003b684 g    DF .text	000000000000000c _ZN2nn4util16BinaryFileHeader14SetAddressSizeEv
00000000001688e4 g    DF .text	0000000000000044 _ZN2nn8settings6system23GetDataDeletionSettingsEPNS1_20DataDeletionSettingsE
00000000003a7fc8  w   DF .text	0000000000000018 atexit
00000000007de4c0  w   DO .rodata	000000000000001f _ZTSN2nn3nfp6detail12IUserManagerE
00000000001bc84c g    DF .text	0000000000000004 _ZNK2nn3mii6detail12StoreDataRaw8GetNoseYEv
000000000024d950 g    DF .text	00000000000000cc _ZN2nn5album22SaveAndShareScreenshotEPNS0_7ShareIdEPKvmNS0_9ImageSizeENS0_17AlbumReportOptionERKNS_7account3UidE
00000000000ca2dc  w   DF .text	00000000000001cc _ZN2nn2sf4cmif6client34CmifDomainProxyClientCoreProcessorINS0_4hipc6client38Hipc2ClientSessionManagedProxyKindBaseINS5_18Hipc2ProxyKindBaseILNS4_6detail11MessageTypeE4EEEEENS1_6detail14CoreMethodInfoINSt3__15tupleIJNSC_17InRawArgumentInfoILm8ELm8ELl0EEENSC_18BufferArgumentInfoILi0ELi34ELm0EEEEEELm8ELm0ELb0EEESK_E7ProcessEPNS2_23CmifDomainClientMessageISB_E15ProxyBaseObjectENS2_23InRawClientArgumentTypeILm8ELm8EvEENS2_24BufferClientArgumentTypeEj
000000000095dea0  w   DO .data	0000000000000038 _ZTIN2nn2sf6detail38ObjectImplFactoryWithStatefulAllocatorINS0_4cmif6client16CmifProxyFactoryINS_6capsrv2sf29IScreenShotApplicationServiceENS0_4hipc6client18Hipc2ProxyKindBaseILNS9_6detail11MessageTypeE4EEENS0_30MemoryResourceAllocationPolicyEE13ServiceObjectESF_E6ObjectE
000000000006fc5c g    DF .text	0000000000000010 _ZN2nn4lmem6detail12InitHeapHeadEPNS1_8HeapHeadEjPvS4_i
00000000000812f8 g    DF .text	000000000000003c nnmem_nlib_mutex_recursive_init
00000000001cece4  w   DF .text	00000000000000fc _ZN2nn2sf4hipc6client24Hipc2ClientCoreProcessorILNS1_6detail11MessageTypeE4ENS0_4cmif6detail14CoreMethodInfoINSt3__15tupleIJNS7_17InRawArgumentInfoILm8ELm8ELl8EEENSB_ILm4ELm4ELl0EEENSB_ILm4ELm4ELl4EEEEEELm16ELm0ELb0EEESF_E7ProcessEPNS2_26Hipc2ClientProxyBaseObjectENS6_6client23InRawClientArgumentTypeILm8ELm8EvEENSL_ILm4ELm4EvEESN_j
000000000035a55c g    DF .text	0000000000000018 _ZNKSt3__120__codecvt_utf8_utf16IwE13do_max_lengthEv
000000000015d9fc g    DF .text	0000000000000050 _ZN2nn4pctl29LeaveRestrictedSystemSettingsEv
00000000003ac08c g    DF .text	0000000000000004 rmdir
00000000001a60e4 g    DF .text	000000000000056c _ZN2nn5audio6server9VoiceInfo36UpdateParametersForCommandGenerationEPPNS0_10VoiceStateE
000000000097a128  w   DO .data	0000000000000030 _ZTVNSt3__115time_put_bynameIcNS_19ostreambuf_iteratorIcNS_11char_traitsIcEEEEEE
0000000000286e40 g    DF .text	000000000000000c NvRmGpuRegOpsSessionGetTimeoutMode
0000000000361b40  w   DF .text	0000000000000004 _ZdaPvSt11align_val_t
00000000003a7e14  w   DF .text	00000000000000ac readdir64_r
00000000007fe6b0 g    DO .rodata	0000000000000708 _ZN2nn3mii6detail23RandomMiiHairColorTableE
00000000009486f0  w   DO .data	0000000000000018 _ZTIN2nn2sf4cmif6client16CmifProxyFactoryINS_7account3nas40IOAuthProcedureForNintendoAccountLinkageENS2_15CmifDomainProxyINS0_4hipc6client38Hipc2ClientSessionManagedProxyKindBaseINS9_18Hipc2ProxyKindBaseILNS8_6detail11MessageTypeE4EEEEEEENS0_25StatelessAllocationPolicyINS0_22ExpHeapStaticAllocatorILm2048ENS4_6detail12ObjectHolder24ObjectHolderAllocatorTagEEEEEE13ServiceObjectE
00000000002507e0 g    DF .text	0000000000000024 _ZN2nn3ldn14MakeSubnetMaskEhhhh
00000000001cb334 g    DF .text	0000000000000088 _ZN2nn5swkbd6detail18InlineKeyboardImpl18CalcChangedString_ENS_6applet13StorageHandleEm
0000000000220474 g    DF .text	000000000000002c _ZN2nn3hid6detail18SharedMemoryHolderC2Ev
00000000002cf69c g    DF .text	000000000000006c _ZN7android7String85setToEPKDsm
0000000000947ea0  w   DO .data	0000000000000018 _ZTIN2nn7account31IAccountServiceForAdministratorE
00000000003a9860 g    DF .text	0000000000000008 funlockfile
000000000081ef10  w   DO .rodata	00000000000000fb _ZTSN2nn2sf4cmif6client16CmifProxyFactoryINS_3fgm2sf8ISessionENS2_15CmifDomainProxyINS0_4hipc6client38Hipc2ClientSessionManagedProxyKindBaseINS9_18Hipc2ProxyKindBaseILNS8_6detail11MessageTypeE4EEEEEEENS0_30MemoryResourceAllocationPolicyEE13ServiceObjectE
0000000000000160 g    DF .text	0000000000000034 .protected _fini
00000000007d4c44 g    DO .rodata	0000000000000028 silk_Transition_LP_A_Q28
00000000007f0e58 g    DO .rodata	0000000000000008 _ZN2nn5audio6server14EffectInfoBase19ParameterBufferSizeE
0000000000236494 g    DF .text	00000000000000e8 _ZN2nn8irsensor6detail16FinalizeIrCameraERKNS0_14IrCameraHandleE
0000000000341040  w   DF .text	0000000000000194 _ZNKSt3__18time_getIcNS_19istreambuf_iteratorIcNS_11char_traitsIcEEEEE14do_get_weekdayES4_S4_RNS_8ios_baseERjP2tm
000000000015263c  w   DF .text	0000000000000020 _ZN2nn2sf4cmif6client6detail13CmifProxyImplINS_4nifm6detail12IScanRequestENS2_15CmifDomainProxyINS0_4hipc6client38Hipc2ClientSessionManagedProxyKindBaseINSA_18Hipc2ProxyKindBaseILNS9_6detail11MessageTypeE4EEEEEEENS0_25StatelessAllocationPolicyINS0_22ExpHeapStaticAllocatorILm16384ENS6_21ServiceProviderClient30CreateNifmUserServiceObjectTagEEEEES7_E24_nn_sf_sync_IsProcessingENS0_3OutIbvEE
00000000001becc8 g    DF .text	0000000000000084 _ZNK2nn3mii6detail16Ver3StoreDataRaw12GetRoomIndexEv
000000000015781c g    DF .text	00000000000000f4 _ZN2nn4nifm6detail37ConvertNetworkProfileDataToNifmFromSfEPNS0_18NetworkProfileDataERKNS1_2sf18NetworkProfileDataE
00000000002cb08c g    DF .text	0000000000000028 _ZN7android4Rect8offsetToEii
00000000003c27d4  w   DF .text	0000000000000048 iswalpha_l
00000000001737c4  w   DF .text	0000000000000020 _ZN2nn2sf4cmif6client6detail13CmifProxyImplINS_8settings15ISettingsServerENS0_4hipc6client18Hipc2ProxyKindBaseILNS7_6detail11MessageTypeE4EEENS0_25StatelessAllocationPolicyINS0_22ExpHeapStaticAllocatorILm16384ES6_EEEES6_E42_nn_sf_sync_GetAvailableLanguageCodeCount2ENS0_3OutIivEE
00000000001cf564  w   DF .text	0000000000000108 _ZN2nn2sf4hipc6client24Hipc2ClientCoreProcessorILNS1_6detail11MessageTypeE4ENS0_4cmif6detail14CoreMethodInfoINSt3__15tupleIJNS7_18OutRawArgumentInfoILm16ELm4ELl0EEENS7_17InRawArgumentInfoILm8ELm8ELl0EEEEEELm8ELm16ELb0EEESF_E7ProcessEPNS2_26Hipc2ClientProxyBaseObjectENS6_6client24OutRawClientArgumentTypeILm16ELm4EEENSK_23InRawClientArgumentTypeILm8ELm8EvEEj
00000000003de37c  w   DF .text	000000000000003c _IO_putc_unlocked
0000000000955778 g    DO .data	0000000000000020 _ZTVN2nn3ssl6detail10SslApiBaseE
000000000097b7f0 g    DO .data	0000000000000038 _ZTINSt3__15ctypeIcEE
00000000001b68c8 g    DF .text	000000000000040c _ZNK2nn3mii6detail11CharInfoRaw6VerifyEv
000000000036d358 g    DF .text	0000000000000008 _ZNSt3__115__thread_struct27__make_ready_at_thread_exitEPNS_17__assoc_sub_stateE
0000000000959178 g    DO .data	0000000000000020 _ZTVN2nn5audio6server22CircularBufferSinkInfoE
0000000000243a68  w   DF .text	0000000000000aec _ZN22nerd_gillette_internal5otete11ImageCodec213DecodeInPlaceItNS0_14InputBitStreamEZNS1_13DecodeInPlaceItEEbRKNS_15StaticImageViewIT_EERS3_fEUliiE_EEbS9_RT0_RKT1_f
00000000002d15b0 g    DF .text	000000000000001c systemTime
0000000000361d84 g    DF .text	00000000000000d8 _ZNSt3__120__get_collation_nameEPKc
00000000001a1720 g    DF .text	00000000000001b0 _ZN2nn5audio6server11InfoUpdater11UpdateMixesERNS1_10MixContextEiRKNS1_13EffectContextERKNS1_15SplitterContextE
00000000000360ec g    DF .text	0000000000000070 nnutilZlib_inflateResetKeep
00000000003a96b0 g    DF .text	0000000000000088 fopen
000000000002d6d0 g    DF .text	00000000000000bc _ZN2nn5image6detail13SetJpegHeaderEPNS1_8JpegInfoEttNS0_17JpegSamplingRatioE
0000000000191be0  w   DF .text	0000000000000168 _ZN2nn2sf4hipc6client24Hipc2ClientCoreProcessorILNS1_6detail11MessageTypeE4ENS0_4cmif6detail14CoreMethodInfoINSt3__15tupleIJNS7_18BufferArgumentInfoILi0ELi6ELm0EEENS7_18OutRawArgumentInfoILm4ELm4ELl0EEEEEELm0ELm4ELb0EEESF_E7ProcessEPNS2_26Hipc2ClientProxyBaseObjectENS6_6client24BufferClientArgumentTypeENSK_24OutRawClientArgumentTypeILm4ELm4EEEj
0000000000128430  w   DF .text	0000000000000170 _ZN2nn2sf4cmif6client34CmifDomainProxyClientCoreProcessorINS0_4hipc6client38Hipc2ClientSessionManagedProxyKindBaseINS5_18Hipc2ProxyKindBaseILNS4_6detail11MessageTypeE4EEEEENS1_6detail14CoreMethodInfoINSt3__15tupleIJNSC_18OutRawArgumentInfoILm4ELm4ELl0EEENSG_ILm4ELm4ELl4EEENSC_17InRawArgumentInfoILm16ELm8ELl0EEEEEELm16ELm8ELb0EEESL_E7ProcessEPNS2_23CmifDomainClientMessageISB_E15ProxyBaseObjectENS2_24OutRawClientArgumentTypeILm4ELm4EEEST_NS2_23InRawClientArgumentTypeILm16ELm8EvEEj
0000000000953b28  w   DO .data	0000000000000068 _ZTVN2nn2sf6detail39ObjectImplFactoryWithStatelessAllocatorINS0_4cmif6client16CmifProxyFactoryINS_4nifm6detail15INetworkProfileENS4_15CmifDomainProxyINS0_4hipc6client38Hipc2ClientSessionManagedProxyKindBaseINSB_18Hipc2ProxyKindBaseILNSA_6detail11MessageTypeE4EEEEEEENS0_25StatelessAllocationPolicyINS0_22ExpHeapStaticAllocatorILm16384ENS7_21ServiceProviderClient30CreateNifmUserServiceObjectTagEEEEEE13ServiceObjectESO_E6ObjectE
0000000000951580  w   DO .data	0000000000000018 _ZTIN2nn2sf4cmif6client6detail9CmifProxyINS_7friends6detail3ipc20INotificationServiceENS2_15CmifDomainProxyINS0_4hipc6client38Hipc2ClientSessionManagedProxyKindBaseINSB_18Hipc2ProxyKindBaseILNSA_6detail11MessageTypeE4EEEEEEENS0_30MemoryResourceAllocationPolicyEvEE
00000000001b566c g    DF .text	0000000000000084 _ZN2nn2la4auth22ChangeParentalPasscodeEv
000000000031f5c4  w   DF .text	0000000000000540 _ZNSt3__16__sortIRNS_6__lessIllEEPlEEvT0_S5_T_
00000000007bdb20  w   DO .rodata	0000000000000156 _ZTSN2nn2sf4cmif6client6detail9CmifProxyINS_7account3nas21IAuthorizationRequestENS2_15CmifDomainProxyINS0_4hipc6client38Hipc2ClientSessionManagedProxyKindBaseINSA_18Hipc2ProxyKindBaseILNS9_6detail11MessageTypeE4EEEEEEENS0_25StatelessAllocationPolicyINS0_22ExpHeapStaticAllocatorILm2048ENS5_6detail12ObjectHolder24ObjectHolderAllocatorTagEEEEEvEE
0000000000364ee4  w   DF .text	0000000000000110 _ZNKSt3__112basic_stringIcNS_11char_traitsIcEENS_9allocatorIcEEE7compareEmmRKS5_mm
0000000000044cd4 g    DF .text	0000000000000070 nndetailDiagVLogImpl
00000000000a578c  w   DF .text	0000000000000004 _ZNK2nn2sf13SharedPointerINS_6socket2sf7IClientEE19FunctionForBoolTypeEv
00000000001253a8  w   DF .text	0000000000000104 _ZN2nn2sf4hipc6client34HipcSimpleClientSessionManagerBase4Impl18InitializeByHandleINS_7friends6detail3ipc15IServiceCreatorENS0_30MemoryResourceAllocationPolicyEEENS_6ResultEPNS0_13SharedPointerIT_EEPNT0_9AllocatorENS_3svc6HandleE
000000000023b248 g    DF .text	00000000000000d8 _ZN22nerd_gillette_internal17OnAssertionFailedEPbPKciS2_S2_z
00000000000870e8 g    DF .text	00000000000004cc _ZN2nn7nlibsdk4heap14TlsHeapCentral21CacheSmallMemoryList_EPNS1_12TlsHeapCacheEPhmPPvim
000000000025823c g    DF .text	00000000000000a4 nvcecGetConnectionStatus
0000000000189bfc g    DF .text	0000000000000014 _ZN2nn5audio15PerformanceInfo10GetDetailsEPi
000000000097a578  w   DO .data	0000000000000038 _ZTVNSt3__19money_putIcNS_19ostreambuf_iteratorIcNS_11char_traitsIcEEEEEE
000000000015bed8 g    DF .text	0000000000000140 _ZN2nn2oe20SetFocusHandlingModeENS0_17FocusHandlingModeE
000000000097adc8 g    DO .data	0000000000000060 _ZTVNSt3__17codecvtIDsc11__mbstate_tEE
000000000097be70  w   DO .data	0000000000000018 _ZTINSt3__117moneypunct_bynameIcLb1EEE
0000000000823b00  w   DO .rodata	000000000000001c _ZTSNSt3__110moneypunctIcLb0EEE
00000000000c26b0 g    DF .text	000000000000004c _ZN2nn2am24GetGlobalStateControllerEv
0000000000164df8 g    DF .text	00000000000000ec _ZN2nn5prepo12ClearStorageEv
00000000001a3840 g    DF .text	0000000000000028 _ZNK2nn5audio6server11AddressInfo8IsMappedEv
00000000002299ac g    DF .text	000000000000066c _ZN2nn3hid10GetKeyCodeEPtiNS_4util10BitFlagSetILi32ENS0_16KeyboardModifierEEENS2_7BitPackIjNS0_14KeyboardLayoutEEE
00000000000c9db4  w   DF .text	0000000000000058 _ZN2nn2sf6detail38ObjectImplFactoryWithStatefulAllocatorINS0_4cmif6client16CmifProxyFactoryINS_2am7service8IStorageENS4_15CmifDomainProxyINS0_4hipc6client38Hipc2ClientSessionManagedProxyKindBaseINSB_18Hipc2ProxyKindBaseILNSA_6detail11MessageTypeE4EEEEEEENS0_30MemoryResourceAllocationPolicyEE13ServiceObjectESJ_E6Object7ReleaseEv
00000000000ea274 g    DF .text	000000000000007c opus_fft_c
000000000021b270 g    DF .text	00000000000000e4 _ZN2nn3hid6detail22GetNpadControllerColorEPNS0_19NpadControllerColorES3_RKj
0000000000135ec8 g    DF .text	0000000000000008 _ZNK2nn2lm6detail15LogPacketHeader11GetThreadIdEv
00000000007d3fa6 g    DO .rodata	0000000000000028 silk_Resampler_2_3_COEFS
00000000007dea98 g    DO .rodata	0000000000000040 _ZN2nn3nfp6client22RequiredMcuVersionDataE
00000000007be7f0  w   DO .rodata	000000000000015c _ZTSN2nn2sf4cmif6client6detail9CmifProxyINS_7account31IAccountServiceForSystemServiceENS2_15CmifDomainProxyINS0_4hipc6client38Hipc2ClientSessionManagedProxyKindBaseINS9_18Hipc2ProxyKindBaseILNS8_6detail11MessageTypeE4EEEEEEENS0_25StatelessAllocationPolicyINS0_22ExpHeapStaticAllocatorILm2048ENS5_6detail12ObjectHolder24ObjectHolderAllocatorTagEEEEEvEE
0000000000160f2c  w   DF .text	0000000000000024 _ZN2nn2sf4cmif6client6detail13CmifProxyImplINS_4pctl6detail3ipc23IParentalControlServiceENS2_15CmifDomainProxyINS0_4hipc6client38Hipc2ClientSessionManagedProxyKindBaseINSB_18Hipc2ProxyKindBaseILNSA_6detail11MessageTypeE4EEEEEEENS0_30MemoryResourceAllocationPolicyES8_E30_nn_sf_sync_UnlinkPairingAsyncENS0_3OutINS6_9AsyncDataEvEENSL_INS0_12NativeHandleEvEEb
00000000003142b4 g    DF .text	00000000000001b8 _ZN2nn3fgm8Debugger10InitializeEPvmNS_2os14EventClearModeE
00000000002350a0  w   DF .text	0000000000000020 _ZN2nn2sf4cmif6client6detail13CmifProxyImplINS_3hid16IHidSystemServerENS0_4hipc6client18Hipc2ProxyKindBaseILNS7_6detail11MessageTypeE4EEENS0_25StatelessAllocationPolicyINS0_22ExpHeapStaticAllocatorILm16384ENS5_6detail15HidSystemServerEEEEES6_E31_nn_sf_sync_StartFirmwareUpdateENS0_3OutINS5_6system26FirmwareUpdateDeviceHandleEvEENSL_11UniquePadIdE
00000000001d5cd8 g    DF .text	0000000000000080 _ZN2nn2vi6detail18SystemServiceProxyD1Ev
00000000003171b4  w   DF .text	00000000000001e4 _ZN2nn2sf4hipc6client24Hipc2ClientCoreProcessorILNS1_6detail11MessageTypeE4ENS0_4cmif6detail14CoreMethodInfoINSt3__15tupleIJNS7_18BufferArgumentInfoILi0ELi34ELm0EEENSB_ILi1ELi9ELm0EEEEEELm0ELm0ELb0EEESE_E7ProcessEPNS2_26Hipc2ClientProxyBaseObjectENS6_6client24BufferClientArgumentTypeESK_j
000000000014b6fc g    DF .text	000000000000004c _ZN2nn3ngc6detail11BitVector32D1Ev
00000000003dd610  w   DF .text	00000000000000c4 fseeko
0000000000169770 g    DF .text	0000000000000078 _ZN2nn8settings7factory21GetAccelerometerScaleEPNS1_18AccelerometerScaleE
0000000000067c40 g    DF .text	0000000000000204 _ZN2nn2fs20CreateDeviceSaveDataENS_3ncm13ApplicationIdEmllj
0000000000355620 g    DF .text	0000000000000008 _ZNKSt3__15ctypeIwE8do_widenEc
00000000003c31d8 g    DF .text	000000000000001c __towctrans_l
0000000000160bc0  w   DF .text	0000000000000020 _ZN2nn2sf4cmif6client6detail13CmifProxyImplINS_4pctl6detail3ipc23IParentalControlServiceENS2_15CmifDomainProxyINS0_4hipc6client38Hipc2ClientSessionManagedProxyKindBaseINSB_18Hipc2ProxyKindBaseILNSA_6detail11MessageTypeE4EEEEEEENS0_30MemoryResourceAllocationPolicyES8_E26_nn_sf_sync_StartPlayTimerEv
00000000001b9d78 g    DF .text	0000000000000048 _ZN2nn3mii6detail11CoreDataRaw8SetNoseYEi
0000000000091348 g    DF .text	0000000000000004 nnosAcquireSemaphore
000000000014c740 g    DF .text	00000000000000f0 _ZNK2nn3ngc6detail9SbvSelect6SelectERKNS1_3SetEj
00000000001ba0d4 g    DF .text	0000000000000048 _ZN2nn3mii6detail11CoreDataRaw13SetGlassColorEi
000000000095b938  w   DO .data	0000000000000020 _ZTVN2nn3hid6detail12KeyboardLifoE
0000000000031ca4 g    DF .text	00000000000000f8 nnutilZlib_deflateParams
00000000001a7b40 g    DF .text	0000000000000004 _ZN2nn5audio6server6detail24GetActiveAudioDeviceNameEPNS0_15AudioDeviceNameEj
0000000000041ba4 g    DF .text	0000000000000008 _ZN2nn4edid6detail21IsContinuousFrequencyEh
00000000000b6ab8  w   DF .text	0000000000000008 _ZThn32_N2nn2sf4cmif6client6detail13CmifProxyImplINS_7account3nas21IAuthorizationRequestENS2_15CmifDomainProxyINS0_4hipc6client38Hipc2ClientSessionManagedProxyKindBaseINSA_18Hipc2ProxyKindBaseILNS9_6detail11MessageTypeE4EEEEEEENS0_25StatelessAllocationPolicyINS0_22ExpHeapStaticAllocatorILm2048ENS5_6detail12ObjectHolder24ObjectHolderAllocatorTagEEEEES7_E17GetCmifBaseObjectEv
000000000017d448 g    DF .text	0000000000000008 _ZN2nn4time25AdjustableUserSystemClock9to_time_tERKNSt3__16chrono10time_pointINS0_17SystemClockTraitsENS3_8durationIlNS2_5ratioILl1ELl1EEEEEEE
0000000000804fb0 g    DO .rodata	0000000000000020 _ZN2nn4util10BitFlagSetILi256ENS_3hid11KeyboardKeyEE4FlagILi62EE4MaskE
00000000007d4ae4 g    DO .rodata	0000000000000029 silk_delta_gain_iCDF
00000000000bb034  w   DF .text	000000000000002c _ZN2nn2sf4cmif6client6detail13CmifProxyImplINS_7account4baas28IFloatingRegistrationRequestENS2_15CmifDomainProxyINS0_4hipc6client38Hipc2ClientSessionManagedProxyKindBaseINSA_18Hipc2ProxyKindBaseILNS9_6detail11MessageTypeE4EEEEEEENS0_25StatelessAllocationPolicyINS0_22ExpHeapStaticAllocatorILm2048ENS5_6detail12ObjectHolder24ObjectHolderAllocatorTagEEEEES7_E42_nn_sf_sync_SetSystemProgramIdentificationERKNS5_27SystemProgramIdentificationEm
00000000000b2848  w   DF .text	00000000000000ac _ZN2nn7account6detail12ObjectHolderD2Ev
00000000000c1dcc g    DF .text	0000000000000030 _ZN2nn7account49ExternalNetworkServiceAccountIntroducingProcedureC2Ev
00000000000411c0 g    DF .text	0000000000000014 _ZN2nn4util6detail37ConvertToExponentStyleStringWithPointEPcmdi
00000000001cbe20 g    DF .text	0000000000000024 _ZN2nn2vi10GetServiceEv
00000000000b2334 g    DF .text	0000000000000018 _ZN2nn7account6detail24SimpleOAuthProcedureBaseC2Ev
0000000000189508 g    DF .text	000000000000003c _ZN2nn5audio17MemoryPoolManager7ReleaseEPNS0_14MemoryPoolInfoE
00000000000ad418 g    DF .text	000000000000000c _ZN2nn6socket8resolver13GetHostByAddrEPKvjj
000000000008dfe8 g    DF .text	00000000000000b4 _ZN2nn2os16SignalTimerEventEPNS0_14TimerEventTypeE
00000000001bc0f4 g    DF .text	000000000000007c _ZNK2nn3mii6detail12StoreDataRaw27IsValidWithoutEmptyNicknameEv
00000000002203d8  w   DF .text	0000000000000004 _ZN2nn3hid6detail8RingLifoINS0_14BasicXpadStateELi16ENS1_13AtomicStorageIS3_EEED2Ev
000000000024bd28 g    DF .text	0000000000000004 _ZN2nn3kpr25IsKeyCodeMapModeSupportedERKNS0_10KeyCodeMapENS0_14KeyCodeMapModeE
00000000003c2594 g    DF .text	0000000000000018 isblank
00000000001cbe08  w   DF .text	0000000000000018 _ZN2nn2sf13SharedPointerINS_5visrv2sf22IManagerDisplayServiceEED2Ev
0000000000272e10 g    DF .text	0000000000000088 NvRmStreamSetFenceFd
0000000000823080  w   DO .rodata	0000000000000017 _ZTSNSt3__112codecvt_baseE
000000000016a21c g    DF .text	0000000000000058 _ZN2nn8settings5fwdbg29CreateSettingsItemKeyIteratorEPKc
000000000012a71c  w   DF .text	0000000000000020 _ZN2nn2sf4cmif6client6detail13CmifProxyImplINS_7friends6detail3ipc20INotificationServiceENS2_15CmifDomainProxyINS0_4hipc6client38Hipc2ClientSessionManagedProxyKindBaseINSB_18Hipc2ProxyKindBaseILNSA_6detail11MessageTypeE4EEEEEEENS0_30MemoryResourceAllocationPolicyES8_E17_nn_sf_sync_ClearEv
0000000000805870 g    DO .rodata	0000000000000020 _ZN2nn4util10BitFlagSetILi256ENS_3hid11KeyboardKeyEE4FlagILi228EE4MaskE
00000000001258f8  w   DF .text	0000000000000044 _ZN2nn2sf4cmif6client6detail13CmifProxyImplINS_7friends6detail3ipc14IFriendServiceENS2_15CmifDomainProxyINS0_4hipc6client38Hipc2ClientSessionManagedProxyKindBaseINSB_18Hipc2ProxyKindBaseILNSA_6detail11MessageTypeE4EEEEEEENS0_30MemoryResourceAllocationPolicyES8_E28_nn_sf_sync_UpdateFriendInfoERKNS0_8OutArrayINS6_10FriendImplEEERKNS_7account3UidERKNS0_7InArrayINSQ_23NetworkServiceAccountIdEEEm
00000000001c79d4 g    DF .text	0000000000000008 _ZNK2nn3mii13AppletManager13IsInitializedEv
000000000016e150 g    DF .text	0000000000000070 _ZN2nn8settings6detail31SetConsoleInformationUploadFlagEb
0000000000185ab8 g    DF .text	0000000000000068 _ZN2nn5audio27GetAuxI3dl2ReverbParametersEPKNS0_18AuxI3dl2ReverbTypeE
00000000007ae780 g    DO .rodata	0000000000000010 _ZN2nn4util8Vector4f12ConstantZeroE
000000000039848c g    DF .text	0000000000000048 __cxa_allocate_exception
000000000011b2e4 g    DF .text	00000000000001a0 _ZN2nn3err19ApplicationErrorArgC1EjPKcS3_RKNS_8settings12LanguageCodeE
000000000003b7a4 g    DF .text	000000000000002c _ZN2nn4util16BinaryFileHeader14FindFirstBlockEi
00000000000c1b40 g    DF .text	0000000000000054 _ZN2nn7account31NintendoAccountLinkageProcedureaSEOS1_
0000000000189108 g    DF .text	0000000000000014 _ZN2nn5audio14MemoryPoolInfoD1Ev
00000000001b5550 g    DF .text	0000000000000098 _ZN2nn2la4auth26ShowParentalAuthenticationERKNS1_25ParentalAuthenticationArgE
0000000000081ca4 g    DF .text	0000000000000010 nnmem_nlib_thread_priority_min
00000000000cd340  w   DF .text	00000000000001d0 _ZN2nn2sf4cmif6client34CmifDomainProxyClientCoreProcessorINS0_4hipc6client38Hipc2ClientSessionManagedProxyKindBaseINS5_18Hipc2ProxyKindBaseILNS4_6detail11MessageTypeE4EEEEENS1_6detail14CoreMethodInfoINSt3__15tupleIJNSC_18BufferArgumentInfoILi0ELi69ELm0EEENSC_17InRawArgumentInfoILm4ELm4ELl0EEENSI_ILm4ELm4ELl4EEEEEELm8ELm0ELb0EEESL_E7ProcessEPNS2_23CmifDomainClientMessageISB_E15ProxyBaseObjectENS2_24BufferClientArgumentTypeENS2_23InRawClientArgumentTypeILm4ELm4EvEESU_j
00000000001b6274 g    DF .text	0000000000000008 _ZNK2nn3mii21ParamCharInfoAccessor11GetEyebrowYEv
00000000001d35cc g    DF .text	00000000000000b4 _ZN2nn2vi20GetDisplayErrorEventEPNS_2os15SystemEventTypeEPNS0_7DisplayE
000000000032981c  w   DF .text	0000000000000010 _ZNSt3__115basic_streambufIwNS_11char_traitsIwEEE5gbumpEi
00000000000bb280  w   DF .text	0000000000000090 _ZN2nn2sf4cmif6client6detail13CmifProxyImplINS_7account4baas12IManagerBaseENS2_15CmifDomainProxyINS0_4hipc6client38Hipc2ClientSessionManagedProxyKindBaseINSA_18Hipc2ProxyKindBaseILNS9_6detail11MessageTypeE4EEEEEEENS0_25StatelessAllocationPolicyINS0_22ExpHeapStaticAllocatorILm2048ENS5_6detail12ObjectHolder24ObjectHolderAllocatorTagEEEEENS6_14IAdministratorEE35_nn_sf_sync_EnsureIdTokenCacheAsyncENS0_3OutINS0_13SharedPointerINSK_13IAsyncContextEEEvEE
00000000001a7b38 g    DF .text	0000000000000008 _ZN2nn5audio6server6detail26GetAudioDeviceOutputVolumeEPKNS0_15AudioDeviceNameERKNS_6applet20AppletResourceUserIdEj
00000000003de25c  w   DF .text	00000000000000c8 _IO_putc
00000000002540e0 g    DF .text	00000000000000a8 _ZN2nn3web36ShowOfflineHtmlPageArgWithPlayReportC2EPKc
00000000002b34d8 g    DF .text	0000000000000060 _ZN7android12ConsumerBase15onLastStrongRefEPKv
000000000094ed00  w   DO .data	0000000000000018 _ZTIN2nn3apm18IManagerPrivilegedE
0000000000150d98 g    DF .text	000000000000002c _ZN2nn4nifm6detail13RequestClient14SetSustainableEb
0000000000160d20  w   DF .text	0000000000000020 _ZN2nn2sf4cmif6client6detail13CmifProxyImplINS_4pctl6detail3ipc23IParentalControlServiceENS2_15CmifDomainProxyINS0_4hipc6client38Hipc2ClientSessionManagedProxyKindBaseINSB_18Hipc2ProxyKindBaseILNSA_6detail11MessageTypeE4EEEEEEENS0_30MemoryResourceAllocationPolicyES8_E30_nn_sf_sync_ClearUnlinkedEventEv
0000000000044e48 g    DF .text	0000000000000094 nndetailDiagLogImplForC
0000000000822420 g    DO .rodata	0000000000000012 _ZTSNSt3__18ios_baseE
00000000000a0784 g    DF .text	00000000000001c4 _ZN2nn2sm10InitializeEv
000000000094cb20  w   DO .data	0000000000000048 _ZTIN2nn2sf4cmif6client6detail13CmifProxyImplINS_2am7service15IAppletAccessorENS2_15CmifDomainProxyINS0_4hipc6client38Hipc2ClientSessionManagedProxyKindBaseINSA_18Hipc2ProxyKindBaseILNS9_6detail11MessageTypeE4EEEEEEENS0_30MemoryResourceAllocationPolicyES7_EE
0000000000250658 g    DF .text	000000000000003c _ZN2nn3ldn16SetOperationModeENS0_13OperationModeE
000000000097b230 g    DO .data	0000000000000018 _ZTINSt3__114__codecvt_utf8IDsEE
0000000000158838 g    DF .text	0000000000000050 _ZN2nn3nsd19GetNasRequestFqdnExEPNS0_4FqdnE
000000000022d034 g    DF .text	0000000000000044 _ZN2nn3hid21GetSixAxisSensorStateEPNS0_18SixAxisSensorStateERKNS0_19SixAxisSensorHandleE
000000000016a924 g    DF .text	0000000000000054 _ZN2nn8settings6system17GetLockScreenFlagEv
00000000000eba38 g    DF .text	0000000000000664 pitch_search
0000000000122554 g    DF .text	0000000000000034 _ZN2nn7friends17NotificationQueueC2Ev
00000000000be914  w   DF .text	00000000000001ec _ZN2nn2sf4cmif6client34CmifDomainProxyClientCoreProcessorINS0_4hipc6client38Hipc2ClientSessionManagedProxyKindBaseINS5_18Hipc2ProxyKindBaseILNS4_6detail11MessageTypeE4EEEEENS1_6detail14CoreMethodInfoINSt3__15tupleIJNSC_18OutRawArgumentInfoILm4ELm4ELl0EEENSC_18BufferArgumentInfoILi0ELi6ELm0EEENSC_17InRawArgumentInfoILm16ELm8ELl0EEEEEELm16ELm4ELb0EEESM_E7ProcessEPNS2_23CmifDomainClientMessageISB_E15ProxyBaseObjectENS2_24OutRawClientArgumentTypeILm4ELm4EEENS2_24BufferClientArgumentTypeENS2_23InRawClientArgumentTypeILm16ELm8EvEEj
000000000015d07c g    DF .text	000000000000005c _ZN2nn4pctl16GetPinCodeLengthEv
0000000000959fc0  w   DO .data	0000000000000048 _ZTIN2nn2sf4cmif6client6detail13CmifProxyImplIN3nns9hosbinder16IHOSBinderDriverENS0_4hipc6client18Hipc2ProxyKindBaseILNS8_6detail11MessageTypeE4EEENS0_30MemoryResourceAllocationPolicyES7_EE
00000000002500a4 g    DF .text	0000000000000034 _ZN2nn3ldn17ClearAcceptFilterEv
000000000023033c g    DF .text	0000000000000048 _ZNK2nn3hid15VibrationTarget22GetVibrationDeviceInfoEPNS0_19VibrationDeviceInfoE
0000000000096ee0 g    DF .text	0000000000000008 _ZN2nn2os6detail36InternalCriticalSectionImplByHorizon10InitializeEv
00000000000cc5d0  w   DF .text	0000000000000020 _ZN2nn2sf4cmif6client6detail13CmifProxyImplINS_2am7service26ILibraryAppletSelfAccessorENS2_15CmifDomainProxyINS0_4hipc6client38Hipc2ClientSessionManagedProxyKindBaseINSA_18Hipc2ProxyKindBaseILNS9_6detail11MessageTypeE4EEEEEEENS0_30MemoryResourceAllocationPolicyES7_E54_nn_sf_sync_GetNextReturnDestinationAppletIdentityInfoENS0_3OutINS6_18AppletIdentityInfoEvEE
0000000000174884  w   DF .text	0000000000000020 _ZN2nn2sf4cmif6client6detail13CmifProxyImplINS_8settings21ISystemSettingsServerENS0_4hipc6client18Hipc2ProxyKindBaseILNS7_6detail11MessageTypeE4EEENS0_25StatelessAllocationPolicyINS0_22ExpHeapStaticAllocatorILm16384ES6_EEEES6_E30_nn_sf_sync_GetUsb30EnableFlagENS0_3OutIbvEE
0000000000a85090 g    DO .bss	0000000000000300 __nnmusl_fullPathDirName
000000000094d130  w   DO .data	0000000000000048 _ZTIN2nn2sf4cmif6client6detail13CmifProxyImplINS_2am7service16IStorageAccessorENS2_15CmifDomainProxyINS0_4hipc6client38Hipc2ClientSessionManagedProxyKindBaseINSA_18Hipc2ProxyKindBaseILNS9_6detail11MessageTypeE4EEEEEEENS0_30MemoryResourceAllocationPolicyES7_EE
00000000001ca7d0 g    DF .text	0000000000000058 _ZN2nn5swkbd6detail18InlineKeyboardImpl6AppearERKNS0_9AppearArgE
0000000000045040 g    DF .text	000000000000008c _ZN2nn4diag6detail23ResetDefalutLogObserverEv
00000000001a4ed0 g    DF .text	0000000000000018 _ZN2nn5audio6server23CircularBufferSinkState7CleanUpEv
000000000016e794 g    DF .text	0000000000000070 _ZN2nn8settings6detail24GetPtmFuelGaugeParameterEPNS0_6system21PtmFuelGaugeParameterE
00000000003cf5c0 g    DF .text	000000000000001c tgammaf
0000000000117c9c g    DF .text	0000000000000040 _ZN2nn5codec30HardwareOpusMultiStreamDecoder8FinalizeEv
00000000007ac664 g    DO .rodata	0000000000000020 _ZN2nn4util6detail16AtanCoefficientsE
000000000006f580 g    DF .text	000000000000003c _ZN2nn4lmem15CreateFrameHeapEPvmiPNS0_6detail8HeapHeadE
000000000026dbcc g    DF .text	0000000000000160 NvRmSurfaceComputeMD5
000000000036d820  w   DF .text	0000000000000054 _ZNSt3__18valarrayImEC1Em
00000000003b32b0 g    DF .text	000000000000001c tgammal
00000000000b5d3c  w   DF .text	0000000000000160 _ZN2nn2sf4cmif6client34CmifDomainProxyClientCoreProcessorINS0_4hipc6client38Hipc2ClientSessionManagedProxyKindBaseINS5_18Hipc2ProxyKindBaseILNS4_6detail11MessageTypeE4EEEEENS1_6detail14CoreMethodInfoINSt3__15tupleIJNSC_18OutRawArgumentInfoILm16ELm8ELl0EEENSC_17InRawArgumentInfoILm1ELm1ELl0EEEEEELm1ELm16ELb0EEESK_E7ProcessEPNS2_23CmifDomainClientMessageISB_E15ProxyBaseObjectENS2_24OutRawClientArgumentTypeILm16ELm8EEENS2_23InRawClientArgumentTypeILm1ELm1EvEEj
00000000007d43e0 g    DO .rodata	0000000000000003 silk_LTP_vq_sizes
00000000002867ec g    DF .text	000000000000000c NvRmGpuDeviceZbcGetActiveSlotMask
00000000003cd26c g    DF .text	0000000000000038 nearbyintf
0000000000163b64 g    DF .text	0000000000000044 _ZN2nn5prepo6detail7msgpack11WriteFixMapEPNS2_17OutputStreamParamEh
0000000000959cd0  w   DO .data	0000000000000018 _ZTIN2nn2sf4cmif6client6detail9CmifProxyINS_5visrv2sf18ISystemRootServiceENS0_4hipc6client18Hipc2ProxyKindBaseILNS8_6detail11MessageTypeE4EEENS0_30MemoryResourceAllocationPolicyEvEE
0000000000298a54 g    DF .text	000000000000003c _ZTv0_n24_N7android11IMemoryHeapD1Ev
00000000000c0148 g    DF .text	00000000000000a0 _ZN2nn7account28NetworkServiceAccountManager44EnsureNetworkServiceAccountIdTokenCacheAsyncEPNS0_12AsyncContextE
0000000000177b04 g    DF .text	00000000000000a4 _ZN2nn3ssl7Context9SetOptionENS1_13ContextOptionEi
0000000000244578  w   DF .text	0000000000000958 _ZN22nerd_gillette_internal5otete11ImageCodec213DecodeInPlaceIhNS0_14InputBitStreamEZNS1_13DecodeInPlaceIhEEbRKNS_15StaticImageViewIT_EERS3_fEUliiE_EEbS9_RT0_RKT1_f
00000000003cd2a4 g    DF .text	000000000000004c nearbyintl
000000000097beb0  w   DO .data	0000000000000018 _ZTINSt3__117moneypunct_bynameIwLb1EEE
0000000000823b60  w   DO .rodata	000000000000001c _ZTSNSt3__110moneypunctIwLb0EEE
000000000008e5b0 g    DF .text	000000000000003c _ZN2nn2os15WaitSystemEventEPNS0_15SystemEventTypeE
00000000007eb070  w   DO .rodata	0000000000000024 _ZTSN2nn5audio6detail15IAudioInManagerE
00000000002c8880 g    DF .text	000000000000000c sync_dup
00000000000d6028 g    DF .text	0000000000000098 _ZN2nn4bcat22DeliveryCacheDirectoryD1Ev
00000000002cf47c g    DF .text	000000000000004c _ZN7android7String85clearEv
0000000000801d30  w   DO .rodata	00000000000000c5 _ZTSN2nn2sf4cmif6client16CmifProxyFactoryINS_5visrv2sf22IManagerDisplayServiceENS0_4hipc6client18Hipc2ProxyKindBaseILNS7_6detail11MessageTypeE4EEENS0_30MemoryResourceAllocationPolicyEE13ServiceObjectE
0000000000201e30 g    DF .text	0000000000000050 FsLttComponent_init
0000000000098808 g    DF .text	00000000000000f8 _ZN2nn2ro6detail4BindEPNS1_8RoModuleEj
000000000009aad8 g    DF .text	00000000000000d8 _ZThn8_N2nn2sf4cmif6server23CmifServerDomainManager6Domain9GetObjectENS1_18CmifDomainObjectIdE
0000000000080c14 g    DF .text	00000000000000b4 nnmem_nlib_virtual_alloc
00000000003e0084 g    DF .text	000000000000004c .protected __uflow
00000000001d0194  w   DF .text	0000000000000020 _ZN2nn2sf4cmif6client6detail13CmifProxyImplINS_5visrv2sf22IManagerDisplayServiceENS0_4hipc6client18Hipc2ProxyKindBaseILNS8_6detail11MessageTypeE4EEENS0_30MemoryResourceAllocationPolicyES7_E32_nn_sf_sync_GetDisplayErrorEventENS0_3OutINS0_12NativeHandleEvEEm
0000000000124b0c g    DF .text	000000000000004c _ZN2nn7friends6detail20AsyncContextInternal11IsCompletedEv
00000000000888dc g    DF .text	0000000000000004 _ZN2nn7nlibsdk4heap18NotNMallocPtrErrorEPKv
00000000007bec70  w   DO .rodata	0000000000000195 _ZTSN2nn2sf6detail39ObjectImplFactoryWithStatelessAllocatorINS0_4cmif6client16CmifProxyFactoryINS_7account6detail9INotifierENS4_15CmifDomainProxyINS0_4hipc6client38Hipc2ClientSessionManagedProxyKindBaseINSB_18Hipc2ProxyKindBaseILNSA_6detail11MessageTypeE4EEEEEEENS0_25StatelessAllocationPolicyINS0_22ExpHeapStaticAllocatorILm2048ENS7_12ObjectHolder24ObjectHolderAllocatorTagEEEEEE13ServiceObjectESO_E6ObjectE
00000000003470c4  w   DF .text	0000000000000008 _ZNKSt3__110moneypunctIwLb1EE16do_decimal_pointEv
00000000000a0118 g    DF .text	0000000000000008 _ZN2nn2sf4hipc21GetMessageBufferOnTlsEv
0000000000361be0 g    DF .text	000000000000005c _ZNSt3__113random_deviceC2ERKNS_12basic_stringIcNS_11char_traitsIcEENS_9allocatorIcEEEE
0000000000823f50  w   DO .rodata	000000000000002b _ZTSNSt3__114codecvt_bynameIDic11__mbstate_tEE
0000000000084788 g    DF .text	0000000000000650 _ZN2nn7nlibsdk4heap14TlsHeapCentral10AllocPagesEm
000000000008a70c g    DF .text	0000000000000050 _ZN2nn3mem19NumberLineAllocator8FinalizeEv
00000000001503a8 g    DF .text	0000000000000080 _ZN2nn3ngc6detail12SwapEndian32EPjm
0000000000949670  w   DO .data	0000000000000028 _ZTIN2nn7account31NintendoAccountLinkageProcedureE
0000000000151c48  w   DF .text	0000000000000008 _ZN2nn2sf4cmif6client6detail13CmifProxyImplINS_4nifm6detail15IGeneralServiceENS2_15CmifDomainProxyINS0_4hipc6client38Hipc2ClientSessionManagedProxyKindBaseINSA_18Hipc2ProxyKindBaseILNS9_6detail11MessageTypeE4EEEEEEENS0_25StatelessAllocationPolicyINS0_22ExpHeapStaticAllocatorILm16384ENS6_21ServiceProviderClient30CreateNifmUserServiceObjectTagEEEEES7_E12GetProxyInfoEv
00000000003cab90 g    DF .text	0000000000000074 frexpf
00000000007d4cdd g    DO .rodata	0000000000000004 silk_max_pulses_table
000000000014e1a4 g    DF .text	0000000000000628 _ZN2nn3ngc6detail9SparseSet5BuildEv
000000000006d318 g    DF .text	0000000000000070 _ZN2nn3htc18GetBridgeIpAddressEPcm
0000000000356c7c g    DF .text	000000000000009c _ZNSt3__17codecvtIwc11__mbstate_tEC1Em
00000000002300dc g    DF .text	000000000000004c _ZN2nn3hid15VibrationTargetC2Ev
00000000000bb610  w   DF .text	0000000000000020 _ZN2nn2sf4cmif6client6detail13CmifProxyImplINS_7account4baas14IAdministratorENS2_15CmifDomainProxyINS0_4hipc6client38Hipc2ClientSessionManagedProxyKindBaseINSA_18Hipc2ProxyKindBaseILNS9_6detail11MessageTypeE4EEEEEEENS0_25StatelessAllocationPolicyINS0_22ExpHeapStaticAllocatorILm2048ENS5_6detail12ObjectHolder24ObjectHolderAllocatorTagEEEEES7_E24_nn_sf_sync_IsRegisteredENS0_3OutIbvEE
00000000003cac04 g    DF .text	00000000000000b8 frexpl
00000000003b98fc g    DF .text	0000000000000004 cabs
0000000000183898 g    DF .text	0000000000000090 _ZN2nn3aoc16ListAddOnContentEPiiiNS_13ApplicationIdE
0000000000318afc  w   DF .text	0000000000000008 _ZN2nn2sf4cmif6client6detail13CmifProxyImplINS_3pcv6detail11IPcvServiceENS0_4hipc6client18Hipc2ProxyKindBaseILNS8_6detail11MessageTypeE4EEENS0_30MemoryResourceAllocationPolicyES7_E12GetProxyInfoEv
00000000003b32ec g    DF .text	0000000000000008 __nnmusl_force_add
000000000024c938 g    DF .text	0000000000000258 _ZN2nn3kpr6detail10GetKeyCodeEPNS0_7KeyCodeEiNS_4util10BitFlagSetILi32ENS_3hid16KeyboardModifierEEERKNS1_17KeyCodeMapStorageENS0_14KeyCodeMapModeE
00000000000ca92c  w   DF .text	00000000000000ac _ZN2nn2sf4cmif6client32GetClientProcessorWithObjectBaseINS2_15CmifDomainProxyINS0_4hipc6client38Hipc2ClientSessionManagedProxyKindBaseINS6_18Hipc2ProxyKindBaseILNS5_6detail11MessageTypeE4EEEEEEEE14ObjectAssignerINS0_30MemoryResourceAllocationPolicyENS_14MemoryResourceEE14AllocateObjectINS_2am7service21ILibraryAppletCreatorEEEvi
000000000014f438 g    DF .text	00000000000000b4 _ZNK2nn3ngc6detail15CompressedArrayixEm
00000000000c17e0 g    DF .text	0000000000000058 _ZN2nn7account42NintendoAccountAuthorizationRequestContext10GetIdTokenEPmPcm
0000000000954b38  w   DO .data	0000000000000108 _ZTVN2nn2sf6detail39ObjectImplFactoryWithStatelessAllocatorINS0_4cmif6client16CmifProxyFactoryINS_8settings22IFactorySettingsServerENS0_4hipc6client18Hipc2ProxyKindBaseILNS8_6detail11MessageTypeE4EEENS0_25StatelessAllocationPolicyINS0_22ExpHeapStaticAllocatorILm16384ES7_EEEEE13ServiceObjectESH_E6ObjectE
00000000001b6284 g    DF .text	0000000000000008 _ZNK2nn3mii21ParamCharInfoAccessor12GetNoseScaleEv
000000000018d108 g    DF .text	0000000000000008 _ZN2nn5audio6common13NodeIdManager16GetInvalidNodeIdEv
00000000001ce854  w   DF .text	0000000000000020 _ZN2nn2sf4cmif6client6detail13CmifProxyImplINS_5visrv2sf21ISystemDisplayServiceENS0_4hipc6client18Hipc2ProxyKindBaseILNS8_6detail11MessageTypeE4EEENS0_30MemoryResourceAllocationPolicyES7_E29_nn_sf_sync_GetDisplayCmuModeENS0_3OutIjvEEm
000000000012a694  w   DF .text	0000000000000008 _ZN2nn2sf6detail38ObjectImplFactoryWithStatefulAllocatorINS0_4cmif6client16CmifProxyFactoryINS_7friends6detail3ipc20INotificationServiceENS4_15CmifDomainProxyINS0_4hipc6client38Hipc2ClientSessionManagedProxyKindBaseINSC_18Hipc2ProxyKindBaseILNSB_6detail11MessageTypeE4EEEEEEENS0_30MemoryResourceAllocationPolicyEE13ServiceObjectESK_E6Object12AddReferenceEv
0000000000182648  w   DF .text	0000000000000224 _ZN2nn2sf4cmif6client34CmifDomainProxyClientCoreProcessorINS0_4hipc6client38Hipc2ClientSessionManagedProxyKindBaseINS5_18Hipc2ProxyKindBaseILNS4_6detail11MessageTypeE4EEEEENS1_6detail14CoreMethodInfoINSt3__15tupleIJNSC_18BufferArgumentInfoILi0ELi26ELm208EEENSC_17InRawArgumentInfoILm32ELm8ELl8EEENSI_ILm32ELm8ELl40EEENSI_ILm1ELm1ELl0EEEEEELm72ELm0ELb0EEESM_E7ProcessEPNS2_23CmifDomainClientMessageISB_E15ProxyBaseObjectENS2_24BufferClientArgumentTypeENS2_23InRawClientArgumentTypeILm32ELm8EvEESV_NSU_ILm1ELm1EvEEj
000000000002f610 g    DF .text	0000000000000014 _ZN2nn5image11ExifBuilder14SetOrientationENS0_15ExifOrientationE
00000000000d1850  w   DF .text	0000000000000024 _ZN2nn2sf4cmif6client6detail13CmifProxyImplINS_3apm14ISystemManagerENS0_4hipc6client18Hipc2ProxyKindBaseILNS7_6detail11MessageTypeE4EEENS0_30MemoryResourceAllocationPolicyES6_E31_nn_sf_sync_GetPerformanceEventENS0_3OutINS0_12NativeHandleEvEENS5_11EventTargetE
0000000000230f30  w   DF .text	0000000000000028 _ZN2nn2sf4cmif6client6detail13CmifProxyImplINS_3hid15IHidDebugServerENS0_4hipc6client18Hipc2ProxyKindBaseILNS7_6detail11MessageTypeE4EEENS0_25StatelessAllocationPolicyINS0_22ExpHeapStaticAllocatorILm16384ENS5_6detail14HidDebugServerEEEEES6_E41_nn_sf_sync_GetDestinationFirmwareVersionENS0_3OutINS5_6system15FirmwareVersionEvEEjNS_4util10BitFlagSetILi32ENSL_10DeviceTypeEEE
0000000000248870 g    DF .text	0000000000000004 _ZN22nerd_gillette_internal5otete7jaimev123DecodeFullSilhouetteROKERNS_30ContiguousStorageContainerBaseINS_15NumericalVectorIfLm2EEELb1EEERNS0_14InputBitStreamERKNS1_23FullSilhouetteCodecDataEPFS4_NS3_IsLm2EEEE
000000000036bffc g    DF .text	00000000000000ac _ZNSt3__19strstreamD2Ev
000000000019d2ec g    DF .text	0000000000000010 _ZN2nn5audio6server13CommandBufferC2EPvmmRKNS1_14MemoryPoolInfoERNS1_30CommandProcessingTimeEstimatorE
00000000001b5acc g    DF .text	0000000000000004 _ZN2nn2la32NifmToWifiWebAuthArgumentsWriterD2Ev
00000000007fc550 g    DO .rodata	0000000000000e58 _ZN2nn3mii6detail29RandomMiiFacelineWrinkleTableE
000000000023c410  w   DF .text	0000000000000024 _ZN2nn2sf4cmif6client6detail13CmifProxyImplINS_8irsensor15IIrSensorServerENS0_4hipc6client18Hipc2ProxyKindBaseILNS7_6detail11MessageTypeE4EEENS0_25StatelessAllocationPolicyINS0_22ExpHeapStaticAllocatorILm16384ENS5_6detail14IrSensorServerEEEEES6_E29_nn_sf_sync_RunIrLedProcessorENS_6applet20AppletResourceUserIdENS5_14IrCameraHandleENS5_26PackedIrLedProcessorConfigE
000000000094dfc0  w   DO .data	0000000000000038 _ZTIN2nn2sf6detail38ObjectImplFactoryWithStatefulAllocatorINS0_4cmif6client16CmifProxyFactoryINS_2am7service19IOverlayAppletProxyENS4_15CmifDomainProxyINS0_4hipc6client38Hipc2ClientSessionManagedProxyKindBaseINSB_18Hipc2ProxyKindBaseILNSA_6detail11MessageTypeE4EEEEEEENS0_30MemoryResourceAllocationPolicyEE13ServiceObjectESJ_E6ObjectE
00000000001917c4 g    DF .text	00000000000000e4 _ZN2nn5audio37CreateAudioInManagerForDebuggerByHipcEv
00000000003562f0 g    DF .text	0000000000000190 _ZNKSt3__112ctype_bynameIwE5do_isEPKwS3_Pt
00000000002923c4 g    DF .text	000000000000001c NvWsiGetFormatInfo
00000000000934e4 g    DF .text	000000000000005c _ZN2nn2os6detail26MultiWaitHolderOfSemaphore20RemoveFromObjectListEv
000000000011b65c g    DF .text	0000000000000014 _ZN2nn3err18ErrorResultVariantC1ERKNS0_9ErrorCodeE
00000000001b5758 g    DF .text	0000000000000004 _ZN2nn2la21CommonArgumentsWriterD1Ev
000000000094cd68  w   DO .data	00000000000000e8 _ZTVN2nn2sf6detail38ObjectImplFactoryWithStatefulAllocatorINS0_4cmif6client16CmifProxyFactoryINS_2am7service22ILibraryAppletAccessorENS4_15CmifDomainProxyINS0_4hipc6client38Hipc2ClientSessionManagedProxyKindBaseINSB_18Hipc2ProxyKindBaseILNSA_6detail11MessageTypeE4EEEEEEENS0_30MemoryResourceAllocationPolicyEE13ServiceObjectESJ_E6ObjectE
00000000002d356c g    DF .text	00000000000000a0 _ZNK7android16SortedVectorImpl7orderOfEPKv
00000000000cd02c  w   DF .text	0000000000000038 _ZN2nn2sf4cmif6client6detail13CmifProxyImplINS_6grcsrv17IGameMovieTrimmerENS2_15CmifDomainProxyINS0_4hipc6client38Hipc2ClientSessionManagedProxyKindBaseINS9_18Hipc2ProxyKindBaseILNS8_6detail11MessageTypeE4EEEEEEENS0_30MemoryResourceAllocationPolicyES6_E28_nn_sf_sync_SetThumbnailRgbaERKNS0_8InBufferEii
00000000000dd830 g    DF .text	0000000000000064 init_caps
00000000001c8da0 g    DF .text	0000000000000004 _ZN2nn2pl9EndVrModeEv
000000000010364c g    DF .text	00000000000000c0 silk_fit_LTP
000000000002e59c g    DF .text	0000000000000020 _ZN2nn5image11JpegDecoderC1Ev
00000000001b74f0 g    DF .text	0000000000000020 _ZN2nn3mii6detail14GetCommonColorENS0_11CommonColorENS0_9GammaTypeE
000000000004ea00 g    DF .text	00000000000000b8 _ZN2nn2fs3fsa8RegisterEPKcONSt3__110unique_ptrINS1_11IFileSystemENS4_14default_deleteIS6_EEEE
000000000008cfd8 g    DF .text	000000000000002c _ZN2nn2os27InitializeConditionVariableEPNS0_21ConditionVariableTypeE
0000000000187c30 g    DF .text	000000000000004c _ZN2nn5audio16SetReverbEnabledEPNS0_10ReverbTypeEb
0000000000359a88 g    DF .text	0000000000000100 _ZNKSt3__115__codecvt_utf16IDiLb0EE9do_lengthER11__mbstate_tPKcS5_m
00000000001871f4 g    DF .text	0000000000000020 _ZN2nn5audio17ReadAuxSendBufferEPNS0_7AuxTypeEPii
0000000000168548 g    DF .text	0000000000000044 _ZN2nn8settings6system30GetExternalSteadyClockSourceIdEPNS_4util4UuidE
000000000019c4b8 g    DF .text	000000000000003c _ZN2nn5audio6server24AudioRendererManagerImplD2Ev
00000000001b58e8 g    DF .text	0000000000000018 _ZN2nn2la31NifmToNetConnectArgumentsWriterC2ENS_6ResultERKNS_4util4UuidE
0000000000a80d58 g    DO .bss	0000000000000010 _ZNSt3__15ctypeIwE2idE
000000000009f9e0  w   DF .text	0000000000000170 _ZN2nn2sf4cmif6server6detail34CmifProcessFunctionTableGetterImplINS0_4hipc6detail12IHipcManagerEE29Process_CopyFromCurrentDomainEPPNS1_13CmifOutHeaderEPS7_PNS2_17CmifServerMessageEONS0_6detail14PointerAndSizeE
0000000000952e70  w   DO .data	0000000000000018 _ZTIN2nn3nfp6detail12IUserManagerE
000000000094bea0  w   DO .data	0000000000000018 _ZTIN2nn2sf4cmif6client16CmifProxyFactoryINS_2am7service13ILockAccessorENS2_15CmifDomainProxyINS0_4hipc6client38Hipc2ClientSessionManagedProxyKindBaseINS9_18Hipc2ProxyKindBaseILNS8_6detail11MessageTypeE4EEEEEEENS0_30MemoryResourceAllocationPolicyEE13ServiceObjectE
00000000003ab1d8 g    DF .text	0000000000000004 pthread_setspecific
0000000000979870  w   DO .data	0000000000000028 _ZTINSt3__113basic_istreamIcNS_11char_traitsIcEEEE
00000000008223a0 g    DO .rodata	0000000000000004 _ZNSt3__18ios_base3octE
00000000000fd7a0 g    DF .text	000000000000020c silk_resampler_down2_3
0000000000119e84  w   DF .text	0000000000000100 _ZN2nn2sf4hipc6client24Hipc2ClientCoreProcessorILNS1_6detail11MessageTypeE4ENS0_4cmif6detail14CoreMethodInfoINSt3__15tupleIJNS7_18OutRawArgumentInfoILm4ELm4ELl0EEENS7_17InRawArgumentInfoILm8ELm4ELl0EEEEEELm8ELm4ELb0EEESF_E7ProcessEPNS2_26Hipc2ClientProxyBaseObjectENS6_6client24OutRawClientArgumentTypeILm4ELm4EEENSK_23InRawClientArgumentTypeILm8ELm4EvEEj
000000000033705c  w   DF .text	0000000000000464 _ZNKSt3__17num_getIcNS_19istreambuf_iteratorIcNS_11char_traitsIcEEEEE23__do_get_floating_pointIeEES4_S4_S4_RNS_8ios_baseERjRT_
00000000001bcd70 g    DF .text	0000000000000004 _ZN2nn3mii6detail12StoreDataRaw15SetEyebrowColorEi
00000000000937fc g    DF .text	0000000000000050 _ZN2nn2os6detail36MultiWaitHolderOfMessageQueueNotFull15AddToObjectListEv
00000000001d3518 g    DF .text	00000000000000b4 _ZN2nn2vi28GetDisplayVsyncEventForDebugEPNS_2os15SystemEventTypeEPNS0_7DisplayE
0000000000274588 g    DF .text	00000000000000b4 NvRmFenceWait
0000000000047228 g    DF .text	0000000000000054 _ZN2nn2fs6detail8IdString8ToStringINS0_11ContentTypeEEEPKcT_
0000000000049ba0  w   DF .text	0000000000000040 _ZN2nn2fs10SubStorageD0Ev
00000000009482e0  w   DO .data	0000000000000038 _ZTIN2nn2sf6detail39ObjectImplFactoryWithStatelessAllocatorINS0_4cmif6client16CmifProxyFactoryINS_7account4baas28IFloatingRegistrationRequestENS4_15CmifDomainProxyINS0_4hipc6client38Hipc2ClientSessionManagedProxyKindBaseINSB_18Hipc2ProxyKindBaseILNSA_6detail11MessageTypeE4EEEEEEENS0_25StatelessAllocationPolicyINS0_22ExpHeapStaticAllocatorILm2048ENS6_6detail12ObjectHolder24ObjectHolderAllocatorTagEEEEEE13ServiceObjectESP_E6ObjectE
000000000019a5bc g    DF .text	000000000000007c _ZN2nn5audio23StopFinalOutputRecorderEPNS0_19FinalOutputRecorderE
000000000015ebf0 g    DF .text	0000000000000008 _ZN2nn4pctl18PairingAccountInfoD1Ev
00000000003341b0 g    DF .text	0000000000000004 _ZNSt3__17codecvtIDic11__mbstate_tED2Ev
00000000002a39e0 g    DF .text	00000000000000b4 _ZN7android17HOSServiceManager18removeServiceProxyERKNS_7String8E
0000000000358cf4 g    DF .text	0000000000000068 _ZNKSt3__114__codecvt_utf8IDiE6do_outER11__mbstate_tPKDiS5_RS5_PcS7_RS7_
000000000006ed6c g    DF .text	0000000000000034 nninitInitializeSdkModule
000000000024be9c g    DF .text	0000000000000060 _ZN2nn3kpr15KeyCodeComposer7DequeueEPti
00000000002d34a8 g    DF .text	0000000000000014 _ZN7android16SortedVectorImplD0Ev
0000000000189408 g    DF .text	0000000000000040 _ZN2nn5audio17MemoryPoolManagerC2EPNS0_14MemoryPoolInfoEi
00000000001b8c50 g    DF .text	0000000000000038 _ZNK2nn3mii6detail11CoreDataRaw16GetFacelineColorEv
00000000001ca2d0 g    DF .text	0000000000000004 _ZN2nn5swkbd6detail18InlineKeyboardImplD2Ev
0000000000199680 g    DF .text	0000000000000008 _ZN2nn5audio27GetAudioInBufferDataPointerEPKNS0_13AudioInBufferE
0000000000070a54 g    DF .text	0000000000000068 _ZN2nn4lmem6detail15CreateFrameHeapEPvmi
000000000008ce3c g    DF .text	0000000000000010 _ZN2nn2os11SetHostArgcEi
000000000020eb40 g    DF .text	000000000000034c check_scale
0000000000168858 g    DF .text	0000000000000048 _ZN2nn8settings6system44SetUserSystemClockAutomaticCorrectionEnabledEb
00000000003a4654 g    DF .text	00000000000000c4 __powixf2
00000000000ba800  w   DF .text	0000000000000024 _ZN2nn2sf4cmif6client6detail13CmifProxyImplINS_7account7profile8IProfileENS2_15CmifDomainProxyINS0_4hipc6client38Hipc2ClientSessionManagedProxyKindBaseINSA_18Hipc2ProxyKindBaseILNS9_6detail11MessageTypeE4EEEEEEENS0_25StatelessAllocationPolicyINS0_22ExpHeapStaticAllocatorILm2048ENS5_6detail12ObjectHolder24ObjectHolderAllocatorTagEEEEENS6_14IProfileEditorEE15_nn_sf_sync_GetENS0_3OutINS6_11ProfileBaseEvEENSR_INS6_8UserDataEvEE
0000000000175b10  w   DF .text	00000000000000f8 _ZN2nn2sf4hipc6client24Hipc2ClientCoreProcessorILNS1_6detail11MessageTypeE4ENS0_4cmif6detail14CoreMethodInfoINSt3__15tupleIJNS7_17InRawArgumentInfoILm8ELm4ELl0EEENSB_ILm4ELm4ELl8EEEEEELm12ELm0ELb0EEESE_E7ProcessEPNS2_26Hipc2ClientProxyBaseObjectENS6_6client23InRawClientArgumentTypeILm8ELm4EvEENSK_ILm4ELm4EvEEj
00000000002a0c3c g    DF .text	0000000000000208 _ZNK7android6Parcel24readParcelFileDescriptorERi
00000000003e0568 g    DF .text	000000000000000c llabs
00000000000834ec  w   DF .text	00000000000001ac _ZN2nn7nlibsdk4heap12TlsHeapCache14FreeFunc_Mode0INSt3__117integral_constantIbLb1EEEEEiPS2_Pv
000000000020397c g    DF .text	0000000000000728 extract_outline
00000000003281a8 g    DF .text	000000000000000c _ZNSt3__120__threads_data_queue12release_nodeEPNS_21__horizon_thread_dataE
00000000000f09f0 g    DF .text	0000000000000050 silk_CNG_Reset
00000000001bc7f4 g    DF .text	0000000000000004 _ZNK2nn3mii6detail12StoreDataRaw16GetFacelineColorEv
0000000000049d24  w   DF .text	00000000000000c0 _ZN2nn2fs10SubStorage7SetSizeEl
00000000001561d4 g    DF .text	0000000000000090 _ZN2nn4nifm24GetCurrentNetworkProfileEPNS0_18NetworkProfileDataE
00000000002cb8dc g    DF .text	0000000000000008 _ZNK7android6Region5beginEv
