
exefs150/subsdk0_decompress.elf:     file format elf64-little

DYNAMIC SYMBOL TABLE:
0000000000000000      D  *UND*	0000000000000000 __nnDetailNintendoSdkRuntimeObjectFile
0000000000000000      D  *UND*	0000000000000000 __nnmusl_fini_dso
0000000000000000      D  *UND*	0000000000000000 __nnmusl_init_dso
0000000000000000  w   D  *UND*	0000000000000000 __rel_dyn_end
0000000000000000  w   D  *UND*	0000000000000000 __rel_dyn_start
0000000000000000  w   D  *UND*	0000000000000000 __rel_plt_end
0000000000000000  w   D  *UND*	0000000000000000 __rel_plt_start
0000000000000000      D  *UND*	0000000000000000 NvOsMutexUnlock
0000000000000000      D  *UND*	0000000000000000 NvOsThreadJoin
0000000000000000      D  *UND*	0000000000000000 multimedia_Alloc
0000000000000000      D  *UND*	0000000000000000 NvOsSemaphoreDestroy
0000000000000000      D  *UND*	0000000000000000 memcpy
0000000000000000      D  *UND*	0000000000000000 NvOsSemaphoreCreate
0000000000000000      D  *UND*	0000000000000000 NvOsMutexCreate
0000000000000000      D  *UND*	0000000000000000 NvOsSemaphoreWait
0000000000000000      D  *UND*	0000000000000000 memset
0000000000000000      D  *UND*	0000000000000000 NvOsMutexDestroy
0000000000000000      D  *UND*	0000000000000000 NvOsSemaphoreSignal
0000000000000000      D  *UND*	0000000000000000 NvOsMutexLock
0000000000000000      D  *UND*	0000000000000000 NvOsThreadCreate
0000000000000000      D  *UND*	0000000000000000 strlen
0000000000000000      D  *UND*	0000000000000000 multimedia_Free
0000000000000000      D  *UND*	0000000000000000 NvRmOpenNew
0000000000000000      D  *UND*	0000000000000000 NvRmMemMap
0000000000000000      D  *UND*	0000000000000000 NvRmMemHandleFree
0000000000000000      D  *UND*	0000000000000000 NvOsFclose
0000000000000000      D  *UND*	0000000000000000 NvOsSleepMS
0000000000000000      D  *UND*	0000000000000000 tolower
0000000000000000      D  *UND*	0000000000000000 NvOsFtell
0000000000000000      D  *UND*	0000000000000000 atof
0000000000000000      D  *UND*	0000000000000000 NvOsSnprintf
0000000000000000      D  *UND*	0000000000000000 NvOsFopen
0000000000000000      D  *UND*	0000000000000000 NvOsGetTimeUS
0000000000000000      D  *UND*	0000000000000000 strstr
0000000000000000      D  *UND*	0000000000000000 NvOsStat
0000000000000000      D  *UND*	0000000000000000 rand
0000000000000000      D  *UND*	0000000000000000 strncmp
0000000000000000      D  *UND*	0000000000000000 NvRmMemUnmap
0000000000000000      D  *UND*	0000000000000000 strncpy
0000000000000000      D  *UND*	0000000000000000 memcmp
0000000000000000      D  *UND*	0000000000000000 NvOsFseek
0000000000000000      D  *UND*	0000000000000000 NvOsFprintf
0000000000000000      D  *UND*	0000000000000000 NvOsFread
0000000000000000      D  *UND*	0000000000000000 NvOsThreadYield
0000000000000000      D  *UND*	0000000000000000 srand
0000000000000000      D  *UND*	0000000000000000 multimedia_DebugPrintf
0000000000000000      D  *UND*	0000000000000000 strcmp
0000000000000000      D  *UND*	0000000000000000 NvRmMemHandleAlloc
0000000000000000      D  *UND*	0000000000000000 NvRmMemUnpin
0000000000000000      D  *UND*	0000000000000000 NvRmClose
0000000000000000      D  *UND*	0000000000000000 atoi
0000000000000000      D  *UND*	0000000000000000 NvRmMemPin
0000000000000000      D  *UND*	0000000000000000 NvOsFwrite
0000000000000000      D  *UND*	0000000000000000 toupper
0000000000000000      D  *UND*	0000000000000000 strchr
0000000000000000      D  *UND*	0000000000000000 NvOsGetTimeMS
0000000000000000      D  *UND*	0000000000000000 NvOsVsnprintf
0000000000000000      D  *UND*	0000000000000000 NvUStrtoul
0000000000000000      D  *UND*	0000000000000000 NvOsGetConfigString
0000000000000000      D  *UND*	0000000000000000 NvOsSemaphoreWaitTimeout
0000000000000000      D  *UND*	0000000000000000 strrchr
0000000000000000      D  *UND*	0000000000000000 NvUStrtoull
0000000000000000      D  *UND*	0000000000000000 NvRmSurfaceComputeAlignment
0000000000000000      D  *UND*	0000000000000000 NvRmChipGetCapabilityU32
0000000000000000      D  *UND*	0000000000000000 NvRmModuleGetCapabilities
0000000000000000      D  *UND*	0000000000000000 multimedia_Realloc
0000000000000000      D  *UND*	0000000000000000 NvRmSurfaceComputeSize
0000000000000000      D  *UND*	0000000000000000 multimedia_GetAllocator
0000000000000000      D  *UND*	0000000000000000 multimedia_AllocAlign
0000000000000000      D  *UND*	0000000000000000 NvOsHeapAllocatorSetCallbacks
0000000000000000      D  *UND*	0000000000000000 NvRmMemHandleAllocAttr
0000000000000000      D  *UND*	0000000000000000 NvOsThreadCreateWithAttr
0000000000000000      D  *UND*	0000000000000000 sqrt
0000000000000000      D  *UND*	0000000000000000 NvOsAtomicCompareExchangePtr
0000000000000000      D  *UND*	0000000000000000 stdout
0000000000000000      D  *UND*	0000000000000000 nvgr_get_stereo_info
0000000000000000      D  *UND*	0000000000000000 NvRmMemHandleFromFd
0000000000000000      D  *UND*	0000000000000000 NvRmMemCacheSyncForCpu
0000000000000000      D  *UND*	0000000000000000 nvgr_decompress
0000000000000000      D  *UND*	0000000000000000 fscanf
0000000000000000      D  *UND*	0000000000000000 NvRmMemGetFd
0000000000000000      D  *UND*	0000000000000000 NvRmSurfaceRead
0000000000000000      D  *UND*	0000000000000000 feof
0000000000000000      D  *UND*	0000000000000000 NvOsMemset
0000000000000000      D  *UND*	0000000000000000 nvgr_get_surfaces
0000000000000000      D  *UND*	0000000000000000 fflush
0000000000000000      D  *UND*	0000000000000000 NvRmMultiplanarSurfaceSetup
0000000000000000      D  *UND*	0000000000000000 nvgr_is_valid
0000000000000000      D  *UND*	0000000000000000 NvRmFenceWait
0000000000000000      D  *UND*	0000000000000000 nvgr_get_fence
0000000000000000      D  *UND*	0000000000000000 NvOsThreadSetName
0000000000000000      D  *UND*	0000000000000000 fprintf
0000000000000000      D  *UND*	0000000000000000 nvgr_set_stereo_info
0000000000000000      D  *UND*	0000000000000000 nvgr_set_video_timestamp
0000000000000000      D  *UND*	0000000000000000 nvgr_set_video_metadata
0000000000000000      D  *UND*	0000000000000000 NvRmSurfaceWrite
0000000000000000      D  *UND*	0000000000000000 NvRmSurfaceSetup
0000000000000000      D  *UND*	0000000000000000 NvRmMemRead
0000000000000000      D  *UND*	0000000000000000 NvRmMemWrite
0000000000000000      D  *UND*	0000000000000000 NvRmFenceGetFromFile
0000000000000000      D  *UND*	0000000000000000 sync_close
0000000000000000      D  *UND*	0000000000000000 NvRmSurfaceGetDefaultLayout
0000000000000000      D  *UND*	0000000000000000 NvRmMemGetSize
0000000000000000      D  *UND*	0000000000000000 NvOsMemcpy
0000000000000000      D  *UND*	0000000000000000 NvRmMemCacheSyncForDevice
0000000000000000      D  *UND*	0000000000000000 nvgr_put_write_nvfence
0000000000000000      D  *UND*	0000000000000000 nvgr_is_yuv
0000000000000000      D  *UND*	0000000000000000 NvRmFencePutToFile
0000000000000000      D  *UND*	0000000000000000 nvgr_inc_write_count
0000000000000000      D  *UND*	0000000000000000 close
0000000000000000      D  *UND*	0000000000000000 sync_wait
0000000000000000      D  *UND*	0000000000000000 NvDdkVicExecute
0000000000000000      D  *UND*	0000000000000000 NvDdkVicConfigure
0000000000000000      D  *UND*	0000000000000000 memmove
0000000000000000      D  *UND*	0000000000000000 NvDdkVicApplyClipAndTransform
0000000000000000      D  *UND*	0000000000000000 NvDdkVicGetSurfaceInfo
0000000000000000      D  *UND*	0000000000000000 NvRmStreamBegin
0000000000000000      D  *UND*	0000000000000000 NvColorFormatToString
0000000000000000      D  *UND*	0000000000000000 NvRmSurfaceComputeOffset
0000000000000000      D  *UND*	0000000000000000 NvRmSurfaceComputePitch
0000000000000000      D  *UND*	0000000000000000 NvRmStreamPushSetClass
0000000000000000      D  *UND*	0000000000000000 NvDdkVicReadCrc
0000000000000000      D  *UND*	0000000000000000 NvRmStreamEnd
0000000000000000      D  *UND*	0000000000000000 NvDdkVicFreeSession
0000000000000000      D  *UND*	0000000000000000 NvDdkVicGetColorSpace
0000000000000000      D  *UND*	0000000000000000 NvDdkVicConfigureTransform
0000000000000000      D  *UND*	0000000000000000 NvDdkVicConfigureBlending
0000000000000000      D  *UND*	0000000000000000 NvRmSurfaceDumpJson
0000000000000000      D  *UND*	0000000000000000 NvDdkVicCreateSession
0000000000000000      D  *UND*	0000000000000000 NvRmStreamPushWaits
0000000000000000      D  *UND*	0000000000000000 log
0000000000000000      D  *UND*	0000000000000000 NvRmChannelDup
0000000000000000      D  *UND*	0000000000000000 strcpy
0000000000000000      D  *UND*	0000000000000000 NvOsGetSysConfigString
0000000000000000      D  *UND*	0000000000000000 NvOsStrncpy
0000000000000000      D  *UND*	0000000000000000 printf
0000000000000000      D  *UND*	0000000000000000 snprintf
0000000000000000      D  *UND*	0000000000000000 NvOsGetConfigU32
0000000000000000      D  *UND*	0000000000000000 NvRmStreamPushReloc
0000000000000000      D  *UND*	0000000000000000 vsnprintf
0000000000000000      D  *UND*	0000000000000000 NvOsConfigGetState
0000000000000000      D  *UND*	0000000000000000 NvRmMemFloorVpr
0000000000000000      D  *UND*	0000000000000000 NvRmChannelSyncPointWaitTimeout
0000000000000000      D  *UND*	0000000000000000 NvOsStrlen
0000000000000000      D  *UND*	0000000000000000 NvRmStreamFree
0000000000000000      D  *UND*	0000000000000000 NvRmChannelGetClientManagedSyncPoint
0000000000000000      D  *UND*	0000000000000000 strcat
0000000000000000      D  *UND*	0000000000000000 strtok
0000000000000000      D  *UND*	0000000000000000 sscanf
0000000000000000      D  *UND*	0000000000000000 fopen
0000000000000000      D  *UND*	0000000000000000 fclose
0000000000000000      D  *UND*	0000000000000000 NvRmChannelOpen
0000000000000000      D  *UND*	0000000000000000 NvRmChannelClose
0000000000000000      D  *UND*	0000000000000000 NvRmChannelFreeClientManagedSyncPoint
0000000000000000      D  *UND*	0000000000000000 NvRmChannelSyncPointRead
0000000000000000      D  *UND*	0000000000000000 NvRmStreamInit
0000000000000000      D  *UND*	0000000000000000 NvRmStreamFlush
0000000000000000      D  *UND*	0000000000000000 NvOsTelemetrySubmitData
0000000000000000      D  *UND*	0000000000000000 exit
0000000000000000      D  *UND*	0000000000000000 NvRmChannelGetModuleSyncPoint
0000000000000000      D  *UND*	0000000000000000 NvRmSurfaceComputeSecondFieldOffset
0000000000000000      D  *UND*	0000000000000000 NvRmChannelSyncPointFree
0000000000000000      D  *UND*	0000000000000000 NvRmChannelSetModuleClockRate
0000000000000000      D  *UND*	0000000000000000 fabsf
0000000000000000      D  *UND*	0000000000000000 NvRmChannelSetModulePixelRate
0000000000000000      D  *UND*	0000000000000000 NvRmStreamPushWait
0000000000000000      D  *UND*	0000000000000000 cosf
0000000000000000      D  *UND*	0000000000000000 NvRmChannelGetModuleClockRate
0000000000000000      D  *UND*	0000000000000000 NvRmStreamPushFalconMethod
0000000000000000      D  *UND*	0000000000000000 NvRmStreamPushFalconMethodReloc
0000000000000000      D  *UND*	0000000000000000 sinf
0000000000000000      D  *UND*	0000000000000000 ceilf
0000000000000000      D  *UND*	0000000000000000 _ZN2nn2os13FinalizeMutexEPNS0_9MutexTypeE
0000000000000000      D  *UND*	0000000000000000 _ZN7android10HeapObjectdlEPv
0000000000000000      D  *UND*	0000000000000000 _ZN7android10HeapObjectnwEm
0000000000000000      D  *UND*	0000000000000000 _ZN7android10VectorImpl13finish_vectorEv
0000000000000000      D  *UND*	0000000000000000 _ZN7android10VectorImpl13removeItemsAtEmm
0000000000000000      D  *UND*	0000000000000000 _ZN7android10VectorImpl16editItemLocationEm
0000000000000000      D  *UND*	0000000000000000 _ZN7android10VectorImpl3addEPKv
0000000000000000      D  *UND*	0000000000000000 _ZN7android10VectorImpl3popEv
0000000000000000      D  *UND*	0000000000000000 _ZN7android10VectorImpl5clearEv
0000000000000000      D  *UND*	0000000000000000 _ZN7android10VectorImplC2ERKS0_
0000000000000000      D  *UND*	0000000000000000 _ZN7android10VectorImplC2Emj
0000000000000000      D  *UND*	0000000000000000 _ZN7android10VectorImplD2Ev
0000000000000000      D  *UND*	0000000000000000 _ZN7android7RefBase10onFirstRefEv
0000000000000000      D  *UND*	0000000000000000 _ZN7android7RefBase13onLastWeakRefEPKv
0000000000000000      D  *UND*	0000000000000000 _ZN7android7RefBase15onLastStrongRefEPKv
0000000000000000      D  *UND*	0000000000000000 _ZN7android7RefBase20onIncStrongAttemptedEjPKv
0000000000000000      D  *UND*	0000000000000000 _ZNK7android7RefBase9decStrongEPKv
0000000000000000      D  *UND*	0000000000000000 _ZTIN7android10VectorImplE
0000000000000000      D  *UND*	0000000000000000 _ZTVN10__cxxabiv117__class_type_infoE
0000000000000000      D  *UND*	0000000000000000 _ZTVN10__cxxabiv120__si_class_type_infoE
0000000000000000      D  *UND*	0000000000000000 _ZTVN10__cxxabiv121__vmi_class_type_infoE
0000000000000000      D  *UND*	0000000000000000 _ZdaPv
0000000000000000      D  *UND*	0000000000000000 _ZdlPv
0000000000000000      D  *UND*	0000000000000000 _Znam
0000000000000000      D  *UND*	0000000000000000 _Znwm
0000000000000000      D  *UND*	0000000000000000 __android_log_assert
0000000000000000      D  *UND*	0000000000000000 property_get
0000000000000000      D  *UND*	0000000000000000 strcasecmp
0000000000000000      D  *UND*	0000000000000000 fwrite
0000000000000000      D  *UND*	0000000000000000 stderr
0000000000000000      D  *UND*	0000000000000000 strtol
0000000000000000      D  *UND*	0000000000000000 acos
0000000000000000      D  *UND*	0000000000000000 atan
0000000000000000      D  *UND*	0000000000000000 atan2
0000000000000000      D  *UND*	0000000000000000 atol
0000000000000000      D  *UND*	0000000000000000 cos
0000000000000000      D  *UND*	0000000000000000 exp
0000000000000000      D  *UND*	0000000000000000 fgets
0000000000000000      D  *UND*	0000000000000000 fread
0000000000000000      D  *UND*	0000000000000000 fseek
0000000000000000      D  *UND*	0000000000000000 ftell
0000000000000000      D  *UND*	0000000000000000 pow
0000000000000000      D  *UND*	0000000000000000 sin
0000000000000000      D  *UND*	0000000000000000 tan
0000000000000000      D  *UND*	0000000000000000 vfprintf
0000000000000000      D  *UND*	0000000000000000 vprintf
0000000000000000      D  *UND*	0000000000000000 vsprintf
0000000000000000      D  *UND*	0000000000000000 _ZN7android7RefBaseC2Ev
0000000000000000      D  *UND*	0000000000000000 _ZN7android7RefBaseD2Ev
0000000000000000      D  *UND*	0000000000000000 _ZNK7android7RefBase9incStrongEPKv
0000000000000000      D  *UND*	0000000000000000 __cxa_pure_virtual
0000000000000000      D  *UND*	0000000000000000 __assert_fail
0000000000000000      D  *UND*	0000000000000000 _ZN7android16SortedVectorImpl3addEPKv
0000000000000000      D  *UND*	0000000000000000 _ZN7android16SortedVectorImpl6removeEPKv
0000000000000000      D  *UND*	0000000000000000 _ZN7android16SortedVectorImplC2Emj
0000000000000000      D  *UND*	0000000000000000 _ZN7android16SortedVectorImplD2Ev
0000000000000000      D  *UND*	0000000000000000 _ZNK7android16SortedVectorImpl7indexOfEPKv
0000000000000000      D  *UND*	0000000000000000 _ZTIN7android16SortedVectorImplE
0000000000000000      D  *UND*	0000000000000000 _ZN2nn2os11UnlockMutexEPNS0_9MutexTypeE
0000000000000000      D  *UND*	0000000000000000 _ZN2nn2os15InitializeMutexEPNS0_9MutexTypeEbi
0000000000000000      D  *UND*	0000000000000000 _ZN2nn2os9LockMutexEPNS0_9MutexTypeE
0000000000000000      D  *UND*	0000000000000000 _ZN7android10IInterface8asBinderEv
0000000000000000      D  *UND*	0000000000000000 _ZN7android10IInterfaceD0Ev
0000000000000000      D  *UND*	0000000000000000 _ZN7android10IInterfaceD1Ev
0000000000000000      D  *UND*	0000000000000000 _ZN7android7BBinder10onTransactEjRKNS_6ParcelEPS1_j
0000000000000000      D  *UND*	0000000000000000 _ZN7android7BBinder10pingBinderEv
0000000000000000      D  *UND*	0000000000000000 _ZN7android7BBinder11linkToDeathERKNS_2spINS_7IBinder14DeathRecipientEEEPvj
0000000000000000      D  *UND*	0000000000000000 _ZN7android7BBinder11localBinderEv
0000000000000000      D  *UND*	0000000000000000 _ZN7android7BBinder12attachObjectEPKvPvS3_PFvS2_S3_S3_E
0000000000000000      D  *UND*	0000000000000000 _ZN7android7BBinder12detachObjectEPKv
0000000000000000      D  *UND*	0000000000000000 _ZN7android7BBinder13unlinkToDeathERKNS_2wpINS_7IBinder14DeathRecipientEEEPvjPS4_
0000000000000000      D  *UND*	0000000000000000 _ZN7android7BBinder15getNativeHandleEjRjRb
0000000000000000      D  *UND*	0000000000000000 _ZN7android7BBinder17onGetNativeHandleEjRjRb
0000000000000000      D  *UND*	0000000000000000 _ZN7android7BBinder4dumpEiRKNS_6VectorINS_8String16EEE
0000000000000000      D  *UND*	0000000000000000 _ZN7android7BBinder8transactEjRKNS_6ParcelEPS1_j
0000000000000000      D  *UND*	0000000000000000 _ZN7android7BBinderC2Ev
0000000000000000      D  *UND*	0000000000000000 _ZN7android7BBinderD0Ev
0000000000000000      D  *UND*	0000000000000000 _ZN7android7BBinderD1Ev
0000000000000000      D  *UND*	0000000000000000 _ZN7android7BBinderD2Ev
0000000000000000      D  *UND*	0000000000000000 _ZN7android7IBinder11localBinderEv
0000000000000000      D  *UND*	0000000000000000 _ZN7android7IBinder12remoteBinderEv
0000000000000000      D  *UND*	0000000000000000 _ZN7android7IBinder19queryLocalInterfaceERKNS_8String16E
0000000000000000      D  *UND*	0000000000000000 _ZN7android7IBinderD0Ev
0000000000000000      D  *UND*	0000000000000000 _ZN7android7IBinderD1Ev
0000000000000000      D  *UND*	0000000000000000 _ZN7android7RefBase12weakref_type7decWeakEPKv
0000000000000000      D  *UND*	0000000000000000 _ZNK7android7BBinder10findObjectEPKv
0000000000000000      D  *UND*	0000000000000000 _ZNK7android7BBinder13isBinderAliveEv
0000000000000000      D  *UND*	0000000000000000 _ZNK7android7BBinder22getInterfaceDescriptorEv
0000000000000000      D  *UND*	0000000000000000 _ZNK7android7IBinder13checkSubclassEPKv
0000000000000000      D  *UND*	0000000000000000 _ZNK7android7IMemory7pointerEv
0000000000000000      D  *UND*	0000000000000000 _ZNK7android7RefBase10createWeakEPKv
0000000000000000      D  *UND*	0000000000000000 _ZTIN7android10IInterfaceE
0000000000000000      D  *UND*	0000000000000000 _ZTIN7android7BBinderE
0000000000000000      D  *UND*	0000000000000000 _ZTIN7android7IBinderE
0000000000000000      D  *UND*	0000000000000000 _ZTIN7android7RefBaseE
0000000000000000      D  *UND*	0000000000000000 _ZTv0_n24_N7android10IInterfaceD0Ev
0000000000000000      D  *UND*	0000000000000000 _ZTv0_n24_N7android10IInterfaceD1Ev
0000000000000000      D  *UND*	0000000000000000 _ZTv0_n24_N7android7BBinderD0Ev
0000000000000000      D  *UND*	0000000000000000 _ZTv0_n24_N7android7BBinderD1Ev
0000000000000000      D  *UND*	0000000000000000 _ZTv0_n24_N7android7IBinderD0Ev
0000000000000000      D  *UND*	0000000000000000 _ZTv0_n24_N7android7IBinderD1Ev
0000000000000000      D  *UND*	0000000000000000 strzcmp16
0000000000000000      D  *UND*	0000000000000000 _ZN7android7String85setToERKS0_
0000000000000000      D  *UND*	0000000000000000 _ZN7android7String86appendEPKc
0000000000000000      D  *UND*	0000000000000000 _ZN7android7String86appendERKS0_
0000000000000000      D  *UND*	0000000000000000 _ZN7android7String8C1EPKc
0000000000000000      D  *UND*	0000000000000000 _ZN7android7String8C1EPKcm
0000000000000000      D  *UND*	0000000000000000 _ZN7android7String8C1ERKS0_
0000000000000000      D  *UND*	0000000000000000 _ZN7android7String8C1Ev
0000000000000000      D  *UND*	0000000000000000 _ZN7android7String8D1Ev
0000000000000000      D  *UND*	0000000000000000 strcspn
0000000000000000      D  *UND*	0000000000000000 strtok_r
0000000000000000      D  *UND*	0000000000000000 _ZN7android6Parcel10writeInt32Ei
0000000000000000      D  *UND*	0000000000000000 _ZN7android6Parcel12writeString8ERKNS_7String8E
0000000000000000      D  *UND*	0000000000000000 _ZNK7android6Parcel11readString8Ev
0000000000000000      D  *UND*	0000000000000000 _ZNK7android6Parcel12dataPositionEv
0000000000000000      D  *UND*	0000000000000000 _ZNK7android6Parcel9readInt32Ev
0000000000000000      D  *UND*	0000000000000000 _ZN2nn2os21WaitConditionVariableEPNS0_21ConditionVariableTypeEPNS0_9MutexTypeE
0000000000000000      D  *UND*	0000000000000000 _ZN2nn2os23SignalConditionVariableEPNS0_21ConditionVariableTypeE
0000000000000000      D  *UND*	0000000000000000 _ZN2nn2os25FinalizeConditionVariableEPNS0_21ConditionVariableTypeE
0000000000000000      D  *UND*	0000000000000000 _ZN2nn2os26TimedWaitConditionVariableEPNS0_21ConditionVariableTypeEPNS0_9MutexTypeENS_8TimeSpanE
0000000000000000      D  *UND*	0000000000000000 _ZN2nn2os27InitializeConditionVariableEPNS0_21ConditionVariableTypeE
0000000000000000      D  *UND*	0000000000000000 _ZN7android6Thread10readyToRunEv
0000000000000000      D  *UND*	0000000000000000 _ZN7android6Thread11requestExitEv
0000000000000000      D  *UND*	0000000000000000 _ZN7android6Thread18requestExitAndWaitEv
0000000000000000      D  *UND*	0000000000000000 _ZN7android6Thread3runEPKcim
0000000000000000      D  *UND*	0000000000000000 _ZN7android6ThreadC2Eb
0000000000000000      D  *UND*	0000000000000000 _ZN7android6ThreadD0Ev
0000000000000000      D  *UND*	0000000000000000 _ZN7android6ThreadD1Ev
0000000000000000      D  *UND*	0000000000000000 _ZN7android6ThreadD2Ev
0000000000000000      D  *UND*	0000000000000000 _ZN7android7RefBase12weakref_type16attemptIncStrongEPKv
0000000000000000      D  *UND*	0000000000000000 _ZTIN7android6ThreadE
0000000000000000      D  *UND*	0000000000000000 _ZTv0_n24_N7android6ThreadD0Ev
0000000000000000      D  *UND*	0000000000000000 _ZTv0_n24_N7android6ThreadD1Ev
0000000000000000      D  *UND*	0000000000000000 android_atomic_acquire_load
0000000000000000      D  *UND*	0000000000000000 android_atomic_and
0000000000000000      D  *UND*	0000000000000000 usleep
0000000000000000      D  *UND*	0000000000000000 _ZN7android21defaultServiceManagerEv
0000000000000000      D  *UND*	0000000000000000 _ZN7android8String16C1EPKc
0000000000000000      D  *UND*	0000000000000000 _ZN7android8String16D1Ev
0000000000000000      D  *UND*	0000000000000000 expf
0000000000000000      D  *UND*	0000000000000000 logf
0000000000000000      D  *UND*	0000000000000000 frexpf
0000000000000000      D  *UND*	0000000000000000 ldexpf
0000000000000000      D  *UND*	0000000000000000 abort
0000000000000000      D  *UND*	0000000000000000 _ZNK7android6Thread11exitPendingEv
0000000000000000      D  *UND*	0000000000000000 _ZNK7android7IMemory4sizeEv
0000000000000000      D  *UND*	0000000000000000 android_atomic_or
0000000000000000      D  *UND*	0000000000000000 clock_gettime
0000000000000000      D  *UND*	0000000000000000 getpid
0000000000000000      D  *UND*	0000000000000000 set_sched_policy
0000000000000000      D  *UND*	0000000000000000 write
0000000000000000      D  *UND*	0000000000000000 __errno_location
0000000000000000      D  *UND*	0000000000000000 android_atomic_release_store
0000000000000000      D  *UND*	0000000000000000 strerror
0000000000000000      D  *UND*	0000000000000000 _ZN7android10IInterfaceC2Ev
0000000000000000      D  *UND*	0000000000000000 _ZN7android10IInterfaceD2Ev
0000000000000000      D  *UND*	0000000000000000 _ZN7android6Parcel10writeFloatEf
0000000000000000      D  *UND*	0000000000000000 _ZN7android6Parcel10writeInt64El
0000000000000000      D  *UND*	0000000000000000 _ZN7android6Parcel12writeCStringEPKc
0000000000000000      D  *UND*	0000000000000000 _ZN7android6Parcel17writeStrongBinderERKNS_2spINS_7IBinderEEE
0000000000000000      D  *UND*	0000000000000000 _ZN7android6Parcel5writeEPKvm
0000000000000000      D  *UND*	0000000000000000 _ZN7android6ParcelC1Ev
0000000000000000      D  *UND*	0000000000000000 _ZN7android6ParcelD1Ev
0000000000000000      D  *UND*	0000000000000000 _ZN7android7IMemory11asInterfaceERKNS_2spINS_7IBinderEEE
0000000000000000      D  *UND*	0000000000000000 _ZN7android9BpRefBase10onFirstRefEv
0000000000000000      D  *UND*	0000000000000000 _ZN7android9BpRefBase15onLastStrongRefEPKv
0000000000000000      D  *UND*	0000000000000000 _ZN7android9BpRefBase20onIncStrongAttemptedEjPKv
0000000000000000      D  *UND*	0000000000000000 _ZN7android9BpRefBaseC2ERKNS_2spINS_7IBinderEEE
0000000000000000      D  *UND*	0000000000000000 _ZN7android9BpRefBaseD0Ev
0000000000000000      D  *UND*	0000000000000000 _ZN7android9BpRefBaseD1Ev
0000000000000000      D  *UND*	0000000000000000 _ZN7android9BpRefBaseD2Ev
0000000000000000      D  *UND*	0000000000000000 _ZNK7android6Parcel11readCStringEv
0000000000000000      D  *UND*	0000000000000000 _ZNK7android6Parcel14checkInterfaceEPNS_7IBinderE
0000000000000000      D  *UND*	0000000000000000 _ZNK7android6Parcel16readStrongBinderEv
0000000000000000      D  *UND*	0000000000000000 _ZNK7android6Parcel4readEPvm
0000000000000000      D  *UND*	0000000000000000 _ZNK7android6Parcel9readFloatEv
0000000000000000      D  *UND*	0000000000000000 _ZNK7android6Parcel9readInt64Ev
0000000000000000      D  *UND*	0000000000000000 _ZTIN7android9BpRefBaseE
0000000000000000      D  *UND*	0000000000000000 _ZTv0_n24_N7android9BpRefBaseD0Ev
0000000000000000      D  *UND*	0000000000000000 _ZTv0_n24_N7android9BpRefBaseD1Ev
0000000000000000      D  *UND*	0000000000000000 _ZTv0_n32_N7android9BpRefBase10onFirstRefEv
0000000000000000      D  *UND*	0000000000000000 _ZTv0_n40_N7android9BpRefBase15onLastStrongRefEPKv
0000000000000000      D  *UND*	0000000000000000 _ZTv0_n48_N7android9BpRefBase20onIncStrongAttemptedEjPKv
0000000000000000      D  *UND*	0000000000000000 _ZN7android16SortedVectorImplaSERKS0_
0000000000000000      D  *UND*	0000000000000000 _ZN7android7RefBase10renameRefsEmRKNS_16ReferenceRenamerE
0000000000000000      D  *UND*	0000000000000000 _ZN7android7RefBase11renameRefIdEPNS0_12weakref_typeEPKvS4_
0000000000000000      D  *UND*	0000000000000000 _ZN7android7RefBase12weakref_type7incWeakEPKv
0000000000000000      D  *UND*	0000000000000000 _ZN7android6Parcel10appendFromEPKS0_mm
0000000000000000      D  *UND*	0000000000000000 _ZNK7android6Parcel8dataSizeEv
0000000000000000      D  *UND*	0000000000000000 _ZNK7android6Parcel9dataAvailEv
0000000000000000      D  *UND*	0000000000000000 _ZN7android10VectorImpl4pushEPKv
0000000000000000      D  *UND*	0000000000000000 _ZN7android7RefBase11renameRefIdEPS0_PKvS3_
0000000000000000      D  *UND*	0000000000000000 _ZN7android10VectorImpl12appendVectorERKS0_
0000000000000000      D  *UND*	0000000000000000 _ZN7android10VectorImpl8insertAtEPKvmm
0000000000000000      D  *UND*	0000000000000000 androidGetThreadId
0000000000000000      D  *UND*	0000000000000000 _ZN7android7String85setToEPKc
0000000000000000      D  *UND*	0000000000000000 _ZNK7android6Parcel15setDataPositionEm
0000000000000000      D  *UND*	0000000000000000 _ZN7android10MemoryBaseC1ERKNS_2spINS_11IMemoryHeapEEElm
0000000000000000      D  *UND*	0000000000000000 _ZN7android10VectorImpl11setCapacityEm
0000000000000000      D  *UND*	0000000000000000 qsort
0000000000000000      D  *UND*	0000000000000000 _ZNK7android10VectorImpl8itemSizeEv
0000000000000000      D  *UND*	0000000000000000 bcopy
0000000000000000      D  *UND*	0000000000000000 time
0000000000000000      D  *UND*	0000000000000000 _ZN7android12MemoryDealerC1EmPKcj
0000000000000000      D  *UND*	0000000000000000 strncasecmp
0000000000000000      D  *UND*	0000000000000000 isspace
0000000000000000      D  *UND*	0000000000000000 strtoul
0000000000000000      D  *UND*	0000000000000000 strtof
0000000000000000      D  *UND*	0000000000000000 _ZN2nn2os11SleepThreadENS_8TimeSpanE
0000000000000000      D  *UND*	0000000000000000 _ZN7android10VectorImpl4sortEPFiPKvS2_E
0000000000000000      D  *UND*	0000000000000000 _ZN7android10VectorImpl6resizeEm
0000000000000000      D  *UND*	0000000000000000 systemTime
0000000000000000      D  *UND*	0000000000000000 _ZN7android6Parcel13writeString16ERKNS_8String16E
0000000000000000      D  *UND*	0000000000000000 _ZN7android7SurfaceC1ERKNS_2spINS_22IGraphicBufferProducerEEEb
0000000000000000      D  *UND*	0000000000000000 _ZN7android10VectorImpl13editArrayImplEv
0000000000000000      D  *UND*	0000000000000000 _ZN7android10VectorImplaSERKS0_
0000000000000000      D  *UND*	0000000000000000 _ZN2nn2os26BroadcastConditionVariableEPNS0_21ConditionVariableTypeE
0000000000000000      D  *UND*	0000000000000000 _ZNK7android6Parcel9readInt32EPi
0000000000000000      D  *UND*	0000000000000000 HMI_gralloc
0000000000000000      D  *UND*	0000000000000000 NvOsRegisterExitHandler
0000000000000000      D  *UND*	0000000000000000 _ZN7android19GraphicBufferMapper4lockEPK13native_handleiRKNS_4RectEPPv
0000000000000000      D  *UND*	0000000000000000 _ZN7android19GraphicBufferMapper6unlockEPK13native_handle
0000000000000000      D  *UND*	0000000000000000 _ZN7android19GraphicBufferMapperC1Ev
0000000000000000      D  *UND*	0000000000000000 _ZN7android9SingletonINS_19GraphicBufferMapperEE5sLockE
0000000000000000      D  *UND*	0000000000000000 _ZN7android9SingletonINS_19GraphicBufferMapperEE9sInstanceE
0000000000000000      D  *UND*	0000000000000000 strcasestr
0000000000000000      D  *UND*	0000000000000000 _ZN2nn4diag6detail9AbortImplEPKcS3_S3_i
0000000000000000      D  *UND*	0000000000000000 _ZN7android6Parcel11writeDoubleEd
0000000000000000      D  *UND*	0000000000000000 _ZNK7android6Parcel10readDoubleEv
0000000000000000      D  *UND*	0000000000000000 _ZNSt3__112__next_primeEm
0000000000000000      D  *UND*	0000000000000000 _ZNSt3__112basic_stringIcNS_11char_traitsIcEENS_9allocatorIcEEE6appendEPKc
0000000000000000      D  *UND*	0000000000000000 _ZNSt3__112basic_stringIcNS_11char_traitsIcEENS_9allocatorIcEEE6appendEPKcm
0000000000000000      D  *UND*	0000000000000000 _ZNSt3__112basic_stringIcNS_11char_traitsIcEENS_9allocatorIcEEE6assignEPKc
0000000000000000      D  *UND*	0000000000000000 _ZNSt3__112basic_stringIcNS_11char_traitsIcEENS_9allocatorIcEEE7reserveEm
0000000000000000      D  *UND*	0000000000000000 _ZNSt3__19to_stringEm
0000000000000000      D  *UND*	0000000000000000 isprint
0000000000000000      D  *UND*	0000000000000000 _ZNK7android6Parcel11readInplaceEm
0000000000000000      D  *UND*	0000000000000000 sprintf
0000000000000000      D  *UND*	0000000000000000 _ZN7android10VectorImpl4pushEv
0000000000000000      D  *UND*	0000000000000000 _ZNKSt3__120__vector_base_commonILb1EE20__throw_length_errorEv
0000000000000000      D  *UND*	0000000000000000 _ZNKSt3__120__vector_base_commonILb1EE20__throw_out_of_rangeEv
0000000000000000      D  *UND*	0000000000000000 strtod
0000000000000000      D  *UND*	0000000000000000 strtoull
0000000000000000      D  *UND*	0000000000000000 __cxa_guard_acquire
0000000000000000      D  *UND*	0000000000000000 __cxa_guard_release
0000000000000000      D  *UND*	0000000000000000 _ZN7android7String85setToEPKDsm
0000000000000000      D  *UND*	0000000000000000 _ZN7android7String85setToEPKcm
0000000000000000      D  *UND*	0000000000000000 _ZSt7nothrow
0000000000000000      D  *UND*	0000000000000000 _ZnamRKSt9nothrow_t
0000000000000000      D  *UND*	0000000000000000 strnlen
0000000000000000      D  *UND*	0000000000000000 _ZN2nn2os15WaitSystemEventEPNS0_15SystemEventTypeE
0000000000000000      D  *UND*	0000000000000000 _ZN2nn2os18DestroySystemEventEPNS0_15SystemEventTypeE
0000000000000000      D  *UND*	0000000000000000 _ZN2nn2os33AttachReadableHandleToSystemEventEPNS0_15SystemEventTypeEjbNS0_14EventClearModeE
0000000000000000      D  *UND*	0000000000000000 _ZN7android22IGraphicBufferConsumer10BufferItemC1Ev
0000000000000000      D  *UND*	0000000000000000 _ZN7android5Fence11waitForeverEPKc
0000000000000000      D  *UND*	0000000000000000 _ZN7android5Fence8NO_FENCEE
0000000000000000      D  *UND*	0000000000000000 _ZN7android5FenceD1Ev
0000000000000000      D  *UND*	0000000000000000 android_atomic_dec
0000000000000000      D  *UND*	0000000000000000 _ZNK7android7RefBase14getStrongCountEv
0000000000000000      D  *UND*	0000000000000000 sqrtf
0000000000000000      D  *UND*	0000000000000000 _ZN7android6Parcel8freeDataEv
0000000000000000      D  *UND*	0000000000000000 _ZN7android13GraphicBuffer4lockEjPPv
0000000000000000      D  *UND*	0000000000000000 _ZN7android13GraphicBuffer6unlockEv
0000000000000000      D  *UND*	0000000000000000 _ZN7android13GraphicBufferC1EP19ANativeWindowBufferb
0000000000000000      D  *UND*	0000000000000000 _ZNK7android13GraphicBuffer15getNativeBufferEv
0000000000000000      D  *UND*	0000000000000000 androidGetTid
0000000000000000      D  *UND*	0000000000000000 nvgr_put_read_fence
0000000000000000      D  *UND*	0000000000000000 _ZN7android7String8C1ERKNS_8String16E
0000000000000000      D  *UND*	0000000000000000 _ZNK7android6Parcel12readString16Ev
0000000000000000      D  *UND*	0000000000000000 _ZNK7android6Parcel18readFileDescriptorEv
0000000000000000      D  *UND*	0000000000000000 _ZN2nn2fs11GetFileSizeEPlNS0_10FileHandleE
0000000000000000      D  *UND*	0000000000000000 _ZN2nn2fs8OpenFileEPNS0_10FileHandleEPKci
0000000000000000      D  *UND*	0000000000000000 _ZN2nn2fs8ReadFileEPmNS0_10FileHandleElPvm
0000000000000000      D  *UND*	0000000000000000 _ZN2nn2fs9CloseFileENS0_10FileHandleE
0000000000000000      D  *UND*	0000000000000000 _ZN7android7String86formatEPKcz
0000000000000000      D  *UND*	0000000000000000 fdopen
0000000000000000      D  *UND*	0000000000000000 _ZN7android7String85clearEv
0000000000000000      D  *UND*	0000000000000000 _ZN7android7String8C1EPKDsm
0000000000000000      D  *UND*	0000000000000000 gmtime
0000000000000000      D  *UND*	0000000000000000 strftime
0000000000000000      D  *UND*	0000000000000000 _ZN2nn2os10WaitThreadEPNS0_10ThreadTypeE
0000000000000000      D  *UND*	0000000000000000 _ZN2nn2os11StartThreadEPNS0_10ThreadTypeE
0000000000000000      D  *UND*	0000000000000000 _ZN2nn2os12CreateThreadEPNS0_10ThreadTypeEPFvPvES3_S3_mi
0000000000000000      D  *UND*	0000000000000000 _ZN2nn2os13DestroyThreadEPNS0_10ThreadTypeE
0000000000000000      D  *UND*	0000000000000000 _ZN2nn2os13SetThreadNameEPNS0_10ThreadTypeEPKc
0000000000000000      D  *UND*	0000000000000000 strlcpy
0000000000000000      D  *UND*	0000000000000000 _ZnwmRKSt9nothrow_t
0000000000000000      D  *UND*	0000000000000000 putchar
0000000000000000      D  *UND*	0000000000000000 puts
0000000000000000      D  *UND*	0000000000000000 sched_yield
0000000000000000      D  *UND*	0000000000000000 NvBlit
0000000000000000      D  *UND*	0000000000000000 NvBlitClose
0000000000000000      D  *UND*	0000000000000000 NvBlitOpen
0000000000000000      D  *UND*	0000000000000000 NvOsGetCurrentAllocator
0000000000000000      D  *UND*	0000000000000000 _ZN7android13GraphicBufferC1EjjijjP13native_handleb
0000000000000000      D  *UND*	0000000000000000 _ZN7android21SurfaceComposerClient13createDisplayERKNS_7String8Eb
0000000000000000      D  *UND*	0000000000000000 _ZN7android21SurfaceComposerClient14setDisplaySizeERKNS_2spINS_7IBinderEEEjj
0000000000000000      D  *UND*	0000000000000000 _ZN7android21SurfaceComposerClient17getDisplaySurfaceERKNS_2spINS_7IBinderEEERNS1_INS_22IGraphicBufferProducerEEERNS1_INS_22IGraphicBufferConsumerEEE
0000000000000000      D  *UND*	0000000000000000 _ZN7android21SurfaceComposerClient21openGlobalTransactionEv
0000000000000000      D  *UND*	0000000000000000 _ZN7android21SurfaceComposerClient22closeGlobalTransactionEb
0000000000000000      D  *UND*	0000000000000000 _ZN7android21SurfaceComposerClientC1Ev
0000000000000000      D  *UND*	0000000000000000 nvgr_alloc_ext
0000000000000000      D  *UND*	0000000000000000 nvgr_import_nvrmsurface
0000000000000000      D  *UND*	0000000000000000 nvgr_set_shadow_memory
0000000000000000      D  *UND*	0000000000000000 nvnBootstrapLoader
0000000000000000      D  *UND*	0000000000000000 _ZN2nn2os17SetThreadCoreMaskEPNS0_10ThreadTypeEim
0000000000000000      D  *UND*	0000000000000000 _ZN2nn2os20ChangeThreadPriorityEPNS0_10ThreadTypeEi
0000000000000000      D  *UND*	0000000000000000 _ZN7android11IMemoryHeap10descriptorE
0000000000000000      D  *UND*	0000000000000000 _ZN7android11IMemoryHeapD0Ev
0000000000000000      D  *UND*	0000000000000000 _ZN7android11IMemoryHeapD1Ev
0000000000000000      D  *UND*	0000000000000000 _ZN7android11IMemoryHeapD2Ev
0000000000000000      D  *UND*	0000000000000000 _ZN7android12BnMemoryHeap10onTransactEjRKNS_6ParcelEPS1_j
0000000000000000      D  *UND*	0000000000000000 _ZN7android12BnMemoryHeapC2Ev
0000000000000000      D  *UND*	0000000000000000 _ZN7android12BnMemoryHeapD0Ev
0000000000000000      D  *UND*	0000000000000000 _ZN7android12BnMemoryHeapD1Ev
0000000000000000      D  *UND*	0000000000000000 _ZN7android12BnMemoryHeapD2Ev
0000000000000000      D  *UND*	0000000000000000 _ZNK7android11IMemoryHeap22getInterfaceDescriptorEv
0000000000000000      D  *UND*	0000000000000000 _ZTIN7android11IMemoryHeapE
0000000000000000      D  *UND*	0000000000000000 _ZTIN7android12BnMemoryHeapE
0000000000000000      D  *UND*	0000000000000000 _ZThn8_N7android12BnMemoryHeap10onTransactEjRKNS_6ParcelEPS1_j
0000000000000000      D  *UND*	0000000000000000 _ZThn8_N7android12BnMemoryHeapD0Ev
0000000000000000      D  *UND*	0000000000000000 _ZThn8_N7android12BnMemoryHeapD1Ev
0000000000000000      D  *UND*	0000000000000000 _ZTv0_n24_N7android11IMemoryHeapD0Ev
0000000000000000      D  *UND*	0000000000000000 _ZTv0_n24_N7android11IMemoryHeapD1Ev
0000000000000000      D  *UND*	0000000000000000 _ZTv0_n24_N7android12BnMemoryHeapD0Ev
0000000000000000      D  *UND*	0000000000000000 _ZTv0_n24_N7android12BnMemoryHeapD1Ev
0000000000000000      D  *UND*	0000000000000000 _ZN7android11BufferQueue17createBufferQueueEPNS_2spINS_22IGraphicBufferProducerEEEPNS1_INS_22IGraphicBufferConsumerEEERKNS1_INS_19IGraphicBufferAllocEEE
0000000000000000      D  *UND*	0000000000000000 _ZN7android11BufferQueue21ProxyConsumerListenerC1ERKNS_2wpINS_16ConsumerListenerEEE
0000000000000000      D  *UND*	0000000000000000 pthread_attr_destroy
0000000000000000      D  *UND*	0000000000000000 pthread_attr_init
0000000000000000      D  *UND*	0000000000000000 pthread_attr_setschedparam
0000000000000000      D  *UND*	0000000000000000 pthread_create
0000000000000000      D  *UND*	0000000000000000 pthread_join
0000000000000000      D  *UND*	0000000000000000 isalpha
0000000000000000      D  *UND*	0000000000000000 rand_r
0000000000000000      D  *UND*	0000000000000000 android_atomic_inc
0000000000000000      D  *UND*	0000000000000000 lseek
0000000000000000      D  *UND*	0000000000000000 open
0000000000000000      D  *UND*	0000000000000000 _ZN7android14SurfaceControl11setPositionEff
0000000000000000      D  *UND*	0000000000000000 _ZN7android14SurfaceControl4showEv
0000000000000000      D  *UND*	0000000000000000 _ZN7android14SurfaceControl5clearEv
0000000000000000      D  *UND*	0000000000000000 _ZN7android14SurfaceControl7setSizeEjj
0000000000000000      D  *UND*	0000000000000000 _ZN7android21SurfaceComposerClient13createSurfaceERKNS_7String8Ejjij
0000000000000000      D  *UND*	0000000000000000 _ZN7android21SurfaceComposerClient7disposeEv
0000000000000000      D  *UND*	0000000000000000 _ZNK7android14SurfaceControl10getSurfaceEv
0000000000000000      D  *UND*	0000000000000000 _ZNK7android7Surface25getIGraphicBufferProducerEv
0000000000000000      D  *UND*	0000000000000000 _ZN2nn5audio12StopAudioOutEPNS0_8AudioOutE
0000000000000000      D  *UND*	0000000000000000 _ZN2nn5audio13CloseAudioOutEPNS0_8AudioOutE
0000000000000000      D  *UND*	0000000000000000 _ZN2nn5audio13StartAudioOutEPNS0_8AudioOutE
0000000000000000      D  *UND*	0000000000000000 _ZN2nn5audio19OpenDefaultAudioOutEPNS0_8AudioOutERKNS0_17AudioOutParameterE
0000000000000000      D  *UND*	0000000000000000 _ZN2nn5audio20AppendAudioOutBufferEPNS0_8AudioOutEPNS0_14AudioOutBufferE
0000000000000000      D  *UND*	0000000000000000 _ZN2nn5audio21GetAudioOutSampleRateEPKNS0_8AudioOutE
0000000000000000      D  *UND*	0000000000000000 _ZN2nn5audio21SetAudioOutBufferInfoEPNS0_14AudioOutBufferEPvmm
0000000000000000      D  *UND*	0000000000000000 _ZN2nn5audio23GetAudioOutChannelCountEPKNS0_8AudioOutE
0000000000000000      D  *UND*	0000000000000000 _ZN2nn5audio23GetAudioOutSampleFormatEPKNS0_8AudioOutE
0000000000000000      D  *UND*	0000000000000000 _ZN2nn5audio25GetAudioOutBufferDataSizeEPKNS0_14AudioOutBufferE
0000000000000000      D  *UND*	0000000000000000 _ZN2nn5audio25GetReleasedAudioOutBufferEPNS0_8AudioOutE
0000000000000000      D  *UND*	0000000000000000 _ZN2nn5audio27InitializeAudioOutParameterEPNS0_17AudioOutParameterE
0000000000000000      D  *UND*	0000000000000000 _ZN2nn5audio28GetAudioOutBufferDataPointerEPKNS0_14AudioOutBufferE
0000000000000000      D  *UND*	0000000000000000 _ZN7android14SurfaceControl8setLayerEi
0000000000000000      D  *UND*	0000000000000000 _ZN7android21SurfaceComposerClient14getDisplayInfoERKNS_2spINS_7IBinderEEEPNS_11DisplayInfoE
0000000000000000      D  *UND*	0000000000000000 _ZN7android21SurfaceComposerClient17getBuiltInDisplayEi
0000000000000000      D  *UND*	0000000000000000 _ZNK7android21SurfaceComposerClient9initCheckEv
0000000000000000      D  *UND*	0000000000000000 _ZN2nn2os12TryLockMutexEPNS0_9MutexTypeE
0000000000000000      D  *UND*	0000000000000000 _ZN2nn5audio17GetSampleByteSizeENS0_12SampleFormatE
0000000000000000      D  *UND*	0000000000000000 _ZN2nn5audio19InitializeResamplerEPNS0_13ResamplerTypeEPvmiii
0000000000000000      D  *UND*	0000000000000000 _ZN2nn5audio22ProcessResamplerBufferEPNS0_13ResamplerTypeEPiPsmPKsi
0000000000000000      D  *UND*	0000000000000000 _ZN2nn5audio28GetAudioOutPlayedSampleCountEPKNS0_8AudioOutE
0000000000000000      D  *UND*	0000000000000000 _ZN2nn5audio33GetRequiredBufferSizeForResamplerEi
0000000000000000      D  *UND*	0000000000000000 _ZN2nn2os11SignalEventEPNS0_9EventTypeE
0000000000000000      D  *UND*	0000000000000000 _ZN2nn3err21ReportMultimediaErrorENS_6ResultERKN5movie25MultimediaTelemetryReportE
0000000000000000      D  *UND*	0000000000000000 _ZNKSt3__121__basic_string_commonILb1EE20__throw_length_errorEv
0000000000000000      D  *UND*	0000000000000000 _ZNSt3__111__call_onceERVmPvPFvS2_E
0000000000000000      D  *UND*	0000000000000000 _ZNSt3__112basic_stringIcNS_11char_traitsIcEENS_9allocatorIcEEEC1ERKS5_
0000000000000000      D  *UND*	0000000000000000 _ZN2nn4util11ReferSymbolEPKv
0000000000000000      D  *UND*	0000000000000000 _ZN7android11BufferQueue23createBufferQueueForAppEPNS_2spINS_22IGraphicBufferProducerEEEPNS1_INS_22IGraphicBufferConsumerEEERKNS1_INS_19IGraphicBufferAllocEEEi
0000000000000000      D  *UND*	0000000000000000 _ZN7android12ConsumerBase13abandonLockedEv
0000000000000000      D  *UND*	0000000000000000 _ZN7android12ConsumerBase15onLastStrongRefEPKv
0000000000000000      D  *UND*	0000000000000000 _ZN7android12ConsumerBase16freeBufferLockedEi
0000000000000000      D  *UND*	0000000000000000 _ZN7android12ConsumerBase16onFrameAvailableERKNS_10BufferItemE
0000000000000000      D  *UND*	0000000000000000 _ZN7android12ConsumerBase17onBuffersReleasedEv
0000000000000000      D  *UND*	0000000000000000 _ZN7android12ConsumerBase19acquireBufferLockedEPNS_22IGraphicBufferConsumer10BufferItemEl
0000000000000000      D  *UND*	0000000000000000 _ZN7android12ConsumerBase19releaseBufferLockedEiNS_2spINS_13GraphicBufferEEEPvS4_
0000000000000000      D  *UND*	0000000000000000 _ZN7android12ConsumerBase23onSidebandStreamChangedEv
0000000000000000      D  *UND*	0000000000000000 _ZN7android12ConsumerBaseC2ERKNS_2spINS_22IGraphicBufferConsumerEEEb
0000000000000000      D  *UND*	0000000000000000 _ZN7android12ConsumerBaseD0Ev
0000000000000000      D  *UND*	0000000000000000 _ZN7android12ConsumerBaseD1Ev
0000000000000000      D  *UND*	0000000000000000 _ZN7android12ConsumerBaseD2Ev
0000000000000000      D  *UND*	0000000000000000 _ZN7android18GraphicBufferAlloc19createGraphicBufferEjjijPi
0000000000000000      D  *UND*	0000000000000000 _ZN7android18GraphicBufferAllocC2Ev
0000000000000000      D  *UND*	0000000000000000 _ZN7android18GraphicBufferAllocD0Ev
0000000000000000      D  *UND*	0000000000000000 _ZN7android18GraphicBufferAllocD1Ev
0000000000000000      D  *UND*	0000000000000000 _ZN7android18GraphicBufferAllocD2Ev
0000000000000000      D  *UND*	0000000000000000 _ZN7android19IGraphicBufferAlloc10descriptorE
0000000000000000      D  *UND*	0000000000000000 _ZN7android19IGraphicBufferAllocD0Ev
0000000000000000      D  *UND*	0000000000000000 _ZN7android19IGraphicBufferAllocD1Ev
0000000000000000      D  *UND*	0000000000000000 _ZN7android19IGraphicBufferAllocD2Ev
0000000000000000      D  *UND*	0000000000000000 _ZN7android20BnGraphicBufferAlloc10onTransactEjRKNS_6ParcelEPS1_j
0000000000000000      D  *UND*	0000000000000000 _ZNK7android12ConsumerBase10dumpLockedERNS_7String8EPKc
0000000000000000      D  *UND*	0000000000000000 _ZNK7android19IGraphicBufferAlloc22getInterfaceDescriptorEv
0000000000000000      D  *UND*	0000000000000000 _ZNK7android5Fence3dupEv
0000000000000000      D  *UND*	0000000000000000 _ZTTN7android20BnGraphicBufferAllocE
0000000000000000      D  *UND*	0000000000000000 _ZThn8_N7android18GraphicBufferAllocD0Ev
0000000000000000      D  *UND*	0000000000000000 _ZThn8_N7android18GraphicBufferAllocD1Ev
0000000000000000      D  *UND*	0000000000000000 _ZThn8_N7android20BnGraphicBufferAlloc10onTransactEjRKNS_6ParcelEPS1_j
0000000000000000      D  *UND*	0000000000000000 _ZTv0_n24_N7android12ConsumerBaseD0Ev
0000000000000000      D  *UND*	0000000000000000 _ZTv0_n24_N7android12ConsumerBaseD1Ev
0000000000000000      D  *UND*	0000000000000000 _ZTv0_n24_N7android18GraphicBufferAllocD0Ev
0000000000000000      D  *UND*	0000000000000000 _ZTv0_n24_N7android18GraphicBufferAllocD1Ev
0000000000000000      D  *UND*	0000000000000000 _ZTv0_n24_N7android19IGraphicBufferAllocD0Ev
0000000000000000      D  *UND*	0000000000000000 _ZTv0_n24_N7android19IGraphicBufferAllocD1Ev
0000000000000000      D  *UND*	0000000000000000 _ZTv0_n40_N7android12ConsumerBase15onLastStrongRefEPKv
0000000000000000      D  *UND*	0000000000000000 nvgr_get_stride
0000000000000000      D  *UND*	0000000000000000 _ZNKSt3__16locale9use_facetERNS0_2idE
0000000000000000      D  *UND*	0000000000000000 _ZNKSt3__18ios_base6getlocEv
0000000000000000      D  *UND*	0000000000000000 _ZNSt3__112basic_stringIcNS_11char_traitsIcEENS_9allocatorIcEEE6resizeEmc
0000000000000000      D  *UND*	0000000000000000 _ZNSt3__112basic_stringIcNS_11char_traitsIcEENS_9allocatorIcEEE9push_backEc
0000000000000000      D  *UND*	0000000000000000 _ZNSt3__112basic_stringIcNS_11char_traitsIcEENS_9allocatorIcEEEaSERKS5_
0000000000000000      D  *UND*	0000000000000000 _ZNSt3__113basic_istreamIcNS_11char_traitsIcEEED0Ev
0000000000000000      D  *UND*	0000000000000000 _ZNSt3__113basic_istreamIcNS_11char_traitsIcEEED1Ev
0000000000000000      D  *UND*	0000000000000000 _ZNSt3__113basic_ostreamIcNS_11char_traitsIcEEE6sentryC1ERS3_
0000000000000000      D  *UND*	0000000000000000 _ZNSt3__113basic_ostreamIcNS_11char_traitsIcEEE6sentryD1Ev
0000000000000000      D  *UND*	0000000000000000 _ZNSt3__113basic_ostreamIcNS_11char_traitsIcEEED0Ev
0000000000000000      D  *UND*	0000000000000000 _ZNSt3__113basic_ostreamIcNS_11char_traitsIcEEED1Ev
0000000000000000      D  *UND*	0000000000000000 _ZNSt3__113basic_ostreamIcNS_11char_traitsIcEEElsEi
0000000000000000      D  *UND*	0000000000000000 _ZNSt3__113basic_ostreamIcNS_11char_traitsIcEEElsEl
0000000000000000      D  *UND*	0000000000000000 _ZNSt3__114basic_iostreamIcNS_11char_traitsIcEEED0Ev
0000000000000000      D  *UND*	0000000000000000 _ZNSt3__114basic_iostreamIcNS_11char_traitsIcEEED1Ev
0000000000000000      D  *UND*	0000000000000000 _ZNSt3__114basic_iostreamIcNS_11char_traitsIcEEED2Ev
0000000000000000      D  *UND*	0000000000000000 _ZNSt3__115basic_streambufIcNS_11char_traitsIcEEE4syncEv
0000000000000000      D  *UND*	0000000000000000 _ZNSt3__115basic_streambufIcNS_11char_traitsIcEEE5imbueERKNS_6localeE
0000000000000000      D  *UND*	0000000000000000 _ZNSt3__115basic_streambufIcNS_11char_traitsIcEEE5uflowEv
0000000000000000      D  *UND*	0000000000000000 _ZNSt3__115basic_streambufIcNS_11char_traitsIcEEE6setbufEPcl
0000000000000000      D  *UND*	0000000000000000 _ZNSt3__115basic_streambufIcNS_11char_traitsIcEEE6xsgetnEPcl
0000000000000000      D  *UND*	0000000000000000 _ZNSt3__115basic_streambufIcNS_11char_traitsIcEEE6xsputnEPKcl
0000000000000000      D  *UND*	0000000000000000 _ZNSt3__115basic_streambufIcNS_11char_traitsIcEEE9showmanycEv
0000000000000000      D  *UND*	0000000000000000 _ZNSt3__115basic_streambufIcNS_11char_traitsIcEEEC2Ev
0000000000000000      D  *UND*	0000000000000000 _ZNSt3__115basic_streambufIcNS_11char_traitsIcEEED2Ev
0000000000000000      D  *UND*	0000000000000000 _ZNSt3__15ctypeIcE2idE
0000000000000000      D  *UND*	0000000000000000 _ZNSt3__16localeD1Ev
0000000000000000      D  *UND*	0000000000000000 _ZNSt3__18ios_base4initEPv
0000000000000000      D  *UND*	0000000000000000 _ZNSt3__18ios_base5clearEj
0000000000000000      D  *UND*	0000000000000000 _ZNSt3__19basic_iosIcNS_11char_traitsIcEEED2Ev
0000000000000000      D  *UND*	0000000000000000 _ZThn16_NSt3__114basic_iostreamIcNS_11char_traitsIcEEED0Ev
0000000000000000      D  *UND*	0000000000000000 _ZThn16_NSt3__114basic_iostreamIcNS_11char_traitsIcEEED1Ev
0000000000000000      D  *UND*	0000000000000000 _ZTv0_n24_NSt3__113basic_istreamIcNS_11char_traitsIcEEED0Ev
0000000000000000      D  *UND*	0000000000000000 _ZTv0_n24_NSt3__113basic_istreamIcNS_11char_traitsIcEEED1Ev
0000000000000000      D  *UND*	0000000000000000 _ZTv0_n24_NSt3__113basic_ostreamIcNS_11char_traitsIcEEED0Ev
0000000000000000      D  *UND*	0000000000000000 _ZTv0_n24_NSt3__113basic_ostreamIcNS_11char_traitsIcEEED1Ev
0000000000000000      D  *UND*	0000000000000000 _ZTv0_n24_NSt3__114basic_iostreamIcNS_11char_traitsIcEEED0Ev
0000000000000000      D  *UND*	0000000000000000 _ZTv0_n24_NSt3__114basic_iostreamIcNS_11char_traitsIcEEED1Ev
0000000000000000      D  *UND*	0000000000000000 _ZN2nn2sf4hipc15SendSyncRequestENS_3svc6HandleEPvm
0000000000000000      D  *UND*	0000000000000000 _ZN2nn2sf4hipc20ConnectToHipcServiceEPNS_3svc6HandleEPKc
0000000000000000      D  *UND*	0000000000000000 _ZN2nn2sf4hipc21GetMessageBufferOnTlsEv
0000000000000000      D  *UND*	0000000000000000 _ZN2nn2sf4hipc24CloseClientSessionHandleENS_3svc6HandleE
0000000000000000      D  *UND*	0000000000000000 _ZN2nn2sf4hipc29FinalizeHipcServiceResolutionEv
0000000000000000      D  *UND*	0000000000000000 _ZN2nn2sf4hipc31InitializeHipcServiceResolutionEv
0000000000000000      D  *UND*	0000000000000000 _ZN2nn2sf4hipc6detail25HipcMessageBufferAccessor11SetupHeaderEPvmRKNS2_21HipcMessageHeaderInfoE
0000000000000000      D  *UND*	0000000000000000 _ZN2nn2sf4hipc6detail25HipcMessageBufferAccessor6SetTagEt
0000000000000000      D  *UND*	0000000000000000 _ZN2nn2sf4impl6detail22ServiceObjectImplBase211ReleaseImplEv
0000000000000000      D  *UND*	0000000000000000 _ZN2nn2sf4impl6detail22ServiceObjectImplBase216AddReferenceImplEv
0000000000000000      D  *UND*	0000000000000000 _ZN2nn4lmem13CreateExpHeapEPvmi
0000000000000000      D  *UND*	0000000000000000 _ZN2nn4lmem13FreeToExpHeapEPNS0_6detail8HeapHeadEPv
0000000000000000      D  *UND*	0000000000000000 _ZN2nn4lmem19AllocateFromExpHeapEPNS0_6detail8HeapHeadEm
00000000000f2cd0 g    DF .text	000000000000025c _Z29Hcr_State_BODY_SIGN_ESC__BODYP13FDK_BITSTREAMPv
000000000059e4c0 g    DO .data	0000000000000018 _ZTIN7android8NuPlayer13GenericSourceE
00000000005a7288  w   DO .data	0000000000000020 _ZTVN7android4ListIlEE
0000000000132448 g    DF .text	0000000000000008 FDKceil
00000000002558e0  w   DF .text	0000000000000080 _ZN7android4ListINS_8HTTPBase14BandwidthEntryEED2Ev
0000000000233350 g    DF .text	0000000000000040 _ZThn16_N7android6ACodec12signalResumeEv
0000000000243978 g    DF .text	0000000000000378 _ZN7android9AMRSource4readEPPNS_11MediaBufferEPKNS_11MediaSource11ReadOptionsE
00000000000ed8a0 g    DF .text	000000000000002c _Z11FreeDrcInfoPP8CDrcInfo
0000000000232398 g    DF .text	00000000000000b0 _ZN7android9AACSource5startEPNS_8MetaDataE
00000000005a7328 g    DO .data	0000000000000008 _ZN7android24MEDIA_MIMETYPE_VIDEO_VP9E
0000000000255c90 g    DF .text	0000000000000008 _ZN7android18CurlHttpConnection7connectEPKcPKNS_11KeyedVectorINS_7String8ES4_EEl
0000000000257af0  w   DF .text	0000000000000004 _ZN7android9SingletonINS_10MediaCodec15BatteryNotifierEEC1Ev
00000000000deaa0 g    DF .text	000000000000002c TVMRVideoMixerSetAttributes
000000000010f18c g    DF .text	0000000000000050 _Z24AudioSpecificConfig_InitP21CSAudioSpecificConfig
00000000002c7ab4 g    DF .text	0000000000000130 _ZN7android8EbmlVoidC1Em
00000000002d076c g    DF .text	0000000000000004 _ZN5movie5CodecD1Ev
0000000000058920 g    DF .text	0000000000000338 jpegTegraEncoderSurfaceCheck
000000000051bdf0  w   DO .rodata	0000000000000057 _ZTSZN7android14ReferenceMover15move_referencesINS_7ABufferEEEvPNS_2spIT_EEPKS5_mE7Renamer
00000000005a55d0 g    DO .data	0000000000000018 _ZTIN7android13AwesomePlayerE
0000000000275f30  w   DF .text	000000000000008c _ZNK7android6VectorINS_9SidxEntryEE7do_copyEPvPKvm
0000000000285084  w   DF .text	00000000000000a0 _ZNK7android6VectorINS_16NuMediaExtractor9TrackInfoEE16do_move_backwardEPvPKvm
000000000059fdf8 g    DO .data	0000000000000048 _ZTVN7android11LiveSessionE
000000000051de50  w   DO .rodata	0000000000000023 _ZTSN7android4ListINS_11omx_messageEEE
00000000002cb554 g    DF .text	0000000000000014 _ZN5movie8nnPlayer18SignalSetVideoSizeEii
00000000002e6cc0 g    DF .text	00000000000001b0 _ZN5movie11DecoderImpl13ConvertToArgbEPhiiPKhS3_S3_Pi
000000000017ca10  w   DF .text	0000000000000024 _ZN7android2spINS_11AudioSystem24AudioPolicyServiceClientEED2Ev
0000000000190e90 g    DF .text	0000000000000008 _ZN7android15IStreamListenerD2Ev
00000000001b85cc  w   DF .text	0000000000000018 _ZZN7android14ReferenceMover15move_referencesINS_7ABufferEEEvPNS_2spIT_EEPKS5_mENK7RenamerclEm
0000000000185c78  w   DF .text	0000000000000024 _ZN7android5ProxyD0Ev
00000000001117cc g    DF .text	0000000000000124 _Z21transportDec_FillDataP12TRANSPORTDECPhjPji
000000000058ec20 g    DO .data	0000000000000108 _ZTCN7android26BnAudioPolicyServiceClientE8_NS_7IBinderE
0000000000177bc0  w   DF .text	0000000000000050 _ZTv0_n24_N7android11BnInterfaceINS_13IEffectClientEED0Ev
000000000018d68c  w   DF .text	0000000000000008 _ZNK7android16BpMediaCodecList11countCodecsEv
00000000002418d8 g    DF .text	0000000000000378 _ZN7android6ACodec13FlushingState10onOMXEventE13OMX_EVENTTYPEjj
00000000002a3950 g    DF .text	0000000000000078 _ZN7android9WAVSource4stopEv
00000000001f2924 g    DF .text	000000000000008c _ZN7android15PlaylistFetcher9stopAsyncEb
00000000002955a0 g    DF .text	000000000000007c _ZN7android8OMXCodec28findInputBufferByDataPointerEPv
00000000001f6ce0 g    DF .text	0000000000000414 _ZN7android3ID37parseV2ERKNS_2spINS_10DataSourceEEEl
00000000005a83c0  w   DO .data	0000000000000028 _ZTIN7android6VectorINS_14MPEG4Extractor8PsshInfoEEE
00000000002b4ca0 g    DF .text	0000000000000018 _ZNK9mkvparser10VideoTrack15GetDisplayWidthEv
000000000018e398 g    DF .text	000000000000003c _ZTv0_n24_N7android18IMediaPlayerClientD1Ev
00000000005af6a0  w   DO .data	0000000000000080 _ZTVNSt3__115basic_stringbufIcNS_11char_traitsIcEENS_9allocatorIcEEEE
00000000002ad9a4 g    DF .text	0000000000000018 _ZN9mkvparser4CuesC2EPNS_7SegmentExxxx
00000000002dc7e8 g    DF .text	0000000000000250 _ZN5movie16NnCodecAudioSinkD1Ev
000000000027b1d8 g    DF .text	00000000000000fc _ZN7android11MPEG4Writer16writeChunkToFileEPNS0_5ChunkE
00000000000bf180 g    DF .text	00000000000000c8 video_parser_flush
00000000001d7d7c g    DF .text	000000000000003c _ZN7android8NuPlayer8Renderer30cancelAudioOffloadPauseTimeoutEv
0000000000132438 g    DF .text	0000000000000004 FDKacos
00000000002980a0  w   DF .text	000000000000003c _ZN7android6VectorINS_8OMXCodec10BufferInfoEED0Ev
00000000001db6a0 g    DF .text	000000000000012c _ZN7android10ABitReader7putBitsEjm
00000000002cb570 g    DF .text	0000000000000008 _ZN5movie8nnPlayer15GetPlaybackRateEPNS_12PlaybackRateE
000000000018f884  w   DF .text	0000000000000050 _ZTv0_n24_N7android5BnOMXD0Ev
0000000000277a7c g    DF .text	00000000000000f8 _ZN7android11MPEG4Writer11startTracksEPNS_8MetaDataE
00000000005018a0 g    DO .rodata	000000000000001b _ZTSN7android14SoftAACEncoderE
00000000001c9300 g    DF .text	000000000000033c _ZN7android8NuPlayer7onStartEv
0000000000263e4c g    DF .text	000000000000026c _ZN7android16MediaCodecSource23feedEncoderInputBuffersEv
00000000000eb04c g    DF .text	0000000000000010 _ZNK7android8SoftAAC212isConfiguredEv
0000000000154dec g    DF .text	0000000000000074 DecodeUserData
00000000005ae600 g    DO .data	0000000000000030 _ZTTN5movie15NnCodecConsumerE
00000000002950a4 g    DF .text	00000000000000e4 _ZN7android8OMXCodec17drainInputBuffersEv
00000000002cb7e0 g    DF .text	0000000000000008 _ZNK11nnAudioSink12getSessionIdEv
0000000000185354 g    DF .text	0000000000000018 _ZN7android27StaticAudioTrackClientProxy5flushEv
000000000027debc g    DF .text	00000000000003f4 _ZN7android11MPEG4Writer5Track19writeAudioFourCCBoxEv
000000000001402c g    DF .text	0000000000000060 NvMemAlloc
0000000000187628  w   DF .text	0000000000000048 _ZThn8_N7android14BnAudioFlingerD1Ev
00000000001db2cc g    DF .text	0000000000000004 _ZN7android10ABitReaderD0Ev
00000000005a7440 g    DO .data	0000000000000008 _ZN7android28MEDIA_MIMETYPE_CONTAINER_AVIE
00000000002524b4  w   DF .text	0000000000000058 _ZNK7android6VectorINS_13AwesomePlayer9TrackStatEE8do_splatEPvPKvm
0000000000281004 g    DF .text	0000000000000120 _ZN7android15NuCachedSource26CreateERKNS_2spINS_10DataSourceEEEPKcbPN5movie14PlayerObserverE
000000000017c020 g    DF .text	000000000000009c _ZN7android11AudioSystem19getOutputFrameCountEPm19audio_stream_type_t
000000000018f95c  w   DF .text	0000000000000008 _ZN7android11BnInterfaceINS_12IOMXObserverEE10onAsBinderEv
00000000002ab5ac g    DF .text	00000000000000cc _ZN9mkvparser4Tags5ParseEv
00000000002eb7d4 g    DF .text	0000000000000010 _ZNK5movie6Buffer4DataEv
0000000000517900 g    DO .rodata	0000000000000014 _ZTSN7android8BnEffectE
00000000002d5bac g    DF .text	00000000000000bc _ZN5movie13NnCodecPlayer16GetBufferedRangeEPfS1_
000000000018d604  w   DF .text	0000000000000040 _ZN7android16BpMediaCodecListD1Ev
00000000001bb028 g    DF .text	0000000000000760 _ZN7android25AMPEG4ElementaryAssemblerC1ERKNS_2spINS_8AMessageEEERKNS_7AStringES8_
00000000000cce3c g    DF .text	0000000000000dd0 TVMRVideoSurfaceCreate
0000000000589b68  w   DO .data	0000000000000058 _ZTVN7android12SortedVectorINS_16key_value_pair_tIiPNS_11AudioSystem16OutputDescriptorEEEEE
0000000000517af0  w   DO .rodata	000000000000003d _ZTSN7android12SortedVectorINS_2wpINS_19IMediaDeathNotifierEEEEE
0000000000197b94 g    DF .text	000000000000004c _ZN7android9SoundPool4quitEv
00000000001fb314 g    DF .text	0000000000000024 _ZN7android9ATSParser6StreamD0Ev
0000000000201fe4  w   DF .text	0000000000000004 _ZNK7android12SortedVectorINS_16key_value_pair_tIjjEEE12do_constructEPvm
0000000000279110 g    DF .text	0000000000000134 _ZN7android11MPEG4Writer5Track16writeTrackHeaderEb
0000000000190188  w   DF .text	0000000000000008 _ZN7android5BpOMX17setInternalOptionEjjNS_4IOMX18InternalOptionTypeEPKvm
000000000029ef84 g    DF .text	000000000000013c _ZN7android18SurfaceMediaSource20signalBufferReturnedEPNS_11MediaBufferE
0000000000177ea4  w   DF .text	000000000000004c _ZThn32_N7android11AudioEffect12EffectClientD1Ev
0000000000265d28 g    DF .text	0000000000000004 _ZN7android11MediaSourceD2Ev
00000000001e272c g    DF .text	0000000000000014 _ZN7android7AString6insertERKS0_m
00000000005a5cd8  w   DO .data	0000000000000020 _ZTVN7android4ListINS_8HTTPBase14BandwidthEntryEEE
00000000002d6738 g    DF .text	0000000000000028 _ZN5movie13NnCodecPlayer10SetLoopingEb
00000000002e5f9c g    DF .text	0000000000000060 _ZN5movie11DecoderImpl5StartEv
00000000001bf4c4  w   DF .text	0000000000000054 _ZNK7android6VectorINS_11KeyedVectorINS_7AStringES2_EEE12do_constructEPvm
00000000002882cc g    DF .text	0000000000000030 _ZNK7android6MuxOMX13isLocalNode_lEj
0000000000170a5c g    DF .text	0000000000000110 vorbis_book_decodev_set
00000000001d8514 g    DF .text	000000000000003c _ZN7android8NuPlayer15StreamingSource8setErrorEi
000000000020f7f0 g    DF .text	0000000000000194 _ZN7android16SoftOMXComponentC2EPKcPK16OMX_CALLBACKTYPEPvPP17OMX_COMPONENTTYPE
00000000002cdef4 g    DF .text	0000000000000098 _ZN5movie12HLSExtractorC2Ev
00000000005a4a20  w   DO .data	0000000000000018 _ZTIN7android13CodecObserverE
00000000002d73e8  w   DF .text	0000000000000004 _ZN5movie18AudioCodecCallbackD0Ev
0000000000585928  w   DO .data	0000000000000050 _ZTVN7android6VectorINS_22SimpleSoftOMXComponent10BufferInfoEEE
00000000000ff878 g    DF .text	00000000000000fc _Z18CRvlc_ElementCheckPP22CAacDecoderChannelInfoPP28CAacDecoderStaticChannelInfoji
00000000001f96d8 g    DF .text	0000000000000070 _ZN7android19AnotherPacketSource9signalEOSEi
0000000000208c8c g    DF .text	0000000000000004 _ZN7android9OMXMaster15addVendorPluginEv
000000000018a824  w   DF .text	0000000000000050 _ZThn8_N7android20BpAudioFlingerClientD0Ev
00000000005183c0  w   DO .rodata	0000000000000021 _ZTSN7android20MediaPlayerInterfaceE
00000000002a3fac g    DF .text	0000000000000068 _ZN7android12WVMExtractorC1ERKNS_2spINS_10DataSourceEEE
00000000002e20b4 g    DF .text	000000000000000c _ZN5movie16NnCodecVideoSink11SetObserverEPNS_14PlayerObserverE
000000000013bec0 g    DF .text	0000000000000864 groupShortData
00000000005a4750  w   DO .data	0000000000000098 _ZTCN7android13CodecObserverE0_NS_10IInterfaceE
00000000000ed794 g    DF .text	000000000000000c _Z13GetAacDecoderi
00000000002efc94 g    DF .text	0000000000000090 _ZN2nn4mmnv7Request8FinalizeEv
00000000005917e0  w   DO .data	00000000000000b8 _ZTCN7android14BpEffectClientE0_NS_13IEffectClientE
00000000002d13e4 g    DF .text	0000000000000050 _ZN5movie7NnCodec16QueueInputBufferEiiilj
0000000000178e6c g    DF .text	00000000000000f8 _ZN7android11AudioRecordC1E14audio_source_tj14audio_format_tjmPFviPvS3_ES3_jiNS0_13transfer_typeE19audio_input_flags_tPK18audio_attributes_t
000000000059a640  w   DO .data	0000000000000108 _ZTCN7android11BnInterfaceINS_13IStreamSourceEEE8_NS_7IBinderE
000000000024276c  w   DF .text	0000000000000090 _ZTv0_n24_N7android13CodecObserverD0Ev
00000000002cb6e0 g    DF .text	0000000000000010 _ZNK11nnAudioSink10frameCountEv
00000000001e2c58 g    DF .text	0000000000000090 _ZN7android7AString7tolowerEv
00000000005a34e8  w   DO .data	0000000000000040 _ZTVN7android15TimedTextPlayer11ParcelEventE
0000000000276d84 g    DF .text	000000000000012c _ZN7android11MPEG4WriterC1EPKc
00000000001d86c8 g    DF .text	0000000000000074 _ZN7android8NuPlayer15StreamingSource9getSourceEb
0000000000260184 g    DF .text	0000000000000150 _ZN7android14MediaCodecList27addMediaCodecFromAttributesEbPPKc
0000000000297ea0  w   DF .text	000000000000008c _ZTv0_n24_N7android16OMXCodecObserverD1Ev
0000000000187334  w   DF .text	0000000000000098 _ZN7android11BnInterfaceINS_13IAudioFlingerEE19queryLocalInterfaceERKNS_8String16E
00000000000fd194 g    DF .text	000000000000009c _Z26CConcealment_GetFadeFactorP16CConcealmentInfoi
00000000001caed4 g    DF .text	0000000000000010 _ZN7android8NuPlayer11getFileMetaEv
0000000000213708 g    DF .text	0000000000000160 InitFrame
00000000002422cc  w   DF .text	0000000000000050 _ZTv0_n24_N7android6ACodec13DeathNotifierD1Ev
000000000025236c  w   DF .text	0000000000000034 _ZN7android6VectorINS_13AwesomePlayer9TrackStatEED2Ev
000000000029ae0c g    DF .text	0000000000000018 _ZN7android9SfNvnUtil35FreeResourcesFromNativeBufferHandleEPK13native_handle
00000000004f0488 g    DO .rodata	0000000000000040 aLargestAbsoluteValue
00000000002da2ac g    DF .text	00000000000002a4 _ZN5movie24MakeAVCCodecSpecificDataEjjjPNS_11NnMediaDataE
0000000000208298  w   DF .text	0000000000000034 _ZN7android12SortedVectorINS_16key_value_pair_tIjNS_2spINS_3OMX18CallbackDispatcherEEEEEED2Ev
000000000024b088  w   DF .text	0000000000000080 _ZNK7android6VectorINS_12AVIExtractor5TrackEE7do_copyEPvPKvm
00000000005d5890 g    DO .bss	0000000000000008 _ZN7android19IMediaDeathNotifier19sMediaPlayerServiceE
000000000023bfdc g    DF .text	000000000000003c _ZN7android6ACodec9BaseStateC1EPS0_RKNS_2spINS_6AStateEEE
00000000005ab978 g    DO .data	0000000000000098 _ZTVN7android15TimedEventQueue16PMDeathRecipientE
00000000002e1f7c g    DF .text	000000000000000c _ZN5movie16NnCodecVideoSink29UpdateCurrentPlaybackPositionEl
0000000000133c90 g    DF .text	00000000000005f8 _ZN7android10AACEncoder4readEPPNS_11MediaBufferEPKNS_11MediaSource11ReadOptionsE
000000000059fac8 g    DO .data	0000000000000008 _ZN7android7AString12kEmptyStringE
000000000018f494  w   DF .text	0000000000000008 _ZN7android11BnInterfaceINS_4IOMXEE10onAsBinderEv
0000000000219764 g    DF .text	000000000000008c RCCalculateMAD
000000000050010e g    DO .rodata	0000000000000012 FDK_sbrDecoder_sbr_frame_info2_15
00000000002ba4ac g    DF .text	0000000000000014 _ZN8mkvmuxer7Chapter8set_timeERKNS_7SegmentEyy
00000000002d4714 g    DF .text	0000000000000014 _ZN5movie13NnCodecPlayer19StartInputReceiversEv
0000000000500144 g    DO .rodata	0000000000000012 FDK_sbrDecoder_sbr_frame_info2_16
0000000000145f24 g    DF .text	0000000000000158 _ZN7android9SoftMPEG4C1EPKcS2_20OMX_VIDEO_CODINGTYPEPKNS_17CodecProfileLevelEmPK16OMX_CALLBACKTYPEPvPP17OMX_COMPONENTTYPE
00000000001dc29c g    DF .text	0000000000000040 _ZN7android25AHierarchicalStateMachineD0Ev
00000000000db000 g    DF .text	0000000000000008 TVMRCaptureGetExtraLinesRGB
0000000000197694 g    DF .text	0000000000000250 _ZN7android9SoundPoolC1EiPK18audio_attributes_t
0000000000255cdc g    DF .text	0000000000000008 _ZN7android18CurlHttpConnection7ReceiveEPKcm
00000000001936c8 g    DF .text	0000000000000078 _ZN7android14MediaCodecInfo10addFeatureERKNS_7AStringEi
000000000023ee7c g    DF .text	0000000000000068 _ZN7android6ACodec11LoadedStateC1EPS0_
00000000001e1c98  w   DF .text	000000000000010c _ZN7android10Compare_LTImmEENS_7AStringERKT_RKT0_
000000000019e354 g    DF .text	0000000000000008 XML_SetEndDoctypeDeclHandler
000000000017bbd0 g    DF .text	000000000000009c _ZN7android11AudioSystem13getParametersEiRKNS_7String8E
000000000017eab0  w   DF .text	0000000000000040 _ZN7android26BnAudioPolicyServiceClientD1Ev
000000000059f028  w   DO .data	0000000000000020 _ZTVN7android4ListINS_8NuPlayer8Renderer10QueueEntryEEE
00000000005011ec g    DO .rodata	0000000000000090 aaFractDelayPhaseFactorSerReSubQmf20
00000000002a5138 g    DF .text	0000000000000038 _ZTv0_n24_N7android14MatroskaSourceD1Ev
0000000000598c20 g    DO .data	0000000000000070 _ZTTN7android16BnStreamListenerE
000000000051c820 g    DO .rodata	0000000000000012 _ZTSN7android6AStateE
000000000001547c g    DF .text	00000000000001d4 NvMMLiteBlockOpen
00000000001e32e4 g    DF .text	000000000000003c _ZN7android9AWakeLockC2Ev
0000000000261c5c  w   DF .text	0000000000000018 _ZZN7android14ReferenceMover15move_referencesINS_14MediaCodecInfoEEEvPNS_2spIT_EEPKS5_mENK7RenamerclEm
00000000002ebab0 g    DF .text	0000000000000010 _ZNK5movie9MediaData12CountEntriesEv
00000000002625b4 g    DF .text	00000000000000dc _ZN7android16MediaCodecSource6CreateERKNS_2spINS_7ALooperEEERKNS1_INS_8AMessageEEERKNS1_INS_11MediaSourceEEEj
0000000000598480 g    DO .data	0000000000000178 _ZTCN7android14BnStreamSourceE0_NS_11BnInterfaceINS_13IStreamSourceEEE
000000000025e424 g    DF .text	0000000000000558 _ZN7android10MediaCodec18onQueueInputBufferERKNS_2spINS_8AMessageEEE
00000000004ec700 g    DO .rodata	0000000000000014 _ZTSN7android8SoftAAC2E
0000000000190358  w   DF .text	0000000000000090 _ZN7android4ListINS_7String8EED0Ev
00000000005183a0 g    DO .rodata	000000000000001e _ZTSN7android17StagefrightPlayerE
00000000001dd618  w   DF .text	000000000000006c _ZNK7android12SortedVectorINS_16key_value_pair_tIjNS_2spINS_8AMessageEEEEEE16do_move_backwardEPvPKvm
00000000001f35c4 g    DF .text	0000000000000f20 _ZN7android15PlaylistFetcher14onDownloadNextEv
0000000000177d44  w   DF .text	0000000000000064 _ZN7android11AudioEffect12EffectClient10binderDiedERKNS_2wpINS_7IBinderEEE
00000000001bf3d4  w   DF .text	000000000000006c _ZNK7android12SortedVectorINS_16key_value_pair_tINS_7AStringES2_EEE16do_move_backwardEPvPKvm
00000000005a2728 g    DO .data	0000000000000040 _ZTVN7android9OMXMasterE
00000000002dfc50 g    DF .text	00000000000001b0 _ZN5movie16NnCodecVideoSink10InitializeEPNS_5CodecEiiii
00000000002e5270 g    DF .text	0000000000000150 _ZN5movie11DecoderImpl17DecoderTypeToMimeENS_11DecoderTypeE
00000000002eebe8 g    DF .text	00000000000001d4 _ZNK5movie6detail16AudioSampleTable9as_stringEv
00000000001877e0  w   DF .text	0000000000000008 _ZN7android11BpInterfaceINS_13IAudioFlingerEE10onAsBinderEv
00000000002563e0 g    DF .text	000000000000008c _ZN7android10JPEGSourceD0Ev
00000000002a8900 g    DF .text	00000000000000dc _ZN9mkvparser17UnserializeStringEPNS_10IMkvReaderExxRPc
00000000000dd310 g    DF .text	0000000000000030 TVMROutputSurfaceToVideoSurface
00000000005acd60 g    DO .data	0000000000000028 _ZTIN7android11WebmElementE
00000000002eb84c g    DF .text	0000000000000008 _ZNK5movie6Buffer12GetInt32DataEv
00000000001df1a4 g    DF .text	00000000000000b8 _ZNK7android8AMessage11findPointerEPKcPPv
00000000002e091c g    DF .text	0000000000000154 _ZN5movie16NnCodecVideoSink6AVSyncEPNS_6BufferE
000000000059a360  w   DO .data	0000000000000058 _ZTTN7android11BnInterfaceINS_13IStreamSourceEEE
00000000000001c4 g    DF .text	0000000000000008 NvAvpAudioDisableClocks
000000000017378c g    DF .text	0000000000000ea0 mdct_backward
00000000001e128c g    DF .text	00000000000000fc _ZN7android7AString5setToEPKcm
00000000005a1250 g    DO .data	0000000000000018 _ZTIN7android16MPEG2TSExtractorE
00000000002e485c g    DF .text	0000000000000004 _ZN5movie23BrowserPlayerDataSourceD1Ev
00000000002bacc4 g    DF .text	0000000000000114 _ZNK8mkvmuxer7Chapter7Display12WriteDisplayEPNS_10IMkvWriterE
00000000002eb85c g    DF .text	0000000000000008 _ZNK5movie6Buffer12GetInt64DataEv
0000000000595900 g    DO .data	0000000000000018 _ZTIN7android12IOMXObserverE
00000000001875e0  w   DF .text	0000000000000048 _ZN7android14BnAudioFlingerD0Ev
00000000001e1248 g    DF .text	0000000000000034 _ZN7android7AString5setToEPKc
0000000000520920 g    DO .rodata	000000000000001f _ZTSN7android18CallbackDataSourceE
00000000001bf620  w   DF .text	0000000000000018 _ZNK7android6VectorINS_11KeyedVectorINS_7AStringES2_EEE15do_move_forwardEPvPKvm
00000000002ca550 g    DF .text	0000000000000298 _ZN5movie13BrowserPlayer11CanPlayTypeEPKcS2_
0000000000185ebc g    DF .text	0000000000000038 _ZN7android13IAudioFlingerD0Ev
000000000018d00c  w   DF .text	0000000000000008 _ZN7android11BnInterfaceINS_15IMediaCodecListEE10onAsBinderEv
0000000000267f50 g    DF .text	0000000000000010 _ZN7android12MP3Extractor11countTracksEv
0000000000289000 g    DF .text	00000000000000ac _ZN7android6MuxOMX14allocateBufferEjjmPjPPv
0000000000016aa0 g    DF .text	0000000000000194 OMX_Deinit
000000000059efb0 g    DO .data	0000000000000018 _ZTIN7android14NuPlayerDriverE
0000000000252e9c g    DF .text	0000000000000010 _ZN7android26WindowedLinearFitEstimator9LinearFitC2Ev
000000000029e57c g    DF .text	0000000000000040 _ZTv0_n24_N7android18SurfaceMediaSourceD0Ev
00000000002e0e30 g    DF .text	0000000000000470 _ZN5movie16NnCodecVideoSink21HandleOutputBufferCPUEv
0000000000590a90  w   DO .data	0000000000000118 _ZTCN7android11BnInterfaceINS_7IEffectEEE8_NS_7BBinderE
000000000020917c g    DF .text	00000000000000a4 _ZN7android9OMXMaster24destroyComponentInstanceEP17OMX_COMPONENTTYPE
000000000013c724 g    DF .text	00000000000003d0 BuildInterface
000000000018539c g    DF .text	000000000000009c _ZN7android11ServerProxyC2EPNS_18audio_track_cblk_tEPvmmbb
000000000059e6d0 g    DO .data	0000000000000018 _ZTIN7android8NuPlayerE
00000000005a2818  w   DO .data	0000000000000058 _ZTVN7android12SortedVectorINS_16key_value_pair_tINS_7String8EPNS_13OMXPluginBaseEEEEE
00000000002e19c8 g    DF .text	00000000000000d8 _ZN5movie16NnCodecVideoSink5FlushEv
000000000013e3d4 g    DF .text	0000000000000084 PsyDelete
000000000059f258 g    DO .data	0000000000000010 _ZTIN7android10ABitReaderE
000000000029a7ec g    DF .text	0000000000000008 _ZN7android11SampleTable12setTrackTypeENS0_9TrackTypeE
0000000000155370 g    DF .text	000000000000011c PV_VlcDecMV
0000000000598100 g    DO .data	00000000000000b0 _ZTVN7android15IStreamListenerE
00000000001c2c48 g    DF .text	0000000000000024 _ZN7android8NuPlayer13GenericSource5pauseEv
00000000001938d4  w   DF .text	0000000000000090 _ZN7android14MediaCodecInfoD2Ev
0000000000521400  w   DO .rodata	000000000000002c _ZTSN7android6VectorINS_11MPEG4Source6SampleEEE
00000000001323e8 g    DF .text	0000000000000008 FDKstrncmp
00000000005885c0 g    DO .data	0000000000000020 _ZTTN7android11AudioRecord13DeathNotifierE
0000000000194414 g    DF .text	0000000000000058 _ZN7android22MediaMetadataRetrieverD1Ev
00000000001f2a10 g    DF .text	0000000000000260 _ZN7android15PlaylistFetcher17onMessageReceivedERKNS_2spINS_8AMessageEEE
0000000000279b68 g    DF .text	0000000000000008 _ZN7android11MPEG4Writer5Track10reachedEOSEv
00000000002ee2f8  w   DF .text	0000000000000050 _ZThn8_N7android11BnInterfaceINS_19IGraphicBufferAllocEED0Ev
0000000000228330 g    DF .text	00000000000001ac _Z7InitDPBP12tagAVCHandleP12tagCommonObjiib
0000000000176504 g    DF .text	0000000000000050 _ZN7android11AudioEffectC2Ev
000000000019c138 g    DF .text	0000000000000184 _ZN7android10JitterTool8AddEntryEv
000000000029c638 g    DF .text	0000000000000008 mmap_unimp
00000000005acfb0 g    DO .data	0000000000000008 _ZN5movie7codecID46MEDIA_CODEC_ID_H264_BASELINE_PROFILE_LEVEL_3_0E
00000000002e23a4  w   DF .text	0000000000000238 _ZNSt3__16vectorIN5movie16NnCodecVideoSink15VideoStrideInfoENS_9allocatorIS3_EEE8__appendEm
00000000002b4ce8 g    DF .text	0000000000000060 _ZN9mkvparser10AudioTrackC2EPNS_7SegmentExx
0000000000299e90 g    DF .text	0000000000000008 _ZNK7android11SampleTable17countChunkOffsetsEv
00000000002b9b38 g    DF .text	0000000000000070 _ZN8mkvmuxer10VideoTrackC2EPj
00000000001d7fd4 g    DF .text	0000000000000024 _ZN7android8NuPlayer15StreamingSourceD0Ev
0000000000200990 g    DF .text	00000000000000fc _ZN7android16MPEG2PSExtractor8getTrackEm
00000000002b9a18 g    DF .text	0000000000000060 _ZN8mkvmuxer5Track12set_codec_idEPKc
0000000000185c34  w   DF .text	000000000000000c _ZNK7android21AudioTrackServerProxy17getUnderrunFramesEv
00000000001d194c g    DF .text	000000000000007c _ZN7android8NuPlayer18DecoderPassThrough10onShutdownEb
00000000001de54c  w   DF .text	000000000000003c _ZN7android6VectorINS_2spINS_7ALooperEEEED0Ev
00000000005a3370 g    DO .data	0000000000000018 _ZTIN7android19TimedText3GPPSourceE
0000000000275fbc  w   DF .text	0000000000000088 _ZNK7android6VectorINS_9SidxEntryEE8do_splatEPvPKvm
0000000000291558 g    DF .text	00000000000000d4 _ZN7android8OMXCodec13applyRotationEv
00000000002e2228 g    DF .text	0000000000000008 _ZN5movie16NnCodecVideoSink17AllFramesRenderedEv
00000000002bb1ec g    DF .text	0000000000000004 _ZN8mkvmuxer7ClusterD2Ev
000000000019e418 g    DF .text	0000000000000320 XML_Parse
0000000000252b48 g    DF .text	000000000000007c _ZN7android18CallbackDataSourceD1Ev
00000000002c9d30  w   DF .text	0000000000000040 _ZN7android10WebmBinaryD0Ev
00000000001d8220 g    DF .text	000000000000008c _ZN7android8NuPlayer15StreamingSource14postReadBufferEv
00000000001041e4 g    DF .text	00000000000001ac _Z16autoCorr2nd_realP11ACORR_COEFSPKii
000000000022f004 g    DF .text	0000000000000108 _ZN7android15TimedTextDriver20getExternalTrackInfoEPNS_6ParcelE
000000000028819c g    DF .text	000000000000002c _ZN7android6MuxOMXD1Ev
0000000000227714 g    DF .text	00000000000000e4 _Z23SortPicByPicNumLongTermPP14tagPictureDatai
00000000002e48f4 g    DF .text	000000000000097c _ZN5movie11DecoderImplC1ENS_11DecoderTypeENS_19DecoderOutputFormatENS_11DecoderModeEi
00000000000ed7d4 g    DF .text	000000000000000c _Z30GetAacDecoderStaticChannelInfoi
000000000012d4b8 g    DF .text	000000000000000c _Z17GetRam_SbrDecoderi
0000000000013b00 g    DF .text	0000000000000014 NvmmGetNumOfBuffMgrIndexs
00000000000bf594 g    DF .text	0000000000000494 video_parser_scan
00000000002847ec g    DF .text	0000000000000088 _ZN7android16NuMediaExtractor13getSampleTimeEPl
00000000002b1e38 g    DF .text	0000000000000004 _ZN9mkvparser4Tags3TagD2Ev
00000000002085e0  w   DF .text	0000000000000004 _ZNK7android12SortedVectorINS_16key_value_pair_tIjPNS_15OMXNodeInstanceEEEE10do_destroyEPvm
000000000020c2f0 g    DF .text	0000000000000084 _ZN7android15OMXNodeInstance18removeActiveBufferEjj
0000000000265c7c  w   DF .text	0000000000000064 _ZNK7android6VectorINS_2spINS_12MediaAdapterEEEE16do_move_backwardEPvPKvm
000000000015fd20 g    DF .text	0000000000000018 h264bsdPicWidth
000000000016a9e0 g    DF .text	0000000000000580 h264bsdDecodeSeqParamSet
00000000001dade8  w   DF .text	0000000000000034 _ZN7android6VectorINS_4ListINS_7AStringEEEED2Ev
00000000002c2f48 g    DF .text	0000000000000038 _ZN8mkvmuxer9MkvWriterC2EP8_IO_FILE
0000000000590520  w   DO .data	00000000000000c8 _ZTCN7android11BpInterfaceINS_7IEffectEEE0_NS_7IEffectE
00000000001f6a14  w   DF .text	0000000000000048 _ZNK7android12SortedVectorINS_16key_value_pair_tINS_7AStringENS_2spINS_7ABufferEEEEEE10do_destroyEPvm
0000000000226d98 g    DF .text	00000000000000c8 _Z26FmoGenerateType2MapUnitMapP14tagPicParamSetPiijj
0000000000517a20  w   DO .rodata	000000000000002f _ZTSN7android11BnInterfaceINS_15IMediaCodecListEEE
00000000002055ac  w   DF .text	0000000000000020 _ZNK7android12SortedVectorINS_16key_value_pair_tIllEEE10do_compareEPKvS5_
000000000027dadc g    DF .text	0000000000000084 _ZN7android11MPEG4Writer5Track12writeSmhdBoxEv
0000000000290a00 g    DF .text	0000000000000028 _ZN7android8OMXCodec19isIntermediateStateENS0_5StateE
0000000000205584  w   DF .text	0000000000000014 _ZNK7android12SortedVectorINS_16key_value_pair_tIllEEE15do_move_forwardEPvPKvm
0000000000599e90  w   DO .data	0000000000000018 _ZTIN7android16BpStreamListenerE
00000000002023d0 g    DF .text	0000000000000090 _ZN7android13MPEG2TSSourceC2ERKNS_2spINS_16MPEG2TSExtractorEEERKNS1_INS_19AnotherPacketSourceEEEb
00000000002a9eb4 g    DF .text	00000000000004fc _ZN9mkvparser7Segment14CreateInstanceEPNS_10IMkvReaderExRPS0_
0000000000134b48 g    DF .text	0000000000000138 _ZN7android14SoftAACEncoder20internalGetParameterE13OMX_INDEXTYPEPv
00000000001796c8 g    DF .text	0000000000000554 _ZN7android11AudioRecord12openRecord_lEm
00000000002b8324  w   DF .text	0000000000000020 _ZN9mkvparser11SimpleBlockD2Ev
0000000000199224 g    DF .text	0000000000000070 _ZN7android9SoundPool11setPriorityEii
00000000001d6cfc g    DF .text	0000000000000044 _ZN7android8NuPlayer8Renderer21onDisableOffloadAudioEv
0000000000517ca0 g    DO .rodata	0000000000000010 _ZTSN7android4IOMXE
0000000000289454 g    DF .text	0000000000000008 _ZN7android9OMXClientC2Ev
00000000005a73d0 g    DO .data	0000000000000008 _ZN7android25MEDIA_MIMETYPE_AUDIO_FLACE
0000000000268e44 g    DF .text	00000000000000c4 _ZN7android13MPEG2TSWriter10SourceInfo5startERKNS_2spINS_8AMessageEEE
0000000000161880 g    DF .text	00000000000002c4 h264bsdWriteMacroblock
00000000004ec818 g    DO .rodata	0000000000000404 InverseQuantTable
000000000017def4 g    DF .text	0000000000000068 _ZN7android11AudioSystem18setAudioPortConfigEPK17audio_port_config
00000000001db7f0 g    DF .text	0000000000000028 _ZN7android12NALBitReaderC1EPKhm
00000000002793e8 g    DF .text	000000000000000c _ZN7android11MPEG4Writer21setInterleaveDurationEj
0000000000132430 g    DF .text	0000000000000004 FDKexp
00000000001bfd00 g    DF .text	0000000000000050 _ZN7android8NuPlayer14HTTPLiveSource11getDurationEPl
0000000000245b14 g    DF .text	0000000000000038 _ZTv0_n24_N7android11AudioSourceD1Ev
00000000002508bc g    DF .text	0000000000000054 _ZN7android13AwesomePlayer6seekToEl
000000000059fbd0 g    DO .data	0000000000000098 _ZTCN7android9AWakeLock16PMDeathRecipientE0_NS_7IBinder14DeathRecipientE
00000000002322ec g    DF .text	0000000000000038 _ZTv0_n24_N7android9AACSourceD1Ev
000000000029ec28 g    DF .text	000000000000035c _ZN7android18SurfaceMediaSource4readEPPNS_11MediaBufferEPKNS_11MediaSource11ReadOptionsE
0000000000522350 g    DO .rodata	0000000000000018 _ZTSN8mkvmuxer10AudioTrackE
00000000001d2964 g    DF .text	000000000000007c _ZN7android14NuPlayerDriver11getDurationEPi
0000000000226444 g    DF .text	0000000000000090 ue_v
000000000059e058  w   DO .data	0000000000000058 _ZTVN7android13ARTPAssemblerE
00000000002cca08 g    DF .text	0000000000000044 _ZN5movie11NnExtractor19CancelSetDataSourceEv
00000000002d3c64 g    DF .text	0000000000000014 _ZN5movie13NnCodecPlayer12GetMSESourceEPPNS_9MSESourceE
0000000000187758  w   DF .text	0000000000000040 _ZN7android11BpInterfaceINS_13IAudioFlingerEED1Ev
00000000001f6968  w   DF .text	0000000000000034 _ZN7android12SortedVectorINS_16key_value_pair_tINS_7AStringENS_2spINS_7ABufferEEEEEED2Ev
0000000000522c20  w   DO .rodata	000000000000002d _ZTSN2nn2sf4impl6detail22ServiceObjectImplBase2E
000000000017857c g    DF .text	00000000000000ac _ZN7android14AudioParameter6removeERKNS_7String8E
000000000029cdd4  w   DF .text	0000000000000034 _ZN7android6VectorINS_11SfMemDealer7MemInfoEED2Ev
0000000000199064 g    DF .text	00000000000000bc _ZN7android9SoundPool4stopEi
00000000001dbd4c g    DF .text	0000000000000094 _ZN7android7ABuffer4metaEv
00000000002c3124 g    DF .text	0000000000000008 _ZNK8mkvmuxer9MkvWriter8SeekableEv
00000000001b421c g    DF .text	0000000000000058 _ZN7android14ARTPConnectionD2Ev
00000000002eacd0 g    DF .text	0000000000000074 _ZN5movie9Extractor4InitENS_13ContainerTypeENS_9CacheSizeE
00000000002eb4c0 g    DF .text	000000000000001c _ZN5movie9Extractor4ReadEPNS_6BufferE
00000000002eba10 g    DF .text	0000000000000010 _ZNK5movie9MediaData10FindDoubleEPKcPd
0000000000241c50 g    DF .text	00000000000001cc _ZN7android6ACodec13FlushingState28changeStateIfWeOwnAllBuffersEv
00000000002d6f4c g    DF .text	000000000000003c _ZN5movie13NnCodecPlayer24AcquireOutputBufferIndexEiPiPlS1_
0000000000178e04 g    DF .text	0000000000000068 _ZN7android11AudioRecordC1Ev
00000000001f11c8 g    DF .text	0000000000000068 _ZN7android9M3UParser14isQuotedStringERKNS_7AStringE
00000000002440b0 g    DF .text	0000000000000094 _ZN7android11AudioPlayer9setSourceERKNS_2spINS_11MediaSourceEEE
0000000000286194 g    DF .text	0000000000000088 _ZN7android17MyVorbisExtractor15packetBlockSizeEPNS_11MediaBufferE
00000000005a8a40 g    DO .data	0000000000000020 _ZTTN7android9OggSourceE
00000000000faff0 g    DF .text	0000000000000058 _Z28CConcealment_InitChannelDataP16CConcealmentInfoP14CConcealParamsi
0000000000261b44  w   DF .text	0000000000000050 _ZNK7android6VectorINS_2spINS_14MediaCodecInfoEEEE8do_splatEPvPKvm
00000000002476ac g    DF .text	0000000000000140 _ZN7android19IsAVCReferenceFrameERKNS_2spINS_7ABufferEEE
000000000058a560  w   DO .data	0000000000000108 _ZTCN7android11BnInterfaceINS_25IAudioPolicyServiceClientEEE8_NS_7IBinderE
00000000005a9500 g    DO .data	0000000000000038 _ZTIN7android8OMXCodecE
0000000000135a44 g    DF .text	00000000000004e0 voAACEncSetParam
0000000000190ce4 g    DF .text	000000000000000c _ZNK7android15IStreamListener22getInterfaceDescriptorEv
0000000000146170 g    DF .text	0000000000000024 _ZN7android9SoftMPEG4D0Ev
000000000018d858  w   DF .text	0000000000000024 _ZN7android2spINS_19IMediaDeathNotifier13DeathNotifierEED2Ev
00000000001b4274  w   DF .text	0000000000000044 _ZN7android4ListINS_14ARTPConnection10StreamInfoEED2Ev
00000000002a8400 g    DF .text	0000000000000004 _ZN9mkvparser10IMkvReaderD0Ev
000000000025475c g    DF .text	0000000000000050 _ZN7android13DataURISourceC1ERKNS_2spINS_7ABufferEEE
00000000005d5d10 g    DO .bss	0000000000000020 _ZN7android9gOMXMutexE
0000000000240a54 g    DF .text	00000000000000c8 _ZN7android6ACodec30OutputPortSettingsChangedState11getPortModeEj
000000000026c244 g    DF .text	0000000000000010 _ZNK7android15MPEG4DataSource9initCheckEv
000000000024f9cc g    DF .text	00000000000000bc _ZN7android13AwesomePlayer22notifyIfMediaStarted_lEv
00000000002e6004 g    DF .text	00000000000000a0 _ZN5movie11DecoderImpl29ReleaseAllOutputBufferIndicesEv
0000000000132a38 g    DF .text	0000000000000278 WAV_InputRead
00000000002c5a84  w   DF .text	0000000000000008 _ZN7android15WebmFrameThread7runningEv
0000000000134c80 g    DF .text	0000000000000418 _ZN7android14SoftAACEncoder20internalSetParameterE13OMX_INDEXTYPEPv
00000000001dde64 g    DF .text	0000000000000118 _ZN7android13ALooperRoster23unregisterStaleHandlersEv
000000000021273c g    DF .text	0000000000000008 PVAVCEncReleaseRecon
00000000001fd270  w   DF .text	0000000000000080 _ZN7android4ListINS_21ElementaryStreamQueue9RangeInfoEED2Ev
00000000005a0818  w   DO .data	0000000000000058 _ZTVN7android12SortedVectorINS_16key_value_pair_tIjNS_2spINS_9ATSParser6StreamEEEEEEE
00000000002ea4cc g    DF .text	0000000000000094 _ZN5movie11EncoderImpl26AddBufferIndexToOutputListEijl
00000000001dbd08 g    DF .text	0000000000000044 _ZN7android7ABuffer18setFarewellMessageENS_2spINS_8AMessageEEE
00000000005224a0 g    DO .rodata	000000000000001c _ZTSN7android15WebmFrameThreadE
00000000002ca0dc g    DF .text	0000000000000064 _ZN7android9WebmFrameC1Ev
0000000000182338 g    DF .text	0000000000000010 _ZNK7android10AudioTrack21getAuxEffectSendLevelEPf
0000000000287170 g    DF .text	000000000000014c _ZN7android10SoftVorbisC1EPKcPK16OMX_CALLBACKTYPEPvPP17OMX_COMPONENTTYPE
00000000001322dc g    DF .text	0000000000000008 FDKstrncpy
0000000000589050 g    DO .data	0000000000000108 _ZTCN7android11AudioSystem18AudioFlingerClientE16_NS_7IBinderE
0000000000178c34 g    DF .text	00000000000000e4 _ZNK7android8AudioMix13writeToParcelEPNS_6ParcelE
000000000058acc0 g    DO .data	0000000000000018 _ZTIN7android11ClientProxyE
00000000001d44e4 g    DF .text	000000000000095c _ZN7android8NuPlayer8Renderer17onMessageReceivedERKNS_2spINS_8AMessageEEE
0000000000521370  w   DO .rodata	0000000000000022 _ZTSN7android6VectorINS_9SidxEntryEEE
000000000015ffb8 g    DF .text	0000000000000018 h264bsdProfile
0000000000174c94 g    DF .text	0000000000000030 _VDBG_free
00000000002cd28c g    DF .text	00000000000001a0 _ZN5movie14NnMSEExtractor11SelectTrackEi
000000000029f388  w   DF .text	0000000000000064 _ZNK7android6VectorINS_2spINS_13GraphicBufferEEEE15do_move_forwardEPvPKvm
0000000000253948 g    DF .text	0000000000000328 _ZN7android10DataSource23RegisterDefaultSniffersEv
000000000023f4f8 g    DF .text	0000000000000068 _ZN7android6ACodec17LoadedToIdleStateC2EPS0_
0000000000261af0  w   DF .text	0000000000000054 _ZNK7android6VectorINS_2spINS_14MediaCodecInfoEEEE7do_copyEPvPKvm
00000000002a69e0 g    DF .text	0000000000000008 _ZNK7android17MatroskaExtractor15isLiveStreamingEv
00000000002a203c g    DF .text	0000000000000070 _ZN7android13MakeUserAgentEv
00000000002e1450 g    DF .text	0000000000000038 _ZN5movie16NnCodecVideoSink8GetStateEv
0000000000596ff0  w   DO .data	00000000000000a8 _ZTCN7android13BpOMXObserverE8_NS_9BpRefBaseE
000000000059bb20  w   DO .data	0000000000000028 _ZTIN7android19IMediaDeathNotifierE
00000000005ac9b8  w   DO .data	0000000000000010 _ZTIN7android4ListINS_2spINS_11WebmElementEEEEE
00000000001e6c1c g    DF .text	00000000000000dc _ZN7android11LiveSession12connectAsyncEPKcPKNS_11KeyedVectorINS_7String8ES4_EE
00000000005a0cc0 g    DO .data	0000000000000018 _ZTIN7android16MPEG2PSExtractorE
000000000028082c g    DF .text	0000000000000054 _ZN7android9PageCache10appendPageEPNS0_4PageE
00000000002d4e60 g    DF .text	000000000000004c _ZN5movie13NnCodecPlayer25StopAudioAndVideoDecodersEv
00000000002a2388 g    DF .text	0000000000000008 _ZN7android16canOffloadStreamERKNS_2spINS_8MetaDataEEEbb19audio_stream_type_t
0000000000593d80 g    DO .data	0000000000000108 _ZTCN7android19BnMediaPlayerClientE8_NS_7IBinderE
000000000059c220  w   DO .data	0000000000000050 _ZTVN7android6VectorIdEE
000000000026c154 g    DF .text	000000000000005c _ZN7android15MPEG4DataSourceD1Ev
00000000001f4e9c g    DF .text	00000000000008b0 _ZN7android15PlaylistFetcher32extractAndQueueAccessUnitsFromTsERKNS_2spINS_7ABufferEEE
00000000002e021c g    DF .text	0000000000000198 _ZN5movie16NnCodecVideoSink48GetOutputBufferFromCodecAndConvertToClientFormatEiPNS_6BufferEPm
00000000002b4ce8 g    DF .text	0000000000000060 _ZN9mkvparser10AudioTrackC1EPNS_7SegmentExx
00000000001e2acc  w   DF .text	000000000000010c _ZN7android10Compare_GEImjEENS_7AStringERKT_RKT0_
00000000001f9d34 g    DF .text	0000000000000a54 _ZN7android9ATSParser7Program15parseProgramMapEPNS_10ABitReaderE
0000000000243790 g    DF .text	000000000000009c _ZN7android9AMRSourceD0Ev
0000000000185ef4 g    DF .text	0000000000000044 _ZTv0_n24_N7android13IAudioFlingerD0Ev
0000000000279404 g    DF .text	00000000000000c4 _ZN7android11MPEG4Writer11addSample_lEPNS_11MediaBufferE
0000000000197378 g    DF .text	0000000000000020 _ZN7android18MediaScannerClient12addStringTagEPKcS2_
00000000002a3fac g    DF .text	0000000000000068 _ZN7android12WVMExtractorC2ERKNS_2spINS_10DataSourceEEE
00000000005af290  w   DO .data	0000000000000118 _ZTCN7android11BnInterfaceINS_19IGraphicBufferAllocEEE8_NS_7BBinderE
00000000002ef9f4  w   DF .text	0000000000000154 _ZNKSt3__115basic_stringbufIcNS_11char_traitsIcEENS_9allocatorIcEEE3strEv
00000000001b9ee8 g    DF .text	0000000000000054 _ZN7android20AMPEG4AudioAssembler13onByeReceivedEv
00000000001bfd50 g    DF .text	0000000000000040 _ZNK7android8NuPlayer14HTTPLiveSource13getTrackCountEv
00000000005af140  w   DO .data	00000000000000a8 _ZTCN7android11BnInterfaceINS_19IGraphicBufferAllocEEE0_NS_19IGraphicBufferAllocE
0000000000146cf4  w   DF .text	0000000000000014 _ZNK7android12SortedVectorINS_16key_value_pair_tIixEEE7do_copyEPvPKvm
0000000000598288 g    DO .data	0000000000000180 _ZTVN7android14BnStreamSourceE
00000000005a2d00 g    DO .data	0000000000000018 _ZTIN7android16SoftOMXComponentE
000000000025f024  w   DF .text	00000000000000f0 _ZN7android18move_backward_typeINS_10MediaCodec10BufferInfoEEEvPT_PKS3_m
0000000000255398 g    DF .text	00000000000000a4 _ZN7android18InMemoryFileSource6readAtElPvm
00000000005ac2b0  w   DO .data	0000000000000018 _ZTIN7android16DataSourceReaderE
0000000000211240 g    DF .text	0000000000000008 _ZThn8_N7android14SoftAVCEncoder20internalSetParameterE13OMX_INDEXTYPEPv
00000000002a7244 g    DF .text	0000000000000024 _ZN7android17MatroskaExtractorD0Ev
00000000001114c8 g    DF .text	0000000000000008 _Z34GetRequiredMemRam_TransportDecoderv
00000000002b2570 g    DF .text	0000000000000024 _ZNK9mkvparser15ContentEncoding21GetCompressionByIndexEm
00000000001f7388 g    DF .text	0000000000000260 _ZN7android3ID327removeUnsynchronizationV2_4Eb
000000000018d150  w   DF .text	000000000000000c _ZThn8_NK7android11BnInterfaceINS_15IMediaCodecListEE22getInterfaceDescriptorEv
00000000001d3394 g    DF .text	0000000000000008 _ZNK7android14NuPlayerDriver13hasAudioTrackEv
000000000018ed3c  w   DF .text	0000000000000048 _ZThn8_N7android19BpMediaPlayerClientD1Ev
0000000000597de0  w   DO .data	0000000000000118 _ZTCN7android11BnInterfaceINS_12IOMXObserverEEE8_NS_7BBinderE
00000000005a2780 g    DO .data	0000000000000018 _ZTIN7android9OMXMasterE
00000000005a73f8 g    DO .data	0000000000000008 _ZN7android32MEDIA_MIMETYPE_AUDIO_AAC_BROWSERE
000000000023eee4 g    DF .text	00000000000000d4 _ZN7android6ACodec11LoadedState12stateEnteredEv
00000000005a7c00 g    DO .data	0000000000000098 _ZTVN7android13MPEG2TSWriterE
0000000000192230  w   DF .text	0000000000000048 _ZN7android16BpStreamListenerD0Ev
000000000012d5c8 g    DF .text	000000000000002c _Z25FreeRam_sbr_OverlapBufferPPi
00000000005abc10  w   DO .data	0000000000000018 _ZTIN7android9MP3SeekerE
00000000002ca52c g    DF .text	0000000000000024 _ZN5movie13BrowserPlayer7DestroyEPS0_
0000000000233544 g    DF .text	0000000000000768 _ZN7android6ACodec21allocateBuffersOnPortEj
00000000002cf23c g    DF .text	000000000000003c _ZN5movie10HLSHandlerC1EPNS_12HLSExtractorE
0000000000177df0  w   DF .text	0000000000000050 _ZThn8_N7android11AudioEffect12EffectClientD0Ev
00000000001918ec  w   DF .text	0000000000000048 _ZN7android16BnStreamListenerD0Ev
00000000001be4d4 g    DF .text	00000000000001c8 _ZNK7android19ASessionDescription13findAttributeEmPKcPNS_7AStringE
00000000002ed234 g    DF .text	000000000000005c _ZN5movie20NnCodecVideoConsumerD1Ev
00000000000ecbec  w   DF .text	0000000000000078 _ZNK7android6VectorINS_22SimpleSoftOMXComponent8PortInfoEE12do_constructEPvm
000000000020abe8 g    DF .text	0000000000000348 _ZN7android15OMXNodeInstance9useBufferEjRKNS_2spINS_7IMemoryEEEPj
000000000058a960 g    DO .data	0000000000000020 _ZTTN7android10AudioTrack13DeathNotifierE
00000000002957f4 g    DF .text	000000000000011c _ZN7android20getOMXChannelMappingEmP21OMX_AUDIO_CHANNELTYPE
000000000022f218  w   DF .text	000000000000005c _ZNK7android12SortedVectorINS_16key_value_pair_tImNS_2spINS_15TimedTextSourceEEEEEE7do_copyEPvPKvm
000000000026bcc0  w   DF .text	0000000000000058 _ZN7android11MediaWriter11setListenerERKNS_2spINS_20IMediaRecorderClientEEE
00000000002794c8 g    DF .text	0000000000000300 _ZN7android11MPEG4Writer25addLengthPrefixedSample_lEPNS_11MediaBufferE
00000000002b8414 g    DF .text	0000000000000004 _ZN8mkvmuxer10IMkvWriterD1Ev
000000000029a850 g    DF .text	0000000000000130 _ZN7android9SfNvnUtilD1Ev
00000000001bc290 g    DF .text	0000000000000004 _ZN7android17AMPEG2TSAssembler12assembleMoreERKNS_2spINS_10ARTPSourceEEE
0000000000201ed4 g    DF .text	0000000000000094 _ZN7android12SniffMPEG2PSERKNS_2spINS_10DataSourceEEEPNS_7String8EPfPNS0_INS_8AMessageEEE
00000000005a2a68  w   DO .data	0000000000000058 _ZTVN7android12SortedVectorIP20OMX_BUFFERHEADERTYPEEE
0000000000278554 g    DF .text	0000000000000030 _ZN7android11MPEG4Writer10writeInt32Ei
0000000000151eb8 g    DF .text	0000000000000280 PutSKIPPED_MB
000000000018f7a4  w   DF .text	0000000000000048 _ZThn8_N7android5BnOMXD1Ev
00000000001d6670 g    DF .text	00000000000002e0 _ZN7android8NuPlayer8Renderer10onQueueEOSERKNS_2spINS_8AMessageEEE
00000000002053ec  w   DF .text	0000000000000008 _ZN7android16ConsumerListenerD1Ev
000000000029f6e4 g    DF .text	00000000000000bc _ZN7android15TimedEventQueueC1Ev
000000000017fed8 g    DF .text	000000000000007c memcpy_to_p24_from_i16
00000000002525ec  w   DF .text	0000000000000024 _ZN7android12AwesomeEventD0Ev
00000000005ac4e8 g    DO .data	0000000000000030 _ZTVN9mkvparser10BlockGroupE
000000000020b368 g    DF .text	0000000000000310 _ZN7android15OMXNodeInstance16useGraphicBufferEjRKNS_2spINS_13GraphicBufferEEEPj
0000000000266d00 g    DF .text	00000000000000a0 _ZN7android8MetaData10typed_dataaSERKS1_
000000000020d000  w   DF .text	0000000000000014 _ZNK7android12SortedVectorINS_16key_value_pair_tIP20OMX_BUFFERHEADERTYPEjEEE15do_move_forwardEPvPKvm
00000000002bd5bc g    DF .text	0000000000000060 _ZN8mkvmuxer7Segment10AddChapterEv
00000000002eb86c g    DF .text	0000000000000008 _ZNK5movie6Buffer13GetUint32DataEv
000000000027688c  w   DF .text	000000000000003c _ZN7android6VectorINS_11MPEG4Source6SampleEED0Ev
00000000001bd27c g    DF .text	0000000000000038 _ZN7android13ARTPAssemblerC2Ev
00000000001c2954 g    DF .text	0000000000000020 _ZN7android8NuPlayer13GenericSource20restartPollBufferingEv
00000000002c40f4 g    DF .text	0000000000000744 _ZN7android10WebmWriter5resetEv
00000000000cc8d0 g    DF .text	0000000000000014 TVMRVideoDecoderCopySliceData
00000000005a02b0 g    DO .data	0000000000000018 _ZTIN7android15PlaylistFetcherE
00000000002e54e0 g    DF .text	0000000000000060 _ZN5movie11DecoderImpl23IsOutputFormatSupportedENS_11DecoderTypeENS_11DecoderModeENS_19DecoderOutputFormatE
000000000018f970  w   DF .text	0000000000000098 _ZN7android11BnInterfaceINS_12IOMXObserverEE19queryLocalInterfaceERKNS_8String16E
000000000029a7f4 g    DF .text	000000000000005c _ZN7android9SfNvnUtilC2Eiiii
00000000002e48b0 g    DF .text	0000000000000010 _ZN5movie23BrowserPlayerDataSource6readAtElPvm
00000000001998b4 g    DF .text	000000000000029c _ZN7android6Sample6doLoadEv
000000000025f160  w   DF .text	0000000000000024 _ZN7android2spINS_15IMediaCodecListEED2Ev
00000000001e30f4 g    DF .text	00000000000001f0 _ZN7android12AStringUtils11MatchesGlobEPKcmS2_mb
0000000000197338 g    DF .text	0000000000000034 _ZN7android18MediaScannerClientD0Ev
00000000000cc928 g    DF .text	0000000000000018 TVMRVideoBackwardUpdates
000000000026c320 g    DF .text	0000000000000010 _ZN7android15MPEG4DataSource5flagsEv
00000000005aa148 g    DO .data	0000000000000004 g_AACEncoderThreadPriority
000000000015a7a8 g    DF .text	0000000000000118 _ZN7android7SoftAVC21drainAllOutputBuffersEb
0000000000206224 g    DF .text	0000000000000038 _ZTv0_n24_N7android3OMXD1Ev
00000000001dc1b8 g    DF .text	0000000000000040 _ZN7android6AStateD2Ev
000000000059f560  w   DO .data	0000000000000020 _ZTTN7android7ALooper12LooperThreadE
00000000001d9ad8 g    DF .text	0000000000000050 _ZN7android16SoftwareRendererD1Ev
0000000000167bc0 g    DF .text	00000000000002b8 h264bsdInterpolateVerQuarter
00000000001e4eb8 g    DF .text	0000000000000064 _ZN7android11LiveSession18BandwidthEstimatorC1Ev
0000000000598020 g    DO .data	00000000000000c0 _ZTVN7android13IStreamSourceE
00000000005abed8 g    DO .data	0000000000000078 _ZTVN7android12WVMExtractorE
000000000050a100 g    DO .rodata	0000000000000300 zigzag_inv
000000000059da40 g    DO .data	0000000000000018 _ZTIN7android14ARTPConnectionE
00000000002306e8 g    DF .text	00000000000000a8 _ZN7android15TimedTextPlayer11notifyErrorEi
00000000002547ac g    DF .text	0000000000000040 _ZN7android13DataURISourceD1Ev
0000000000257af4 g    DF .text	0000000000000008 _ZN7android10MediaCodec15BatteryNotifierC2Ev
0000000000261efc g    DF .text	0000000000000024 _ZN7android16MediaCodecSource6PullerD0Ev
000000000019a9c0 g    DF .text	0000000000000018 _ZN7android11StringArrayC2Ev
00000000002cf020 g    DF .text	000000000000007c _ZN5movie12HLSExtractor19GetSampleTrackIndexEPm
00000000001bd58c g    DF .text	000000000000010c _ZN7android13ARTPAssembler23MakeCompoundFromPacketsERKNS_4ListINS_2spINS_7ABufferEEEEE
00000000001eb12c g    DF .text	0000000000000008 _ZN7android11LiveSession23addBandwidthMeasurementEml
0000000000125a8c g    DF .text	0000000000000ae0 _Z10ReadPsDataP6PS_DECP13FDK_BITSTREAMi
0000000000588788  w   DO .data	0000000000000048 _ZTVN7android22AudioRecordClientProxyE
000000000023fe58 g    DF .text	0000000000000130 _ZN7android6ACodec14ExecutingState6resumeEv
00000000002e03b4 g    DF .text	0000000000000170 _ZN5movie16NnCodecVideoSink15ConvertYuvToRgbEPhPKhS3_S3_Pm
00000000002ea0c0 g    DF .text	00000000000000c8 _ZN5movie11EncoderImpl15GetOutputBufferEiPNS_6BufferE
00000000001711f8 g    DF .text	0000000000000038 vorbis_dsp_create
0000000000285cf4  w   DF .text	0000000000000034 _ZN7android6VectorINS_17MyVorbisExtractor8TOCEntryEED2Ev
0000000000199c58 g    DF .text	0000000000000014 _ZN7android12SoundChannel8callbackEiPvS1_
000000000017c490 g    DF .text	0000000000000078 _ZN7android11AudioSystem14setVoiceVolumeEf
000000000010bf40 g    DF .text	0000000000000014 _Z16adtsRead_CrcInitP11STRUCT_ADTS
0000000000015d74 g    DF .text	0000000000000138 NvMMLiteBlockTryClose
00000000002061f4 g    DF .text	0000000000000030 _ZThn32_N7android3OMXD1Ev
00000000000ed928 g    DF .text	000000000000002c _Z19FreeWorkBufferCore1PP16CWorkBufferCore1
000000000025f3e8 g    DF .text	000000000000007c _ZN7android14MediaCodecList19BinderDeathObserver10binderDiedERKNS_2wpINS_7IBinderEEE
00000000000ce050 g    DF .text	00000000000001ec TVMRRawSurfaceCreate
0000000000193244 g    DF .text	0000000000000184 _ZN7android14MediaCodecInfo7addMimeEPKc
00000000002b3428 g    DF .text	0000000000000248 _ZNK9mkvparser5Track4Info4CopyERS1_
000000000051c900 g    DO .rodata	0000000000000013 _ZTSN7android7ALooperE
000000000059edb0 g    DO .data	0000000000000018 _ZTIN7android8NuPlayer11DecoderBaseE
000000000022c59c  w   DF .text	0000000000000084 _ZN7android28SoftVideoDecoderOMXComponentD0Ev
00000000002b2490 g    DF .text	0000000000000018 _ZN9mkvparser15ContentEncodingC1Ev
00000000005a0268 g    DO .data	0000000000000048 _ZTVN7android15PlaylistFetcherE
000000000059e990  w   DO .data	0000000000000018 _ZTIN7android8NuPlayer17PostMessageActionE
000000000018b75c  w   DF .text	0000000000000098 _ZN7android11BnInterfaceINS_7IEffectEE19queryLocalInterfaceERKNS_8String16E
000000000018fcac  w   DF .text	0000000000000050 _ZThn8_N7android13BnOMXObserverD0Ev
0000000000187550  w   DF .text	0000000000000050 _ZTv0_n24_N7android11BnInterfaceINS_13IAudioFlingerEED0Ev
00000000000db0c8 g    DF .text	0000000000000008 TVMRVideoEncoderGetBits
0000000000592370 g    DO .data	0000000000000098 _ZTCN7android16BnMediaCodecListE0_NS_10IInterfaceE
0000000000201d00 g    DF .text	0000000000000084 _ZTv0_n24_N7android16MPEG2PSExtractor12WrappedTrackD1Ev
00000000005991d8  w   DO .data	0000000000000100 _ZTVN7android14BpStreamSourceE
00000000002a5ccc g    DF .text	0000000000000010 _ZN7android13BlockIteratorC1EPNS_17MatroskaExtractorEmm
00000000001779c0  w   DF .text	0000000000000048 _ZTv0_n24_N7android14BnEffectClientD1Ev
00000000005a1a50 g    DO .data	0000000000000020 _ZTTN7android3OMX24CallbackDispatcherThreadE
00000000002da550 g    DF .text	000000000000009c _ZN5movie18AVCProfileToStringEh
00000000000f3ea0 g    DF .text	0000000000000034 _Z10CTns_ResetP8CTnsData
000000000058eb00 g    DO .data	0000000000000118 _ZTCN7android26BnAudioPolicyServiceClientE8_NS_7BBinderE
00000000001fd138 g    DF .text	0000000000000040 _ZN7android9ATSParser10PSISectionD2Ev
00000000005ade78 g    DO .data	0000000000000048 _ZTVN5movie26NnCodecVideoOutputReceiverE
00000000000ed6f0  w   DF .text	0000000000000004 _ZNK7android6VectorIlE12do_constructEPvm
00000000002556d0 g    DF .text	0000000000000048 _ZN7android8HTTPBase25getEstimatedBandwidthKbpsEPi
000000000051ff50 g    DO .rodata	0000000000000012 _ZTSN7android6ACodecE
00000000001cbbd4 g    DF .text	0000000000000080 _ZNK7android8NuPlayer13hasAudioTrackEv
00000000002ba060 g    DF .text	000000000000000c _ZN8mkvmuxer6TracksC1Ev
0000000000015afc g    DF .text	0000000000000014 NvMMLiteBlockGetState
000000000027c89c g    DF .text	00000000000001b8 _ZN7android11MPEG4Writer5Track13parseParamSetEPKhmiPm
0000000000132440 g    DF .text	0000000000000008 FDKfloor
0000000000208708  w   DF .text	000000000000003c _ZN7android12SortedVectorINS_16key_value_pair_tINS_2wpINS_7IBinderEEEPNS_15OMXNodeInstanceEEEED0Ev
0000000000000024 g    DF .text	000000000000013c .protected _init
0000000000230cb8 g    DF .text	00000000000000ac _ZN7android18TimedTextSRTSource5startEv
0000000000278e58 g    DF .text	0000000000000134 _ZN7android11MPEG4Writer8beginBoxEPKc
0000000000209084 g    DF .text	00000000000000f8 _ZN7android9OMXMaster21makeComponentInstanceEPKcPK16OMX_CALLBACKTYPEPvPP17OMX_COMPONENTTYPE
000000000020afe0 g    DF .text	0000000000000050 _ZN7android15OMXNodeInstance15addActiveBufferEjj
0000000000174d08 g    DF .text	0000000000000214 res_unpack
000000000018ddec g    DF .text	0000000000000034 _ZN7android19IMediaDeathNotifier13DeathNotifierD0Ev
0000000000204200 g    DF .text	000000000000008c _ZN7android19GraphicBufferSource9omxLoadedEv
00000000002425dc  w   DF .text	0000000000000080 _ZThn8_N7android13CodecObserverD1Ev
00000000002cc32c g    DF .text	0000000000000098 _ZN5movie11NnExtractor13SetDataSourceEPKc
00000000002eae40 g    DF .text	0000000000000038 _ZN5movie9ExtractorD2Ev
00000000000f7c64 g    DF .text	000000000000000c aacDecoder_AncDataInit
000000000015c834 g    DF .text	0000000000000074 InnerBoundaryStrength2
000000000051c6e0 g    DO .rodata	000000000000001d _ZTSN7android8NuPlayer8RendererE
00000000001456e8 g    DF .text	00000000000000c0 voAACEnc_Mpy_32
0000000000521ab0  w   DO .rodata	000000000000002d _ZTSN7android6VectorINS_8OMXCodec10BufferInfoEEE
00000000000ec9dc g    DF .text	0000000000000144 _ZN7android8SoftAAC221onPortEnableCompletedEjb
000000000059e3c0 g    DO .data	0000000000000018 _ZTIN7android19VideoFrameSchedulerE
00000000001f9748 g    DF .text	0000000000000064 _ZN7android19AnotherPacketSource18hasBufferAvailableEPi
0000000000240fa8 g    DF .text	0000000000000080 _ZN7android6ACodec20ExecutingToIdleState17onMessageReceivedERKNS_2spINS_8AMessageEEE
000000000024f554 g    DF .text	0000000000000168 _ZN7android13AwesomePlayer19createAudioPlayer_lEv
000000000029e4d0 g    DF .text	0000000000000034 _ZN7android18SurfaceMediaSourceD0Ev
0000000000159d10 g    DF .text	00000000000001ec PV_DecodeVop
00000000001d6c7c g    DF .text	0000000000000080 _ZN7android8NuPlayer8Renderer18onAudioSinkChangedEv
00000000001ebed4  w   DF .text	0000000000000014 _ZNK7android12SortedVectorINS_16key_value_pair_tImlEEE15do_move_forwardEPvPKvm
0000000000152398 g    DF .text	0000000000000114 PV_GobHeader
0000000000509e24 g    DO .rodata	00000000000002a8 RvlcDCTtabInter
00000000001e36f4 g    DF .text	000000000000039c _ZN7android12encodeBase64EPKvmPNS_7AStringE
00000000005a7338 g    DO .data	0000000000000008 _ZN7android25MEDIA_MIMETYPE_VIDEO_HEVCE
00000000005a8888 g    DO .data	0000000000000040 _ZTVN7android16NuMediaExtractorE
0000000000282420 g    DF .text	0000000000000010 _ZN7android15NuCachedSource26getUriEv
0000000000193dbc  w   DF .text	0000000000000038 _ZNK7android6VectorINS_7AStringEE12do_constructEPvm
00000000001de8fc g    DF .text	00000000000000b8 _ZN7android8AMessageD0Ev
00000000002c58bc  w   DF .text	0000000000000008 _ZN7android10WebmWriter20setStartTimeOffsetMsEi
00000000001dca0c g    DF .text	00000000000000e0 _ZN7android7ALooperD1Ev
0000000000258f74 g    DF .text	000000000000017c _ZN7android10MediaCodec16queueInputBufferEmmmljPNS_7AStringE
00000000001e57d4 g    DF .text	0000000000000254 _ZN7android11LiveSessionD1Ev
0000000000111470 g    DF .text	0000000000000010 _Z34CLatmDemux_GetOtherDataPresentFlagP10CLatmDemux
0000000000206c78 g    DF .text	00000000000002bc _ZN7android3OMX8freeNodeEj
0000000000592c30  w   DO .data	0000000000000048 _ZTTN7android11BpInterfaceINS_15IMediaCodecListEEE
00000000002b505c g    DF .text	0000000000000008 _ZNK9mkvparser10AudioTrack11GetChannelsEv
0000000000172ba8 g    DF .text	0000000000000008 floor1_memosize
0000000000276a24  w   DF .text	0000000000000094 _ZNK7android6VectorINS_11MPEG4Source6SampleEE8do_splatEPvPKvm
00000000002ca3ec g    DF .text	0000000000000018 _ZN5movie13BrowserConfigC1Ev
000000000013d4b8 g    DF .text	0000000000000108 PreEchoControl
00000000001dfa3c g    DF .text	0000000000000060 _ZN7android8AMessage9postReplyEj
00000000005a4340  w   DO .data	0000000000000088 _ZTTN7android13CodecObserverE
0000000000280d40 g    DF .text	0000000000000004 _ZN7android15NuCachedSource235updateCacheParamsFromSystemPropertyEv
0000000000290a28 g    DF .text	00000000000006f0 _ZN7android8OMXCodec21allocateBuffersOnPortEj
00000000002a0358 g    DF .text	000000000000005c _ZN7android15TimedEventQueue17clearPowerManagerEv
0000000000593ea8  w   DO .data	00000000000000e8 _ZTVN7android19BpMediaPlayerClientE
00000000001de024 g    DF .text	0000000000000124 _ZN7android13ALooperRoster10findLooperEi
00000000002b9d0c g    DF .text	0000000000000144 _ZNK8mkvmuxer10VideoTrack5WriteEPNS_10IMkvWriterE
00000000002103fc g    DF .text	000000000000017c _ZN7android14SoftAVCEncoderD1Ev
00000000000f9484 g    DF .text	00000000000003a0 _Z34CBlock_InverseQuantizeSpectralDataP22CAacDecoderChannelInfoP16SamplingRateInfo
00000000002cbaf8 g    DF .text	00000000000000cc _ZN11nnAudioSink5writeEPKvm
00000000002ecbd8 g    DF .text	00000000000000a0 _ZN5movie33CreateVp9DecoderConfigurationDataEiiiPNS_9MediaDataE
00000000000be19c g    DF .text	0000000000000078 video_parser_destroy
00000000002094dc  w   DF .text	0000000000000014 _ZNK7android12SortedVectorINS_16key_value_pair_tIP17OMX_COMPONENTTYPEPNS_13OMXPluginBaseEEEE16do_move_backwardEPvPKvm
00000000002332d0 g    DF .text	0000000000000040 _ZThn16_N7android6ACodec11signalFlushEv
00000000005a5d08 g    DO .data	00000000000000c0 _ZTVN7android18CurlHttpConnectionE
0000000000171590 g    DF .text	0000000000000098 vorbis_packet_blocksize
000000000058e820 g    DO .data	0000000000000168 _ZTCN7android26BnAudioPolicyServiceClientE0_NS_11BnInterfaceINS_25IAudioPolicyServiceClientEEE
00000000002ea944  w   DF .text	0000000000000100 _ZNSt3__16vectorIN5movie11EncoderImpl16outputBufferInfoENS_9allocatorIS3_EEE21__push_back_slow_pathIRKS3_EEvOT_
00000000002efd98 g    DF .text	000000000000000c _ZN2nn4mmnv7RequestC2Ev
000000000017fdf4 g    DF .text	0000000000000080 memcpy_to_float_from_i16
00000000002b2594 g    DF .text	0000000000000010 _ZNK9mkvparser15ContentEncoding19GetCompressionCountEv
00000000002ee43c  w   DF .text	00000000000001ac _ZNSt3__127__tree_balance_after_insertIPNS_16__tree_node_baseIPvEEEEvT_S5_
00000000001bf26c  w   DF .text	0000000000000040 _ZNK7android12SortedVectorINS_16key_value_pair_tINS_7AStringES2_EEE10do_destroyEPvm
00000000001f8de0 g    DF .text	0000000000000024 _ZNK7android19AnotherPacketSource15wasFormatChangeEi
00000000000db130 g    DF .text	0000000000000018 TVMRJPEGEncoderGetBits
000000000018a964 g    DF .text	0000000000000164 _ZN7android25IAudioPolicyServiceClient11asInterfaceERKNS_2spINS_7IBinderEEE
00000000001e1208 g    DF .text	0000000000000040 _ZN7android7AStringC2EPKc
0000000000265da0 g    DF .text	0000000000000014 _ZN7android11MediaSource11ReadOptionsC1Ev
00000000001ecef0 g    DF .text	00000000000000bc _ZN7android9M3UParserC1EPKcPKvmi
0000000000277b74 g    DF .text	00000000000002ac _ZN7android11MPEG4Writer5Track5startEPNS_8MetaDataE
0000000000133274 g    DF .text	000000000000023c _ZN7android10AACEncoder9initCheckEv
00000000001f1070 g    DF .text	000000000000005c _ZN7android9M3UParser11ParseDoubleEPKcPd
000000000028d698 g    DF .text	0000000000000370 _ZN7android8OMXCodec16setMinBufferSizeEjj
0000000000594e10 g    DO .data	0000000000000098 _ZTCN7android4IOMXE0_NS_10IInterfaceE
000000000058b7f0  w   DO .data	0000000000000038 _ZTIN7android11BnInterfaceINS_13IAudioFlingerEEE
0000000000214588 g    DF .text	0000000000000364 AVCPaddingEdge
00000000002b0d78 g    DF .text	0000000000000008 _ZNK9mkvparser8Chapters7Edition12GetAtomCountEv
0000000000269be0 g    DF .text	0000000000000040 _ZN7android13MPEG2TSWriter10SourceInfo8readMoreEv
00000000002cb350 g    DF .text	0000000000000078 _ZN5movie8nnPlayer12GetTrackTypeEiPNS_9TrackTypeE
00000000000ce624 g    DF .text	0000000000000148 TVMRVideoSurfaceGetBits
000000000022f584  w   DF .text	0000000000000064 _ZNK7android6VectorINS_15TimedTextDriver14TextSourceTypeEE16do_move_backwardEPvPKvm
000000000020e5f8 g    DF .text	000000000000033c _ZN7android22SimpleSoftOMXComponent17onMessageReceivedERKNS_2spINS_8AMessageEEE
0000000000191c24  w   DF .text	0000000000000040 _ZN7android14BpStreamSourceD1Ev
000000000028945c g    DF .text	00000000000001a8 _ZN7android9OMXClient7connectEv
000000000017f34c  w   DF .text	000000000000003c _ZN7android6VectorINS_8AudioMixEED0Ev
000000000059c270  w   DO .data	0000000000000028 _ZTIN7android6VectorIdEE
0000000000194fdc g    DF .text	0000000000000090 _ZTv0_n24_N7android11MediaPlayerD1Ev
000000000029d220  w   DF .text	0000000000000048 _ZThn8_N7android11BnInterfaceINS_11IMemoryHeapEED1Ev
00000000002e90c0 g    DF .text	0000000000000014 _ZN5movie7Decoder12GetLastErrorEv
00000000001939fc  w   DF .text	0000000000000034 _ZN7android6VectorINS_14MediaCodecInfo12ProfileLevelEED2Ev
00000000002bb0b4 g    DF .text	000000000000011c _ZNK8mkvmuxer8Chapters12WriteEditionEPNS_10IMkvWriterE
000000000015ac38  w   DF .text	0000000000000014 _ZNK7android12SortedVectorINS_16key_value_pair_tIiP20OMX_BUFFERHEADERTYPEEEE7do_copyEPvPKvm
00000000002a41f8 g    DF .text	0000000000000038 _ZN7android8SniffWVMERKNS_2spINS_10DataSourceEEEPNS_7String8EPfPNS0_INS_8AMessageEEE
000000000058fed8  w   DO .data	0000000000000108 _ZTVN7android8BpEffectE
00000000001e411c g    DF .text	0000000000000058 _ZN7android13ParsedMessageD2Ev
00000000002c3e9c g    DF .text	00000000000000b8 _ZN7android10WebmWriter16estimateCuesSizeEi
000000000017f7c0  w   DF .text	0000000000000060 _ZNK7android6VectorINS_23AttributeMatchCriterionEE8do_splatEPvPKvm
00000000002573e0 g    DF .text	00000000000000cc _ZN7android11MediaBufferD1Ev
0000000000139eac g    DF .text	0000000000000620 WriteBitstream
0000000000187ff4  w   DF .text	0000000000000084 _ZNK7android14BpAudioFlinger10sampleRateEi
000000000023bfc0 g    DF .text	000000000000001c _ZNK7android6ACodec15PortDescription8bufferAtEm
00000000001995dc g    DF .text	0000000000000044 _ZN7android9SoundPool11setCallbackEPFvNS_14SoundPoolEventEPS0_PvES3_
0000000000111488 g    DF .text	0000000000000008 _Z27CLatmDemux_GetNrOfSubFramesP10CLatmDemux
000000000017f718  w   DF .text	000000000000003c _ZN7android6VectorINS_23AttributeMatchCriterionEED0Ev
0000000000518410  w   DO .rodata	0000000000000015 _ZTSN7android6VectorIdEE
00000000001a8520 g    DF .text	000000000000000c XmlGetUtf8InternalEncoding
000000000020a200 g    DF .text	00000000000001a0 _ZN7android15OMXNodeInstance11sendCommandE15OMX_COMMANDTYPEi
00000000005abb78 g    DO .data	0000000000000028 _ZTVN7android16SystemTimeSourceE
00000000002b8130 g    DF .text	0000000000000008 _ZNK9mkvparser10BlockGroup15GetNextTimeCodeEv
000000000018a36c g    DF .text	0000000000000134 _ZN7android20BnAudioFlingerClient10onTransactEjRKNS_6ParcelEPS1_j
000000000026bd70  w   DF .text	0000000000000054 _ZN7android11MediaWriterD0Ev
00000000004f99d8 g    DO .rodata	0000000000000f00 KBDWindow960
0000000000016020 g    DF .text	0000000000000064 NvMMLiteBlockDoWork
00000000001a852c g    DF .text	000000000000000c XmlGetUtf16InternalEncoding
00000000001fd438  w   DF .text	0000000000000040 _ZNK7android12SortedVectorINS_16key_value_pair_tIjNS_2spINS_9ATSParser10PSISectionEEEEEE10do_destroyEPvm
0000000000230934  w   DF .text	0000000000000034 _ZN7android15TimedTextPlayer11ParcelEventD2Ev
00000000005082a4 g    DO .rodata	0000000000000034 inter_max_run0
00000000005082d8 g    DO .rodata	0000000000000010 inter_max_run1
000000000017feb4 g    DF .text	0000000000000024 memcpy_to_i16_from_p24
00000000001f15d8  w   DF .text	000000000000003c _ZN7android6VectorINS_9M3UParser10MediaGroup5MediaEED0Ev
00000000005d57a0 g    DO .bss	0000000000000038 _ZN7android11AudioSystem8gOutputsE
00000000002eb4dc g    DF .text	000000000000001c _ZN5movie9Extractor29GetTrackIndexForAvailableDataEPm
0000000000233cac g    DF .text	0000000000000310 _ZN7android6ACodec29allocateOutputMetaDataBuffersEv
0000000000011248 g    DF .text	0000000000000098 NvMMQueueDeQ
00000000005a6750 g    DO .data	0000000000000180 _ZTCN7android14MediaCodecListE0_NS_16BnMediaCodecListE
0000000000285c38 g    DF .text	00000000000000bc _ZN7android17MyVorbisExtractorD1Ev
00000000002083a4  w   DF .text	000000000000005c _ZNK7android12SortedVectorINS_16key_value_pair_tIjNS_2spINS_3OMX18CallbackDispatcherEEEEEE7do_copyEPvPKvm
0000000000163e5c g    DF .text	0000000000000968 h264bsdIntra4x4Prediction
00000000001802e4 g    DF .text	0000000000000078 memcpy_to_float_from_i32
0000000000255780 g    DF .text	0000000000000010 _ZN7android8HTTPBase6setUIDEj
00000000002579d0  w   DF .text	0000000000000070 _ZN7android9SingletonINS_10MediaCodec15BatteryNotifierEE11getInstanceEv
00000000002ccc70 g    DF .text	0000000000000024 _ZN5movie14NnMSEExtractorD0Ev
000000000058c698  w   DO .data	0000000000000278 _ZTVN7android11BpInterfaceINS_13IAudioFlingerEEE
00000000005ab438 g    DO .data	0000000000000040 _ZTVN7android13SkipCutBufferE
000000000015a2a0 g    DF .text	0000000000000024 _ZN7android7SoftAVCD0Ev
00000000002849cc g    DF .text	0000000000000080 _ZNK7android16NuMediaExtractor15getTotalBitrateEPl
000000000017e830  w   DF .text	000000000000004c _ZN7android11AudioSystem18AudioFlingerClientD1Ev
000000000023db70 g    DF .text	00000000000005c8 _ZN7android6ACodec9BaseState21onOutputBufferDrainedERKNS_2spINS_8AMessageEEE
00000000000db1ac g    DF .text	0000000000000008 TVMRVideoMEFeedFrameYUV
000000000019e874 g    DF .text	000000000000018c XML_ParseBuffer
00000000001e47d8 g    DF .text	0000000000000070 _ZN7android14LiveDataSourceC2Ev
00000000002eaae0 g    DF .text	0000000000000048 _ZN5movie7EncoderD1Ev
00000000000ed76c  w   DF .text	0000000000000014 _ZNK7android6VectorIlE15do_move_forwardEPvPKvm
000000000014c67c g    DF .text	00000000000004dc GetMBData_DataPart
00000000005a4cc0 g    DO .data	00000000000000d8 _ZTVN7android9AMRSourceE
000000000017edac  w   DF .text	0000000000000040 _ZN7android11BnInterfaceINS_25IAudioPolicyServiceClientEED1Ev
000000000059d9a8  w   DO .data	0000000000000010 _ZTIN7android4ListINS_8NuPlayer22NuPlayerStreamListener10QueueEntryEEE
00000000002d7ae4 g    DF .text	00000000000000b4 _ZNK5movie11NnMediaData8FindItemEPKcNS0_4TypeE
00000000002789cc g    DF .text	0000000000000090 _ZN7android11MPEG4Writer12writeMoovBoxEl
00000000002b4424 g    DF .text	0000000000000018 _ZN9mkvparser10BlockEntryC2EPNS_7ClusterEl
00000000001ec988 g    DF .text	0000000000000054 _ZN7android9M3UParser10MediaGroupD1Ev
0000000000255cf4 g    DF .text	0000000000000010 _ZN7android18CurlHttpConnection6getUriEv
00000000005a1648 g    DO .data	0000000000000040 _ZTVN7android3OMX18CallbackDispatcherE
00000000002cc1c4 g    DF .text	0000000000000088 _ZN5movie11NnExtractorC1EPNS_15ExtractorConfigE
00000000001d1ad0 g    DF .text	00000000000001b0 _ZN7android14NuPlayerDriverC1Ev
0000000000211b7c g    DF .text	0000000000000160 _Z33SoftAVCEnc_createSoftOMXComponentPKcPK16OMX_CALLBACKTYPEPvPP17OMX_COMPONENTTYPE
0000000000517d20  w   DO .rodata	000000000000002c _ZTSN7android11BnInterfaceINS_12IOMXObserverEEE
0000000000500960 g    DO .rodata	0000000000000020 Alphas
0000000000101618 g    DF .text	00000000000000c0 FDK_Feed
00000000005017b4 g    DO .rodata	0000000000000004 FDKSEEK_CUR
0000000000188bd8  w   DF .text	000000000000009c _ZN7android14BpAudioFlinger19openDuplicateOutputEii
00000000001b9a54 g    DF .text	0000000000000024 _ZN7android20AMPEG4AudioAssemblerD0Ev
00000000002a0640 g    DF .text	0000000000000024 _ZN7android8U32LE_ATEPKh
000000000001693c g    DF .text	0000000000000164 OMX_Init
000000000018e8a8  w   DF .text	0000000000000048 _ZN7android19BnMediaPlayerClientD0Ev
00000000001d8aa4 g    DF .text	000000000000011c _ZN7android14ColorConverter7convertEPKvmmmmmmPvmmmmmm
000000000022b1ec g    DF .text	0000000000000034 _Z15mb_is_availableP13tagMacroblockjii
0000000000275ed4  w   DF .text	0000000000000018 _ZN7android15MPEG4DataSource4stopEv
00000000002615b8  w   DF .text	0000000000000030 _ZTv0_n24_N7android14MediaCodecList19BinderDeathObserverD0Ev
0000000000232f6c g    DF .text	000000000000008c _ZN7android6ACodec19signalSetParametersERKNS_2spINS_8AMessageEEE
00000000001b5b20 g    DF .text	0000000000000048 _ZN7android18ARawAudioAssemblerD0Ev
000000000059e1f8  w   DO .data	0000000000000050 _ZTVN7android6VectorINS_11KeyedVectorINS_7AStringES2_EEEE
0000000000279868 g    DF .text	00000000000000d8 _ZN7android11MPEG4Writer13writeLatitudeEi
0000000000291bf0 g    DF .text	00000000000000c0 _ZN7android8OMXCodec17getDecodingTimeUsEv
00000000002b13ec g    DF .text	0000000000000004 _ZN9mkvparser8Chapters4AtomC2Ev
00000000001c144c g    DF .text	00000000000000b8 _ZN7android8NuPlayer13GenericSource13setDataSourceERKNS_2spINS_17IMediaHTTPServiceEEEPKcPKNS_11KeyedVectorINS_7String8ESA_EE
000000000016f2cc g    DF .text	000000000000004c vorbis_book_clear
00000000002c3e48 g    DF .text	0000000000000054 _ZN7android10WebmWriter9numTracksEv
000000000020d5f8 g    DF .text	000000000000002c _ZN7android22SimpleSoftOMXComponent21prepareForDestructionEv
000000000013e0cc g    DF .text	0000000000000224 InitPsyConfigurationShort
0000000000232e4c g    DF .text	0000000000000008 _ZThn16_N7android6ACodecD1Ev
00000000002dbc7c g    DF .text	00000000000000c0 _ZN5movie26NnCodecAudioOutputReceiverD2Ev
00000000001d1d58 g    DF .text	0000000000000008 _ZN7android14NuPlayerDriver9initCheckEv
000000000029f61c  w   DF .text	0000000000000050 _ZN7android15ThrottledSourceD0Ev
00000000005a7450 g    DO .data	0000000000000008 _ZN7android29MEDIA_MIMETYPE_CONTAINER_M3U8E
00000000005aa2b8 g    DO .data	00000000000002a0 _ZTVN7android12SfMemoryHeapE
00000000002896c8  w   DF .text	0000000000000034 _ZN7android12SortedVectorINS_16key_value_pair_tIjbEEED2Ev
0000000000185ba8  w   DF .text	000000000000000c _ZNK7android21AudioTrackClientProxy17getUnderrunFramesEv
0000000000593558  w   DO .data	0000000000000058 _ZTVN7android12SortedVectorINS_2wpINS_19IMediaDeathNotifierEEEEE
00000000002393e0 g    DF .text	00000000000000cc _ZN7android6ACodec13setupAC3CodecEbii
000000000018aebc  w   DF .text	0000000000000040 _ZN7android26BpAudioPolicyServiceClientD1Ev
00000000005216f0 g    DO .rodata	0000000000000019 _ZTSN7android12OggExtractorE
0000000000598aa8 g    DO .data	0000000000000170 _ZTVN7android16BnStreamListenerE
0000000000208fdc  w   DF .text	0000000000000080 _ZN7android4ListIPNS_13OMXPluginBaseEED2Ev
00000000002ebf10 g    DF .text	0000000000000060 _ZN5movie12UtilsParseSEEPN7android10ABitReaderE
000000000011ab24 g    DF .text	00000000000000e0 _Z12mapSineFlagsPhiS_PiiPa
00000000001c11b8 g    DF .text	0000000000000054 _ZN7android19VideoFrameSchedulerD1Ev
00000000002e7fac g    DF .text	0000000000000018 _ZN5movie11DecoderImpl22SendErrorEventToClientEv
0000000000254834 g    DF .text	0000000000000008 _ZNK7android13DataURISource9initCheckEv
00000000001d0228  w   DF .text	000000000000003c _ZN7android6VectorIbED0Ev
0000000000233110 g    DF .text	0000000000000040 _ZN7android6ACodec26initiateCreateInputSurfaceEv
0000000000187464  w   DF .text	000000000000000c _ZThn8_NK7android11BnInterfaceINS_13IAudioFlingerEE22getInterfaceDescriptorEv
00000000001821d0 g    DF .text	00000000000000e0 _ZN7android10AudioTrack9setVolumeEff
0000000000266218 g    DF .text	0000000000000034 _ZN7android8MetaData8setFloatEjf
00000000005a7378 g    DO .data	0000000000000008 _ZN7android27MEDIA_MIMETYPE_AUDIO_AMR_WBE
00000000001daeb4  w   DF .text	0000000000000040 _ZNK7android6VectorINS_4ListINS_7AStringEEEE10do_destroyEPvm
00000000001543a0 g    DF .text	000000000000000c PVGetDecMemoryUsage
00000000002cb190 g    DF .text	0000000000000038 _ZN5movie8nnPlayer5PauseEb
00000000005ad6e8 g    DO .data	00000000000000c8 _ZTVN5movie14NnMSEExtractorE
000000000051c740 g    DO .rodata	0000000000000025 _ZTSN7android8NuPlayer15StreamingSourceE
000000000012bf50 g    DF .text	0000000000000870 _Z7sbr_decP7SBR_DECPsS1_S0_S1_iiP15SBR_HEADER_DATAP14SBR_FRAME_DATAP19SBR_PREV_FRAME_DATAiP6PS_DECj
00000000002ea5c4 g    DF .text	0000000000000380 _ZN5movie22EncoderMessageReceiver17onMessageReceivedERKN7android2spINS1_8AMessageEEE
00000000001e4c30 g    DF .text	0000000000000068 _ZN7android14LiveDataSource6readAtElPvm
00000000005a0348  w   DO .data	0000000000000090 _ZTVN7android12MemorySourceE
00000000001905a8  w   DF .text	0000000000000040 _ZN7android13BpOMXObserverD1Ev
00000000002cef1c g    DF .text	000000000000000c _ZN5movie12HLSExtractor7AdvanceEv
00000000002b9a78 g    DF .text	0000000000000060 _ZN8mkvmuxer5Track12set_languageEPKc
00000000000dd1ac g    DF .text	0000000000000044 TVMROutputSurfacePutBitsIndexed
000000000051bec0 g    DO .rodata	000000000000001a _ZTSN7android13AAMRAssemblerE
00000000002dbe84 g    DF .text	000000000000002c _ZN5movie26NnCodecAudioOutputReceiver26GetCurrentPlaybackPositionEPl
000000000022bc8c g    DF .text	000000000000001c _ZN7android28SoftVideoDecoderOMXComponent17outputBufferWidthEv
0000000000166624 g    DF .text	0000000000000090 h264bsdInitMbNeighbours
0000000000185b84  w   DF .text	0000000000000024 _ZN7android21AudioTrackClientProxyD0Ev
00000000004f5f58 g    DO .rodata	0000000000000780 RotVectorImag480
00000000005a4030 g    DO .data	0000000000000018 _ZTIN7android6ACodec11LoadedStateE
00000000002ee140  w   DF .text	0000000000000050 _ZThn8_N7android20BnGraphicBufferAllocD0Ev
00000000005d5728 g    DO .bss	0000000000000020 _ZN7android11AudioSystem10gLockCacheE
00000000005215c0 g    DO .rodata	000000000000001c _ZTSN7android15NuCachedSource2E
000000000020f730  w   DF .text	000000000000004c _ZN7android17AHandlerReflectorINS_22SimpleSoftOMXComponentEED0Ev
00000000002d23d0 g    DF .text	0000000000000040 _ZN5movie7NnMuxerD0Ev
00000000002eb46c g    DF .text	000000000000001c _ZN5movie9Extractor13UnselectTrackEi
00000000000fb048 g    DF .text	000000000000011c _Z22CConcealment_SetParamsP14CConcealParamsiiiii
00000000005a73e8 g    DO .data	0000000000000008 _ZN7android24MEDIA_MIMETYPE_AUDIO_AC3E
00000000002cb568 g    DF .text	0000000000000008 _ZN5movie8nnPlayer10GetLoopingEPb
0000000000268d60 g    DF .text	000000000000009c _ZN7android13MPEG2TSWriter10SourceInfoD1Ev
00000000002cd8f0 g    DF .text	00000000000000cc _ZN5movie14NnMSEExtractor19GetSampleTrackIndexEPm
000000000051bd60  w   DO .rodata	0000000000000027 _ZTSN7android4ListINS_2spINS_7ABufferEEEEE
00000000001cd460 g    DF .text	0000000000000208 _ZN7android8NuPlayer7DecoderC1ERKNS_2spINS_8AMessageEEERKNS2_INS0_6SourceEEERKNS2_INS0_8RendererEEERKNS2_INS_19NativeWindowWrapperEEERKNS2_INS0_9CCDecoderEEE
0000000000014580 g    DF .text	0000000000000004 NvMMCloseUDP
0000000000195c98 g    DF .text	000000000000007c _ZN7android11MediaPlayer11getMetadataEbbPNS_6ParcelE
000000000020625c g    DF .text	0000000000000034 _ZN7android3OMXD0Ev
00000000005078d0  w   DO .rodata	0000000000000035 _ZTSN7android12SortedVectorINS_16key_value_pair_tIixEEEE
00000000001c6828 g    DF .text	0000000000000040 _ZN7android8NuPlayer5pauseEv
00000000002c9d04  w   DF .text	0000000000000004 _ZN7android9WebmFloatD0Ev
0000000000136308 g    DF .text	0000000000000140 AdjThrInit
00000000001650d8 g    DF .text	000000000000019c h264bsdAddResidual
000000000029c630 g    DF .text	0000000000000008 mmap
000000000050c218 g    DO .rodata	00000000000000d0 h264bsdQpC
000000000019afc0 g    DF .text	0000000000000058 _ZN7android17StagefrightPlayer18getCurrentPositionEPi
00000000001f28e4 g    DF .text	0000000000000040 _ZN7android15PlaylistFetcher10pauseAsyncEv
0000000000177ae0  w   DF .text	0000000000000048 _ZThn8_N7android11BnInterfaceINS_13IEffectClientEED1Ev
00000000002b83dc  w   DF .text	0000000000000024 _ZN9mkvparser10AudioTrackD0Ev
00000000000db0ac g    DF .text	0000000000000008 TVMRVideoEncoderCreate
00000000001c1e28 g    DF .text	000000000000024c _ZN7android8NuPlayer13GenericSourceD1Ev
000000000018ffdc  w   DF .text	0000000000000008 _ZN7android5BpOMX12livesLocallyEji
0000000000163750 g    DF .text	000000000000070c h264bsdIntra16x16Prediction
0000000000197044 g    DF .text	00000000000000c0 _ZN7android11MediaPlayer18setNextMediaPlayerERKNS_2spIS0_EE
000000000019c4dc  w   DF .text	0000000000000060 _ZNK7android6VectorIdE8do_splatEPvPKvm
00000000005a1150 g    DO .data	00000000000000d8 _ZTCN7android13MPEG2TSSourceE0_NS_11MediaSourceE
000000000058fec0 g    DO .data	0000000000000018 _ZTIN7android8BnEffectE
0000000000284fc8  w   DF .text	00000000000000bc _ZNK7android6VectorINS_16NuMediaExtractor9TrackInfoEE15do_move_forwardEPvPKvm
00000000001845d4  w   DF .text	0000000000000058 _ZTv0_n24_N7android10AudioTrack13DeathNotifierD1Ev
000000000000021c g    DF .text	0000000000000008 NvAvpForceClockStayOn
00000000001c91c0 g    DF .text	00000000000000b4 _ZN7android8NuPlayer22processDeferredActionsEv
0000000000283144 g    DF .text	00000000000003d4 _ZN7android16NuMediaExtractor13setDataSourceERKNS_2spINS_17IMediaHTTPServiceEEEPKcPKNS_11KeyedVectorINS_7String8ES9_EEi
00000000001bc208 g    DF .text	0000000000000040 _ZN7android17AMPEG2TSAssemblerD1Ev
000000000051c3b0  w   DO .rodata	0000000000000022 _ZTSN7android8NuPlayer12SimpleActionE
00000000002cc620 g    DF .text	0000000000000048 _ZN5movie11NnExtractor11SelectTrackEi
00000000005a8e98 g    DO .data	0000000000000178 _ZTVN7android6MuxOMXE
000000000017fd2c g    DF .text	0000000000000050 memcpy_to_i16_from_float
00000000001d1ecc g    DF .text	0000000000000090 _ZN7android14NuPlayerDriver13setDataSourceERKNS_2spINS_13IStreamSourceEEE
00000000002dffec g    DF .text	00000000000000e8 _ZN5movie16NnCodecVideoSink34ClearNativeClientBuffersFilledListEv
000000000018b194 g    DF .text	0000000000000164 _ZN7android7IEffect11asInterfaceERKNS_2spINS_7IBinderEEE
000000000018bb80  w   DF .text	0000000000000040 _ZN7android11BpInterfaceINS_7IEffectEED1Ev
000000000058b500 g    DO .data	00000000000002f0 _ZTCN7android14BnAudioFlingerE0_NS_11BnInterfaceINS_13IAudioFlingerEEE
0000000000109824 g    DF .text	0000000000000104 _Z20imdct_copy_ov_and_nrP6mdct_tPii
0000000000236a0c g    DF .text	0000000000000060 _ZN7android6ACodec30configureTunneledVideoPlaybackEiRKNS_2spI13ANativeWindowEE
0000000000294a6c g    DF .text	0000000000000128 _ZN7android8OMXCodec15enablePortAsyncEj
00000000002eba20 g    DF .text	0000000000000010 _ZN5movie9MediaData10SetPointerEPKcPv
000000000059bc80 g    DO .data	0000000000000040 _ZTVN7android6SampleE
000000000019e35c g    DF .text	0000000000000008 XML_SetUnparsedEntityDeclHandler
0000000000227dd0 g    DF .text	00000000000000e4 _Z21SortFrameByLTFrameIdxPP13tagFrameStorei
00000000005aae20 g    DO .data	0000000000000018 _ZTIN7android11SfMemDealerE
00000000001e2ce8 g    DF .text	0000000000000040 _ZNK7android7AString10startsWithEPKc
00000000000db0f0 g    DF .text	0000000000000010 TVMRJPEGEncoderFeedFrameQuant
0000000000149fb4 g    DF .text	0000000000000734 CombinedHorzVertFilter_NoSoftDeblocking
0000000000517cb0  w   DO .rodata	0000000000000023 _ZTSN7android11BnInterfaceINS_4IOMXEEE
00000000004f039a g    DO .rodata	0000000000000020 aMaxCwLen
000000000026a6e8 g    DF .text	0000000000000154 _ZN7android13MPEG2TSWriter9addSourceERKNS_2spINS_11MediaSourceEEE
0000000000208db4 g    DF .text	0000000000000178 _ZN7android9OMXMasterD2Ev
0000000000279aec g    DF .text	0000000000000008 _ZNK7android11MPEG4Writer5Track26getEstimatedTrackSizeBytesEv
000000000018d444  w   DF .text	0000000000000040 _ZN7android11BpInterfaceINS_15IMediaCodecListEED1Ev
0000000000520d60  w   DO .rodata	0000000000000031 _ZTSN7android6VectorINS_2spINS_14MediaCodecInfoEEEEE
000000000019c53c  w   DF .text	0000000000000014 _ZNK7android6VectorIdE15do_move_forwardEPvPKvm
00000000001ccfe8  w   DF .text	0000000000000090 _ZN7android8NuPlayer9CCDecoderD0Ev
00000000002b37a0 g    DF .text	0000000000000008 _ZNK9mkvparser5Track6GetUidEv
000000000058a020  w   DO .data	0000000000000108 _ZTCN7android11BnInterfaceINS_19IAudioFlingerClientEEE8_NS_7IBinderE
0000000000192cfc g    DF .text	000000000000006c _ZNK7android14MediaCodecInfo17getSupportedMimesEPNS_6VectorINS_7AStringEEE
00000000002b19ac g    DF .text	00000000000000f4 _ZN9mkvparser4TagsD2Ev
00000000002eb844 g    DF .text	0000000000000008 _ZN5movie6Buffer11SetCapacityEm
00000000001fb020 g    DF .text	0000000000000074 _ZN7android9ATSParser7Program21convertPTSToTimestampEm
00000000005ac908  w   DO .data	0000000000000058 _ZTVN7android26WebmFrameEmptySourceThreadE
00000000002c5af4  w   DF .text	00000000000000b8 _ZN7android4ListINS_2spINS_11WebmElementEEEED0Ev
000000000017a690 g    DF .text	00000000000004a8 _ZN7android11AudioRecord18processAudioBufferEv
0000000000273edc g    DF .text	0000000000000114 _ZN7android11MPEG4Source17getSampleMetaDataEjPlS1_Pm
0000000000588f30 g    DO .data	0000000000000118 _ZTCN7android11AudioSystem18AudioFlingerClientE16_NS_7BBinderE
000000000000ffb8 g    DF .text	00000000000001a4 NvLoggerPrint
00000000001dfa9c g    DF .text	0000000000000080 _ZNK7android8AMessage20senderAwaitsResponseEPj
00000000005a3208 g    DO .data	00000000000000e0 _ZTVN7android28SoftVideoEncoderOMXComponentE
000000000013fa5c g    DF .text	00000000000000b0 QCInit
00000000001cc1a4  w   DF .text	0000000000000024 _ZN7android8NuPlayer10SeekActionD0Ev
00000000002667e8 g    DF .text	0000000000000144 _ZN7android8MetaData11findPointerEjPPv
00000000002ba988 g    DF .text	000000000000003c _ZNK8mkvmuxer7Chapter11ShallowCopyEPS0_
000000000029a5d0 g    DF .text	0000000000000164 _ZN7android11SampleTable20getMetaDataForSampleEjPlPmPjPbS3_
00000000002af308 g    DF .text	00000000000007c8 _ZN9mkvparser7Segment7GetNextEPKNS_7ClusterE
0000000000193c6c  w   DF .text	000000000000003c _ZN7android6VectorIjED0Ev
00000000002cb1c8 g    DF .text	000000000000004c _ZN5movie8nnPlayer6SeekToEl
000000000029ff18 g    DF .text	0000000000000140 _ZN7android15TimedEventQueue12cancelEventsEPFbPvRKNS_2spINS0_5EventEEEES1_b
0000000000013df8 g    DF .text	0000000000000068 NvMMUtilDeallocateBuffer
000000000025d96c g    DF .text	00000000000001ec _ZN7android10MediaCodec26returnBuffersToCodecOnPortEi
00000000001011ac g    DF .text	00000000000000f8 FDK_getBwd
000000000016c628 g    DF .text	0000000000000178 h264bsdCheckRedundantPicCnt
0000000000588ad0 g    DO .data	0000000000000168 _ZTCN7android11AudioSystem18AudioFlingerClientE8_NS_20BnAudioFlingerClientE
000000000025206c g    DF .text	0000000000000068 _ZN7android13AwesomePlayer19setVideoScalingModeEi
00000000002ca364 g    DF .text	0000000000000024 _ZN5movie6Player7DestroyEPS0_
000000000018fb44  w   DF .text	0000000000000048 _ZTv0_n24_N7android11BnInterfaceINS_12IOMXObserverEED1Ev
00000000000ea5e8 g    DF .text	0000000000000004 _ZN19CDrcPresModeWrapperD2Ev
0000000000242d1c g    DF .text	00000000000003b4 _ZN7android12AMRExtractorC2ERKNS_2spINS_10DataSourceEEE
00000000000f9140 g    DF .text	0000000000000344 _Z22CBlock_ReadSectionDataP13FDK_BITSTREAMP22CAacDecoderChannelInfoPK16SamplingRateInfoj
0000000000593600  w   DO .data	0000000000000018 _ZTIZN7android14ReferenceMover15move_referencesINS_19IMediaDeathNotifierEEEvPNS_2wpIT_EEPKS5_mE7Renamer
000000000004fa10 g    DF .text	00000000000000e4 NvDdk2dClose
0000000000593c60 g    DO .data	0000000000000118 _ZTCN7android19BnMediaPlayerClientE8_NS_7BBinderE
0000000000218550 g    DF .text	0000000000000004 RCInitGOP
0000000000185818 g    DF .text	000000000000001c _ZN7android21AudioTrackServerProxy19tallyUnderrunFramesEj
00000000002315e8  w   DF .text	0000000000000004 _ZNK7android12SortedVectorINS_16key_value_pair_tIlNS_18TimedTextSRTSource8TextInfoEEEE12do_constructEPvm
00000000002e017c g    DF .text	0000000000000054 _ZN5movie16NnCodecVideoSink23ClearBuffersReleaseListEv
00000000002650c0 g    DF .text	0000000000000118 _ZN7android10MediaMuxerC2EPNS_17MPEG4WriterStreamENS0_12OutputFormatE
000000000018bae8  w   DF .text	0000000000000048 _ZTv0_n24_N7android8BnEffectD1Ev
0000000000585890 g    DO .data	0000000000000018 _ZTIN7android8SoftAAC2E
00000000001fbd08  w   DF .text	0000000000000034 _ZN7android6VectorINS_2spINS_9ATSParser7ProgramEEEED2Ev
00000000005d57e8 g    DO .bss	0000000000000008 _ZN7android11AudioSystem11gInBuffSizeE
00000000001b70f4 g    DF .text	00000000000011fc _ZN7android13APacketSourceC2ERKNS_2spINS_19ASessionDescriptionEEEm
000000000010b83c  w   DF .text	0000000000000168 _Z11scaleValuesPiPKiii
00000000002cb2b4 g    DF .text	000000000000009c _ZN5movie8nnPlayer13GetTrackCountEPi
00000000002c7878 g    DF .text	0000000000000008 _ZN7android12WebmUnsigned16serializePayloadEPh
00000000002b1988 g    DF .text	0000000000000008 _ZNK9mkvparser8Chapters7Display11GetLanguageEv
000000000017d254 g    DF .text	00000000000000b0 _ZN7android11AudioSystem15getInputForAttrEPK18audio_attributes_tPi15audio_session_tj14audio_format_tj19audio_input_flags_t
00000000002b236c g    DF .text	0000000000000004 _ZN9mkvparser4Tags9SimpleTagD1Ev
000000000017e628  w   DF .text	0000000000000050 _ZTv0_n24_N7android20BnAudioFlingerClientD0Ev
000000000022e910 g    DF .text	0000000000000098 _ZN7android15TimedTextDriver5startEv
00000000002abdac g    DF .text	0000000000000070 _ZN9mkvparser7Segment24DoLoadClusterUnknownSizeERxRl
00000000001900c8  w   DF .text	0000000000000008 _ZN7android5BpOMX12allocateNodeEPKcRKNS_2spINS_12IOMXObserverEEEPj
00000000001c9c34 g    DF .text	0000000000000088 _ZN7android8NuPlayer26tryOpenAudioSinkForOffloadERKNS_2spINS_8AMessageEEEb
00000000002803e0  w   DF .text	0000000000000110 _ZN7android4ListINS_11MPEG4Writer5ChunkEEC2ERKS3_
0000000000265818 g    DF .text	000000000000007c _ZN7android10MediaMuxer5startEv
00000000000f7c7c g    DF .text	0000000000000258 aacDecoder_SetParam
000000000018b898  w   DF .text	0000000000000048 _ZThn8_N7android11BnInterfaceINS_7IEffectEED1Ev
00000000005a5188  w   DO .data	0000000000000010 _ZTIN7android4ListIPNS_11MediaBufferEEE
00000000002a89dc g    DF .text	0000000000000258 _ZN9mkvparser18ParseElementHeaderEPNS_10IMkvReaderERxxS2_S2_
00000000001322fc g    DF .text	0000000000000044 FDKaalloc
00000000001de9c4 g    DF .text	0000000000000008 _ZN7android8AMessage9setTargetEi
00000000005a01c0  w   DO .data	0000000000000028 _ZTIN7android12SortedVectorINS_16key_value_pair_tINS_7AStringENS_2spINS_9M3UParser10MediaGroupEEEEEEE
00000000002304b8 g    DF .text	00000000000000fc _ZN7android15TimedTextPlayer14notifyListenerEPKNS_6ParcelE
00000000005ac828 g    DO .data	0000000000000098 _ZTVN7android10WebmWriterE
000000000005012c g    DF .text	00000000000000fc NvDdk2dFlushExt
00000000001d3cc8 g    DF .text	0000000000000040 _ZN7android8NuPlayer8Renderer24signalEnableOffloadAudioEv
00000000002db010 g    DF .text	0000000000000004 _ZN5movie13NnMediaCommonD2Ev
000000000001106c g    DF .text	0000000000000034 NvMMWaitForVideoToStart
0000000000231f00 g    DF .text	000000000000007c _ZN7android12AACExtractor11getMetaDataEv
0000000000153d4c g    DF .text	0000000000000370 PVAllocVideoData
0000000000590738  w   DO .data	0000000000000180 _ZTVN7android11BnInterfaceINS_7IEffectEEE
00000000002baea8 g    DF .text	0000000000000118 _ZN8mkvmuxer8Chapters19ExpandChaptersArrayEv
00000000001d07c0 g    DF .text	0000000000000040 _ZN7android8NuPlayer11DecoderBase16initiateShutdownEv
00000000001cd2c0  w   DF .text	000000000000006c _ZNK7android12SortedVectorINS_16key_value_pair_tIlNS_2spINS_7ABufferEEEEEE16do_move_backwardEPvPKvm
0000000000241f08 g    DF .text	0000000000000024 _ZN7android6ACodec13FlushingState19onInputBufferFilledERKNS_2spINS_8AMessageEEE
00000000002df2b8 g    DF .text	0000000000000194 _ZN5movie16NnCodecAudioSink14OnFormatChangeEii
00000000002e45a8  w   DF .text	000000000000004c _ZN7android17AHandlerReflectorIN5movie20NnCodecInputReceiverEED0Ev
0000000000139e08 g    DF .text	0000000000000014 CopyBitBuf
000000000058a768 g    DO .data	0000000000000040 _ZTVN7android10AudioTrackE
00000000002b1980 g    DF .text	0000000000000008 _ZNK9mkvparser8Chapters7Display9GetStringEv
000000000016f07c g    DF .text	000000000000000c oggpack_eop
000000000058f960 g    DO .data	0000000000000180 _ZTCN7android8BnEffectE0_NS_11BnInterfaceINS_7IEffectEEE
000000000059a910  w   DO .data	00000000000000b0 _ZTCN7android11BnInterfaceINS_15IStreamListenerEEE0_NS_15IStreamListenerE
00000000002a7268 g    DF .text	0000000000000008 _ZN7android17MatroskaExtractor11countTracksEv
0000000000242220  w   DF .text	000000000000000c _ZN7android6ACodec13DeathNotifier10binderDiedERKNS_2wpINS_7IBinderEEE
0000000000298184  w   DF .text	0000000000000084 _ZNK7android6VectorINS_8OMXCodec10BufferInfoEE7do_copyEPvPKvm
000000000029cc0c g    DF .text	0000000000000008 _ZTv0_n80_NK7android12SfMemoryHeap8getFlagsEv
00000000005ab7d0 g    DO .data	0000000000000048 _ZTIN7android18SurfaceMediaSourceE
000000000019bf38  w   DF .text	0000000000000034 _ZN7android6VectorIdED2Ev
00000000005aece0  w   DO .data	0000000000000108 _ZTCN5movie22NULLGraphicBufferAllocE8_N7android7IBinderE
000000000019e328 g    DF .text	000000000000000c XML_SetDefaultHandler
00000000005a4ec0 g    DO .data	0000000000000018 _ZTIN7android9AMRSourceE
00000000002cc104 g    DF .text	000000000000006c _ZN5movie11NnExtractorC1Ev
00000000005abc30 g    DO .data	0000000000000018 _ZTIN7android10VBRISeekerE
00000000005887d0  w   DO .data	0000000000000018 _ZTIN7android22AudioRecordClientProxyE
00000000002d7510  w   DF .text	0000000000000004 _ZN5movie14PlayerObserverD2Ev
00000000002432b4 g    DF .text	0000000000000010 _ZN7android12AMRExtractor11countTracksEv
000000000026b898 g    DF .text	000000000000003c _ZN7android13MPEG2TSWriter5crc32EPKhm
00000000002b93f4 g    DF .text	0000000000000144 _ZN8mkvmuxer5Track18AddContentEncodingEv
00000000001545b4 g    DF .text	0000000000000064 PVDecodeVideoFrame
00000000002a4d10 g    DF .text	00000000000002b4 _ZN7android14MatroskaSourceC1ERKNS_2spINS_17MatroskaExtractorEEEm
000000000059ad08  w   DO .data	0000000000000018 _ZTVZN7android14ReferenceMover15move_referencesINS_7IMemoryEEEvPNS_2spIT_EEPKS5_mE7Renamer
00000000001d0734 g    DF .text	000000000000008c _ZN7android8NuPlayer11DecoderBase12signalResumeEb
00000000005a7418 g    DO .data	0000000000000008 _ZN7android30MEDIA_MIMETYPE_CONTAINER_MPEG4E
000000000051dbd0  w   DO .rodata	000000000000001d _ZTSN7android16ConsumerListenerE
000000000029425c g    DF .text	0000000000000810 _ZN7android8OMXCodec13onStateChangeE13OMX_STATETYPE
000000000029c650 g    DF .text	000000000000002c fcntl
000000000015438c g    DF .text	0000000000000008 PVGetDecOutputFrame
00000000001b56c8  w   DF .text	0000000000000034 _ZN7android12SortedVectorINS_16key_value_pair_tIjNS_2spINS_10ARTPSourceEEEEEED2Ev
00000000001b6964  w   DF .text	0000000000000098 _ZN7android4ListINS_2spINS_7ABufferEEEED0Ev
0000000000520290 g    DO .rodata	0000000000000015 _ZTSN7android9AMRSourceE
00000000002a7f4c  w   DF .text	000000000000003c _ZN7android6VectorINS_17MatroskaExtractor9TrackInfoEED0Ev
00000000002eb87c g    DF .text	0000000000000034 _ZN5movie9MediaDataC2Ev
00000000000db064 g    DF .text	000000000000000c TVMRCaptureGetFrameYUVEx
00000000002dbf20 g    DF .text	0000000000000014 _ZN5movie26NnCodecAudioOutputReceiver19GetOutputBufferSizeEiPi
00000000001906cc  w   DF .text	0000000000000048 _ZTv0_n24_N7android13BpOMXObserverD1Ev
0000000000199b50 g    DF .text	0000000000000090 _ZN7android10SoundEvent3setERKNS_2spINS_6SampleEEEiffiif
00000000002ca7f0 g    DF .text	0000000000000024 _ZN5movie13BrowserPlayer16GetSupportedTypeEi
00000000002bb1d0 g    DF .text	000000000000001c _ZN8mkvmuxer7ClusterC1Eyx
00000000001e3438 g    DF .text	0000000000000004 _ZN7android9AWakeLock7releaseEb
0000000000203b3c  w   DF .text	0000000000000034 _ZN7android6VectorINS_19GraphicBufferSource11CodecBufferEED2Ev
00000000002b2164 g    DF .text	00000000000001f0 _ZN9mkvparser4Tags9SimpleTag5ParseEPNS_10IMkvReaderExx
00000000002b6f9c g    DF .text	000000000000001c _ZN9mkvparser7ClusterC2Ev
000000000018a4a0 g    DF .text	0000000000000008 _ZThn8_N7android20BnAudioFlingerClient10onTransactEjRKNS_6ParcelEPS1_j
00000000002b1c5c g    DF .text	00000000000000ec _ZN9mkvparser4Tags15ExpandTagsArrayEv
00000000002a32e8 g    DF .text	0000000000000084 _ZN7android12WAVExtractor8getTrackEm
0000000000255b60 g    DF .text	000000000000010c _ZN7android18CurlHttpConnectionD2Ev
00000000002d7948 g    DF .text	0000000000000010 _ZN5movie11NnMediaDataC1ERKS0_
00000000000fe31c g    DF .text	000000000000155c _Z12CRvlc_DecodeP22CAacDecoderChannelInfoP28CAacDecoderStaticChannelInfoP13FDK_BITSTREAM
00000000001f8160 g    DF .text	0000000000000098 _ZNK7android3ID38Iterator7getDataEPm
000000000022cd4c g    DF .text	0000000000000394 _ZN7android28SoftVideoEncoderOMXComponent22ConvertFlexYUVToPlanarEPhmmP13android_ycbcrii
00000000005a3e98 g    DO .data	0000000000000078 _ZTVN7android6ACodec17IdleToLoadedStateE
0000000000280780 g    DF .text	0000000000000064 _ZN7android9PageCache11acquirePageEv
00000000005ae1f8 g    DO .data	0000000000000090 _ZTVN5movie7EncoderE
00000000001ff37c g    DF .text	0000000000000484 _ZN7android21ElementaryStreamQueue27dequeueAccessUnitMPEG4VideoEv
00000000005a2678  w   DO .data	0000000000000020 _ZTVN7android4ListINS_11omx_messageEEE
000000000019637c g    DF .text	000000000000008c _ZN7android11MediaPlayer11getDurationEPi
00000000001e1974 g    DF .text	0000000000000324 _ZN7android7AString5eraseEmm
000000000058f288  w   DO .data	00000000000000f0 _ZTVN7android11BpInterfaceINS_25IAudioPolicyServiceClientEEE
000000000024edb8 g    DF .text	00000000000003fc _ZN7android13AwesomePlayer6play_lEv
0000000000595730 g    DO .data	0000000000000108 _ZTCN7android5BnOMXE8_NS_7IBinderE
00000000001e0810  w   DF .text	00000000000001f4 _ZNSt3__113unordered_mapImPKcNS_4hashImEENS_8equal_toImEENS_9allocatorINS_4pairIKmS2_EEEEEixERS9_
00000000005ae7a0  w   DO .data	0000000000000168 _ZTCN5movie22NULLGraphicBufferAllocE0_N7android20BnGraphicBufferAllocE
00000000004f05f4 g    DO .rodata	0000000000001800 LowDelaySynthesis512
000000000058add8 g    DO .data	0000000000000078 _ZTVN7android21AudioTrackServerProxyE
0000000000232680 g    DF .text	0000000000000544 _ZN7android6ACodecC2Ev
00000000002ada4c g    DF .text	0000000000000018 _ZNK9mkvparser4Cues11DoneParsingEv
00000000005223c0 g    DO .rodata	0000000000000017 _ZTSN7android10WebmWriterE
00000000002c9d9c  w   DF .text	0000000000000040 _ZN7android15WebmSimpleBlockD0Ev
00000000002d6760 g    DF .text	0000000000000010 _ZN5movie13NnCodecPlayer10GetLoopingEPb
000000000024d468 g    DF .text	0000000000000070 _ZN7android13AwesomePlayer11setListenerERKNS_2wpINS_15MediaPlayerBaseEEE
00000000001f3250 g    DF .text	0000000000000374 _ZN7android15PlaylistFetcher14onMonitorQueueEv
00000000002dbe50 g    DF .text	0000000000000034 _ZN5movie26NnCodecAudioOutputReceiver6ResumeEb
00000000002420ac  w   DF .text	0000000000000054 _ZN7android6ACodec18UninitializedStateD0Ev
0000000000514f18 g    DO .rodata	0000000000001008 sincos_lookup0
000000000058d280  w   DO .data	0000000000000098 _ZTCN7android11BnInterfaceINS_13IAudioFlingerEEE0_NS_10IInterfaceE
0000000000199720 g    DF .text	000000000000008c _ZN7android6SampleC2Eiill
00000000000ecf10  w   DF .text	0000000000000010 _ZNK7android6VectorINS_22SimpleSoftOMXComponent8PortInfoEE16do_move_backwardEPvPKvm
0000000000515f20 g    DO .rodata	0000000000001000 sincos_lookup1
0000000000190158  w   DF .text	0000000000000008 _ZN7android5BpOMX14allocateBufferEjjmPjPPv
000000000020a60c g    DF .text	000000000000006c _ZN7android15OMXNodeInstance8getStateEP13OMX_STATETYPE
0000000000268e28 g    DF .text	000000000000001c _ZN7android13MPEG2TSWriter10SourceInfo26incrementContinuityCounterEv
0000000000517360 g    DO .rodata	0000000000000017 _ZTSN7android10AudioTrackE
0000000000184914 g    DF .text	0000000000000028 _ZN7android18audio_track_cblk_tC1Ev
000000000017c6c0 g    DF .text	0000000000000068 _ZN7android11AudioSystem21releaseAudioSessionIdEii
00000000001986ec g    DF .text	0000000000000004 _ZN7android9SoundPool4dumpEv
0000000000205e64 g    DF .text	0000000000000008 _ZN7android3OMX18CallbackDispatcher11setPriorityEi
00000000001c05a8 g    DF .text	000000000000004c _ZN7android19VideoFrameScheduler3PLL5resetEf
0000000000280aa4 g    DF .text	000000000000029c _ZN7android15NuCachedSource2C1ERKNS_2spINS_10DataSourceEEEPKcbPN5movie14PlayerObserverE
00000000005a29c0  w   DO .data	0000000000000028 _ZTIN7android12SortedVectorINS_16key_value_pair_tIjP20OMX_BUFFERHEADERTYPEEEEE
0000000000277eac g    DF .text	000000000000011c _ZN7android11MPEG4Writer19estimateMoovBoxSizeEi
000000000027ca54 g    DF .text	000000000000005c _ZN7android11MPEG4Writer5Track24copyAVCCodecSpecificDataEPKhm
00000000001900f8  w   DF .text	0000000000000008 _ZN7android5BpOMX9setConfigEj13OMX_INDEXTYPEPKvm
0000000000148d3c g    DF .text	0000000000000c5c CombinedHorzVertRingFilter
000000000026c77c g    DF .text	0000000000000088 _ZN7android14MPEG4Extractor29updateHighWaterThresholdBytesEl
000000000020d258  w   DF .text	0000000000000060 _ZNK7android6VectorINS_15OMXNodeInstance12ActiveBufferEE8do_splatEPvPKvm
0000000000015f0c g    DF .text	0000000000000090 NvMMLiteBlockReturnBuffersToAllocator
00000000002b215c g    DF .text	0000000000000008 _ZN9mkvparser4Tags9SimpleTag4InitEv
0000000000276c50 g    DF .text	0000000000000010 _ZN7android28SetMPEG4WriterThreadPriorityEi
000000000015fd38 g    DF .text	0000000000000018 h264bsdPicHeight
00000000005909f0  w   DO .data	0000000000000098 _ZTCN7android11BnInterfaceINS_7IEffectEEE0_NS_10IInterfaceE
00000000002b9bcc g    DF .text	0000000000000030 _ZN8mkvmuxer10VideoTrack13SetStereoModeEy
000000000024ead4 g    DF .text	0000000000000220 _ZN7android13AwesomePlayer7pause_lEb
000000000026157c  w   DF .text	0000000000000028 _ZN7android14MediaCodecList19BinderDeathObserverD0Ev
000000000029d060  w   DF .text	0000000000000098 _ZN7android11BnInterfaceINS_11IMemoryHeapEE19queryLocalInterfaceERKNS_8String16E
00000000002516c0 g    DF .text	0000000000000080 _ZN7android13AwesomePlayer12setParameterEiRKNS_6ParcelE
000000000016e9f8 g    DF .text	00000000000000c0 H264SwDecGetInfo
0000000000168ad4 g    DF .text	0000000000000440 h264bsdInterpolateMidVerQuarter
0000000000189f9c  w   DF .text	0000000000000050 _ZThn8_N7android14BpAudioFlingerD0Ev
00000000005ab3b8  w   DO .data	0000000000000050 _ZTVN7android6VectorINS_11SfMemDealer7MemInfoEEE
0000000000585a58  w   DO .data	0000000000000050 _ZTVN7android6VectorIlEE
0000000000265f40 g    DF .text	0000000000000008 _ZN7android8MetaData5clearEv
00000000002a497c g    DF .text	00000000000000f4 _ZNK7android17MatroskaExtractor9TrackInfo4findEx
00000000005214b0  w   DO .rodata	0000000000000029 _ZTSN7android4ListINS_11MPEG4Writer5ChunkEEE
000000000018c1d0  w   DF .text	0000000000000050 _ZThn8_N7android8BpEffectD0Ev
00000000001cd0e8  w   DF .text	000000000000005c _ZNK7android12SortedVectorINS_16key_value_pair_tIlNS_2spINS_7ABufferEEEEEE12do_constructEPvm
000000000022f10c  w   DF .text	0000000000000034 _ZN7android12SortedVectorINS_16key_value_pair_tImNS_2spINS_15TimedTextSourceEEEEEED2Ev
0000000000146780 g    DF .text	0000000000000294 _ZN7android9SoftMPEG424handlePortSettingsChangeEv
0000000000178e6c g    DF .text	00000000000000f8 _ZN7android11AudioRecordC2E14audio_source_tj14audio_format_tjmPFviPvS3_ES3_jiNS0_13transfer_typeE19audio_input_flags_tPK18audio_attributes_t
0000000000188e00  w   DF .text	000000000000015c _ZN7android14BpAudioFlinger9openInputEiPiP12audio_configPjRKNS_7String8E14audio_source_t19audio_input_flags_t
000000000058eee0  w   DO .data	0000000000000060 _ZTTN7android26BpAudioPolicyServiceClientE
00000000001ba944 g    DF .text	0000000000000040 _ZN7android13AAMRAssemblerD1Ev
00000000001f046c g    DF .text	00000000000001a4 _ZN7android9M3UParser14parseByteRangeERKNS_7AStringEmPmS4_
00000000002e6b1c g    DF .text	00000000000001a4 _ZN5movie11DecoderImpl19GetOutputBufferSizeEPiS1_
00000000000eae70  w   DF .text	0000000000000034 _ZN7android6VectorIlED2Ev
0000000000278764 g    DF .text	0000000000000010 _ZN7android11MPEG4Writer5Track5pauseEv
00000000002db554 g    DF .text	0000000000000034 _ZN5movie26NnCodecVideoOutputReceiver10InitializeEPNS_5CodecEiiii
00000000000ed0ac  w   DF .text	00000000000000b0 _ZNK7android6VectorINS_22SimpleSoftOMXComponent10BufferInfoEE15do_move_forwardEPvPKvm
00000000001d7228 g    DF .text	0000000000000084 _ZN7android8NuPlayer8Renderer17AudioSinkCallbackEPNS_15MediaPlayerBase9AudioSinkEPvmS5_NS3_10cb_event_tE
0000000000193648 g    DF .text	0000000000000030 _ZN7android14MediaCodecInfo8completeEv
00000000002d0774 g    DF .text	000000000000012c _ZN5movie7NnCodecC2Ev
000000000058e220  w   DO .data	0000000000000018 _ZTIN7android20BpAudioFlingerClientE
000000000059aef8  w   DO .data	0000000000000050 _ZTVN7android6VectorINS_7AStringEEE
00000000001f2164 g    DF .text	000000000000038c _ZN7android15PlaylistFetcher13decryptBufferEmRKNS_2spINS_7ABufferEEEb
000000000001059c g    DF .text	0000000000000094 NvMMGetTime
00000000002a39e0 g    DF .text	0000000000000470 _ZN7android9WAVSource4readEPPNS_11MediaBufferEPKNS_11MediaSource11ReadOptionsE
00000000001f8940 g    DF .text	0000000000000034 _ZN7android19AnotherPacketSourceD0Ev
0000000000101a94 g    DF .text	00000000000000d8 FDK_toolsGetLibInfo
00000000002ee228  w   DF .text	0000000000000040 _ZN7android11BnInterfaceINS_19IGraphicBufferAllocEED1Ev
00000000002b6cf8 g    DF .text	0000000000000240 _ZN9mkvparser7Cluster11CreateBlockExxxx
00000000001d8338 g    DF .text	00000000000001dc _ZN7android8NuPlayer15StreamingSource12onReadBufferEv
0000000000171230 g    DF .text	00000000000000b8 vorbis_dsp_clear
00000000000ce988 g    DF .text	000000000000003c TVMRCacheSyncForCpu
000000000011ee94 g    DF .text	00000000000005c0 _Z21rescaleSubbandSamplesPPiS0_iiiii
0000000000161b44 g    DF .text	0000000000000408 h264bsdWriteOutputBlocks
0000000000589db0  w   DO .data	00000000000000a8 _ZTCN7android11BnInterfaceINS_19IAudioFlingerClientEEE0_NS_19IAudioFlingerClientE
00000000001bd198 g    DF .text	000000000000002c _ZN7android13AAVCAssembler12assembleMoreERKNS_2spINS_10ARTPSourceEEE
00000000000ed268  w   DF .text	000000000000007c _ZN7android4ListIPNS_22SimpleSoftOMXComponent10BufferInfoEED0Ev
00000000002a4108 g    DF .text	000000000000001c _ZN7android12WVMExtractor16getTrackMetaDataEmj
00000000001e1510 g    DF .text	00000000000000c0 _ZN7android7AStringC2ERKS0_mm
0000000000233290 g    DF .text	0000000000000040 _ZN7android6ACodec11signalFlushEv
00000000001324d4 g    DF .text	000000000000000c FDKrewind
000000000018ae6c  w   DF .text	0000000000000050 _ZTv0_n24_N7android11BpInterfaceINS_25IAudioPolicyServiceClientEED0Ev
00000000002bbeec g    DF .text	0000000000000098 _ZN8mkvmuxer8SeekHead5WriteEPNS_10IMkvWriterE
00000000000fa96c g    DF .text	00000000000000cc _Z13IcsReadMaxSfbP13FDK_BITSTREAMP8CIcsInfoPK16SamplingRateInfo
00000000000cc9cc g    DF .text	0000000000000104 TVMRDeviceDestroy
00000000001c65d8 g    DF .text	0000000000000158 _ZN7android8NuPlayer27setVideoSurfaceTextureAsyncERKNS_2spINS_22IGraphicBufferProducerEEE
00000000001fac1c g    DF .text	0000000000000068 _ZN7android9ATSParser7Program9signalEOSEi
0000000000517a50 g    DO .rodata	000000000000001d _ZTSN7android16BnMediaCodecListE
000000000018f154 g    DF .text	0000000000000008 _ZN7android5BnOMX10onTransactEjRKNS_6ParcelEPS1_j
00000000002c78cc g    DF .text	0000000000000048 _ZN7android9WebmFloat16serializePayloadEPh
000000000017a4f0 g    DF .text	0000000000000068 _ZN7android11AudioRecord13releaseBufferEPNS0_6BufferE
00000000002a5468 g    DF .text	0000000000000184 _ZN7android17MatroskaExtractor15createSeekTableEv
00000000002b9564 g    DF .text	0000000000000130 _ZNK8mkvmuxer5Track11PayloadSizeEv
00000000005953f0 g    DO .data	0000000000000178 _ZTCN7android5BnOMXE0_NS_4IOMXE
0000000000509b7c g    DO .rodata	00000000000002a8 RvlcDCTtabIntra
0000000000593540 g    DO .data	0000000000000018 _ZTIN7android19IMediaDeathNotifier13DeathNotifierE
0000000000209ae8 g    DF .text	0000000000000158 _ZN7android15OMXNodeInstanceD2Ev
00000000005224c0  w   DO .rodata	0000000000000030 _ZTSN7android12LightRefBaseINS_15WebmFrameThreadEEE
000000000051bcc0  w   DO .rodata	0000000000000032 _ZTSN7android4ListINS_14ARTPConnection10StreamInfoEEE
00000000005a86e8  w   DO .data	0000000000000020 _ZTVN7android4ListIPlEE
00000000001fcc20 g    DF .text	0000000000000018 _ZNK7android9ATSParser10PSISection4sizeEv
0000000000180074 g    DF .text	000000000000007c memcpy_to_q8_23_from_float_with_clamp
000000000018c784  w   DF .text	0000000000000048 _ZN7android11BpInterfaceINS_13IEffectClientEED0Ev
0000000000278774 g    DF .text	0000000000000084 _ZN7android11MPEG4Writer16stopWriterThreadEv
000000000029fe58 g    DF .text	00000000000000c0 _ZN7android15TimedEventQueue11cancelEventEi
000000000058e990 g    DO .data	0000000000000018 _ZTIN7android25IAudioPolicyServiceClientE
00000000001bf2ac  w   DF .text	0000000000000058 _ZNK7android12SortedVectorINS_16key_value_pair_tINS_7AStringES2_EEE7do_copyEPvPKvm
000000000022e7bc  w   DF .text	0000000000000034 _ZN7android6VectorINS_15TimedTextDriver14TextSourceTypeEED2Ev
000000000017ee7c  w   DF .text	0000000000000050 _ZThn8_N7android11BnInterfaceINS_25IAudioPolicyServiceClientEED0Ev
000000000024a928 g    DF .text	0000000000000030 _ZN7android12AVIExtractor13getSampleTimeEmmPl
0000000000520940 g    DO .rodata	0000000000000027 _ZTSN7android26WindowedLinearFitEstimatorE
000000000058bb10 g    DO .data	0000000000000118 _ZTCN7android14BnAudioFlingerE8_NS_7BBinderE
00000000001bc0d4 g    DF .text	000000000000002c _ZN7android25AMPEG4ElementaryAssembler12assembleMoreERKNS_2spINS_10ARTPSourceEEE
00000000001d2248 g    DF .text	0000000000000198 _ZN7android14NuPlayerDriver5startEv
000000000021f6e4 g    DF .text	0000000000000280 _Z5transPhiS_Ps
0000000000518080  w   DO .rodata	000000000000001b _ZTSN7android14MediaCodecInfoE
00000000002267d8 g    DF .text	0000000000000020 ce_TotalCoeffTrailingOnesChromaDC
00000000002cb700 g    DF .text	0000000000000014 _ZNK11nnAudioSink7latencyEv
000000000016e190 g    DF .text	00000000000005b4 h264bsdDecodeVuiParameters
000000000001f384 g    DF .text	00000000000000bc NVOMX_SendClockUpdate
00000000005a4910  w   DO .data	0000000000000108 _ZTCN7android13CodecObserverE8_NS_7IBinderE
0000000000287374 g    DF .text	0000000000000008 _ZN7android10SoftVorbis11initDecoderEv
000000000029ab68 g    DF .text	0000000000000068 _ZN7android9SfNvnUtil19FreeGrallocBufIndexEv
000000000020fbc8 g    DF .text	000000000000000c _ZN7android16SoftOMXComponent9getConfigE13OMX_INDEXTYPEPv
000000000024c238 g    DF .text	00000000000002f4 _ZN7android13AwesomePlayer12onStreamDoneEv
00000000001956b8 g    DF .text	0000000000000074 _ZN7android11MediaPlayer23doSetRetransmitEndpointERKNS_2spINS_12IMediaPlayerEEE
000000000059ed18 g    DO .data	0000000000000090 _ZTVN7android8NuPlayer11DecoderBaseE
00000000002e9570 g    DF .text	0000000000000178 _ZN5movie11EncoderImplD1Ev
000000000012d608 g    DF .text	000000000000002c _Z14FreeRam_ps_decPP6PS_DEC
000000000025a374 g    DF .text	0000000000000078 _ZN7android10MediaCodec30cancelPendingDequeueOperationsEv
000000000023f11c g    DF .text	000000000000017c _ZN7android6ACodec11LoadedState17onMessageReceivedERKNS_2spINS_8AMessageEEE
00000000002b9538 g    DF .text	000000000000002c _ZNK8mkvmuxer5Track25GetContentEncodingByIndexEj
000000000027f470 g    DF .text	00000000000000a0 _ZN7android11MPEG4Writer5Track12writeDrefBoxEv
0000000000517970 g    DO .rodata	000000000000001a _ZTSN7android13IEffectClientE
0000000000132498 g    DF .text	000000000000001c FDKfwrite
00000000001dd38c  w   DF .text	0000000000000044 _ZTv0_n24_N7android7ALooper12LooperThreadD0Ev
00000000005a1b40 g    DO .data	0000000000000018 _ZTIN7android3OMX18CallbackDispatcherE
00000000002c7824 g    DF .text	0000000000000054 _ZN7android12WebmUnsignedC1Emm
0000000000217a4c g    DF .text	000000000000003c BitstreamEncInit
00000000002cda4c g    DF .text	00000000000000ac _ZNK5movie14NnMSEExtractor17GetCachedDurationEPlPb
0000000000161790 g    DF .text	00000000000000f0 h264bsdFlushDpb
0000000000185438 g    DF .text	00000000000001e4 _ZN7android11ServerProxy12obtainBufferEPNS_5Proxy6BufferEb
000000000010b834 g    DF .text	0000000000000008 _Z16qmfChangeOutGainP15QMF_FILTER_BANKi
000000000029b19c g    DF .text	00000000000000d8 _ZN7android9SfNvnUtil4BlitEPK13native_handleiS3_
00000000001db958 g    DF .text	0000000000000060 _ZN7android7ABufferC2Em
000000000019af74 g    DF .text	0000000000000008 _ZN7android17StagefrightPlayer22setVideoSurfaceTextureERKNS_2spINS_22IGraphicBufferProducerEEE
00000000005ab600 g    DO .data	0000000000000038 _ZTTN7android18SurfaceMediaSourceE
00000000001d03a8 g    DF .text	0000000000000068 _ZN7android8NuPlayer11DecoderBaseD2Ev
00000000002673b0  w   DF .text	00000000000000d8 _ZNK7android12SortedVectorINS_16key_value_pair_tIjNS_8MetaData10typed_dataEEEE16do_move_backwardEPvPKvm
0000000000286f1c  w   DF .text	0000000000000004 _ZNK7android6VectorINS_17MyVorbisExtractor8TOCEntryEE10do_destroyEPvm
0000000000594338  w   DO .data	00000000000000e8 _ZTVN7android11BpInterfaceINS_18IMediaPlayerClientEEE
000000000019b218  w   DF .text	0000000000000008 _ZN7android15MediaPlayerBase13setNextPlayerERKNS_2spIS0_EE
00000000005a0168  w   DO .data	0000000000000058 _ZTVN7android12SortedVectorINS_16key_value_pair_tINS_7AStringENS_2spINS_9M3UParser10MediaGroupEEEEEEE
0000000000146b80 g    DF .text	00000000000000fc _Z32SoftMPEG4_createSoftOMXComponentPKcPK16OMX_CALLBACKTYPEPvPP17OMX_COMPONENTTYPE
00000000001cda94 g    DF .text	0000000000000024 _ZN7android8NuPlayer7DecoderD0Ev
00000000002ed4f4 g    DF .text	0000000000000170 _ZN5movie15NnCodecConsumerD2Ev
00000000001c0588  w   DF .text	0000000000000008 _ZNK7android8NuPlayer6Source10isRealTimeEv
0000000000151d58 g    DF .text	0000000000000160 SkippedMBMotionComp
000000000010954c g    DF .text	00000000000000a0 _Z6fLdPowiiii
0000000000273154 g    DF .text	0000000000000034 _ZN7android11MPEG4SourceD0Ev
00000000001e6e50 g    DF .text	0000000000000020 _ZN7android11LiveSession19isFullyDisconnectedEv
00000000002acf94 g    DF .text	0000000000000580 _ZN9mkvparser8SeekHead10ParseEntryEPNS_10IMkvReaderExxPNS0_5EntryE
0000000000191124  w   DF .text	0000000000000048 _ZN7android11BnInterfaceINS_13IStreamSourceEED0Ev
00000000001360f8 g    DF .text	000000000000017c AacEncEncode
0000000000196f40 g    DF .text	000000000000001c _ZN7android11MediaPlayer4diedEv
00000000001d3c88 g    DF .text	0000000000000040 _ZN7android8NuPlayer8Renderer25signalDisableOffloadAudioEv
00000000001d7194 g    DF .text	0000000000000010 _ZN7android8NuPlayer8Renderer29prepareForMediaRenderingStartEv
0000000000587a80  w   DO .data	0000000000000118 _ZTCN7android11AudioEffect12EffectClientE8_NS_7BBinderE
000000000019eb50 g    DF .text	0000000000000008 XML_GetErrorCode
00000000000150bc g    DF .text	00000000000001f8 NvMMLiteUtilAllocateProtectedSurfaces
000000000020d2b8  w   DF .text	000000000000009c _ZNK7android6VectorINS_15OMXNodeInstance12ActiveBufferEE15do_move_forwardEPvPKvm
00000000002315ac  w   DF .text	000000000000003c _ZN7android12SortedVectorINS_16key_value_pair_tIlNS_18TimedTextSRTSource8TextInfoEEEED0Ev
00000000000bf170 g    DF .text	0000000000000010 video_parser_parse
0000000000299b60 g    DF .text	0000000000000190 _ZN7android11SampleTable32setCompositionTimeToSampleParamsElm
0000000000114124 g    DF .text	0000000000000bac pcmDmx_Parse
00000000005a35c8 g    DO .data	0000000000000068 _ZTVN7android18TimedTextSRTSourceE
00000000002ad580 g    DF .text	0000000000000424 _ZN9mkvparser7Segment9ParseCuesExRxRl
00000000002a835c  w   DF .text	0000000000000004 _ZNK7android6VectorIPKN9mkvparser8CuePointEE10do_destroyEPvm
00000000002eaec0 g    DF .text	0000000000000048 _ZN5movie9Extractor13SetDataSourceEPKc
000000000013223c g    DF .text	0000000000000094 FDKsprintf
00000000002c2c28 g    DF .text	0000000000000070 _ZN9mkvparser9MkvReaderC1EP8_IO_FILE
0000000000193ca8  w   DF .text	0000000000000004 _ZNK7android6VectorIjE12do_constructEPvm
000000000059af78  w   DO .data	0000000000000058 _ZTVN7android12SortedVectorINS_16key_value_pair_tINS_7AStringENS_2spINS_14MediaCodecInfo12CapabilitiesEEEEEEE
0000000000296d9c g    DF .text	0000000000000008 _ZThn8_N7android8OMXCodec20signalBufferReturnedEPNS_11MediaBufferE
0000000000190ec8 g    DF .text	000000000000003c _ZTv0_n24_N7android15IStreamListenerD1Ev
000000000059f6a0  w   DO .data	0000000000000028 _ZTIN7android12SortedVectorINS_16key_value_pair_tIjNS_2spINS_8AMessageEEEEEEE
000000000020541c  w   DF .text	0000000000000004 _ZN7android16ConsumerListener15onFrameReplacedERKNS_10BufferItemE
0000000000230600 g    DF .text	00000000000000e8 _ZN7android15TimedTextPlayer22delayUsFromCurrentTimeEl
00000000002b08fc g    DF .text	0000000000000008 _ZNK9mkvparser7Segment9GetTracksEv
00000000000f8a34 g    DF .text	0000000000000208 _Z16CBlock_GetEscapeP13FDK_BITSTREAMi
00000000001bfc34 g    DF .text	00000000000000b0 _ZN7android8NuPlayer14HTTPLiveSource9getFormatEb
00000000002cf11c g    DF .text	0000000000000078 _ZNK5movie12HLSExtractor17GetCachedDurationEPlPb
000000000017b5b8 g    DF .text	00000000000000a0 _ZN7android11AudioSystem17checkAudioFlingerEv
000000000020fc34  w   DF .text	0000000000000004 _ZN7android16SoftOMXComponent21prepareForDestructionEv
00000000005934a0 g    DO .data	0000000000000098 _ZTCN7android19IMediaDeathNotifier13DeathNotifierE0_NS_7IBinder14DeathRecipientE
0000000000598008 g    DO .data	0000000000000008 _ZN7android15IStreamListener15kKeyResumeAtPTSE
000000000058f1c0  w   DO .data	00000000000000a8 _ZTCN7android26BpAudioPolicyServiceClientE8_NS_9BpRefBaseE
0000000000262c68 g    DF .text	0000000000000048 _ZN7android16MediaCodecSource5pauseEv
00000000002db530 g    DF .text	0000000000000024 _ZN5movie26NnCodecVideoOutputReceiverD0Ev
00000000001c05f4 g    DF .text	0000000000000010 _ZN7android19VideoFrameScheduler3PLL7restartEv
00000000002d4fa8 g    DF .text	0000000000000018 _ZN5movie18AudioCodecCallbackC1EPNS_13NnCodecPlayerE
000000000016f1d8 g    DF .text	00000000000000f4 _book_maptype1_quantvals
0000000000516f20 g    DO .rodata	0000000000000018 _ZTSN7android11AudioEffectE
00000000001f994c g    DF .text	0000000000000154 _ZN7android19AnotherPacketSource22getEstimatedDurationUsEv
000000000051d3d0 g    DO .rodata	0000000000000021 _ZTSN7android9ATSParser10PSISectionE
000000000027d8bc g    DF .text	0000000000000124 _ZN7android11MPEG4Writer5Track12writeMdhdBoxEj
0000000000599c50  w   DO .data	0000000000000038 _ZTIN7android11BpInterfaceINS_15IStreamListenerEEE
0000000000192c64 g    DF .text	0000000000000098 _ZNK7android14MediaCodecInfo8hasQuirkEPKc
00000000002c7414  w   DF .text	0000000000000040 _ZN7android21WebmFrameSourceThreadD0Ev
000000000001458c g    DF .text	0000000000000008 NvMMWriteSock
00000000002eb790 g    DF .text	0000000000000034 _ZN5movie6BufferD1Ev
00000000002e45f4  w   DF .text	000000000000007c _ZN7android17AHandlerReflectorIN5movie20NnCodecInputReceiverEE17onMessageReceivedERKNS_2spINS_8AMessageEEE
0000000000245d38 g    DF .text	0000000000000050 _ZN7android11AudioSource31waitOutstandingEncodingFrames_lEv
0000000000299f38 g    DF .text	0000000000000008 _ZN7android11SampleTable15getSampleSize_lEjPm
000000000018d1a4  w   DF .text	0000000000000050 _ZThn8_N7android11BnInterfaceINS_15IMediaCodecListEED0Ev
00000000001b9f3c g    DF .text	0000000000000078 _ZN7android14AH263AssemblerC2ERKNS_2spINS_8AMessageEEE
000000000023f7a0 g    DF .text	000000000000008c _ZN7android6ACodec24onSignalEndOfInputStreamEv
00000000002a50b0 g    DF .text	000000000000005c _ZN7android14MatroskaSource18clearPendingFramesEv
00000000002cf23c g    DF .text	000000000000003c _ZN5movie10HLSHandlerC2EPNS_12HLSExtractorE
00000000002cef28 g    DF .text	00000000000000f8 _ZN5movie12HLSExtractor14ReadSampleDataEPNS_6BufferE
0000000000274dcc g    DF .text	0000000000000ba0 _ZN7android11MPEG4Source14fragmentedReadEPPNS_11MediaBufferEPKNS_11MediaSource11ReadOptionsE
0000000000177888  w   DF .text	0000000000000098 _ZThn8_N7android11BnInterfaceINS_13IEffectClientEE19queryLocalInterfaceERKNS_8String16E
0000000000232f28 g    DF .text	0000000000000044 _ZN7android6ACodec13initiateSetupERKNS_2spINS_8AMessageEEE
00000000000f7b60 g    DF .text	0000000000000010 _Z25CAacDecoder_GetStreamInfoP20AAC_DECODER_INSTANCE
000000000018b700  w   DF .text	0000000000000048 _ZN7android11BnInterfaceINS_7IEffectEED0Ev
00000000000f2afc g    DF .text	00000000000001d4 _Z25Hcr_State_BODY_SIGN__SIGNP13FDK_BITSTREAMPv
00000000005071c4 g    DO .rodata	0000000000000020 tnsCoeff3Borders
00000000002887b0 g    DF .text	000000000000009c _ZN7android6MuxOMX12setParameterEj13OMX_INDEXTYPEPKvm
00000000002d2388 g    DF .text	0000000000000004 _ZN5movie5MuxerD1Ev
00000000002dc0e0  w   DF .text	0000000000000044 _ZN7android17AHandlerReflectorIN5movie26NnCodecAudioOutputReceiverEED2Ev
00000000000ce3e0 g    DF .text	0000000000000148 TVMRVideoSurfacePutBits
0000000000190cf0 g    DF .text	0000000000000164 _ZN7android15IStreamListener11asInterfaceERKNS_2spINS_7IBinderEEE
000000000025445c  w   DF .text	0000000000000080 _ZN7android4ListIPFbRKNS_2spINS_10DataSourceEEEPNS_7String8EPfPNS1_INS_8AMessageEEEEED2Ev
00000000005a5508  w   DO .data	0000000000000050 _ZTVN7android6VectorINS_12AVIExtractor10SampleInfoEEE
00000000005acfc0 g    DO .data	0000000000000008 _ZN5movie7codecID27MEDIA_CODEC_ID_MPEG4_HE_AACE
0000000000192070  w   DF .text	0000000000000048 _ZN7android11BpInterfaceINS_15IStreamListenerEED0Ev
00000000002491a4 g    DF .text	0000000000000040 _ZN7android12AVIExtractor11MP3SplitterD2Ev
00000000001730f4 g    DF .text	00000000000002a0 mapping_info_unpack
00000000001c5eec g    DF .text	000000000000011c _ZN7android8NuPlayer18setDataSourceAsyncERKNS_2spINS_13IStreamSourceEEE
00000000002e7f7c g    DF .text	0000000000000018 _ZN5movie11DecoderImpl38SendOutputBufferEventAvailableToClientEv
00000000001e4334 g    DF .text	0000000000000008 _ZNK7android13ParsedMessage10getContentEv
00000000001d0264  w   DF .text	0000000000000004 _ZNK7android6VectorIbE12do_constructEPvm
000000000022f77c g    DF .text	0000000000000040 _ZN7android15TimedTextPlayer5pauseEv
000000000025275c  w   DF .text	0000000000000048 _ZN7android27AwesomeNativeWindowRendererD0Ev
0000000000256c30 g    DF .text	0000000000000088 _ZThn8_N7android12MediaAdapter20signalBufferReturnedEPNS_11MediaBufferE
000000000017f820  w   DF .text	000000000000009c _ZNK7android6VectorINS_23AttributeMatchCriterionEE15do_move_forwardEPvPKvm
000000000012d64c g    DF .text	000000000000002c _Z25FreeRam_SbrDecWorkBuffer1PPi
000000000022df98 g    DF .text	000000000000008c _ZN7android16TextDescriptions27extractSRTLocalDescriptionsEPKhliPNS_6ParcelE
00000000000cc6cc g    DF .text	0000000000000004 NvTnrTvmrClose
0000000000184270 g    DF .text	0000000000000068 _ZN7android10AudioTrack16AudioTrackThreadD0Ev
000000000024679c  w   DF .text	000000000000007c _ZN7android4ListIPNS_11MediaBufferEED0Ev
00000000005a73e0 g    DO .data	0000000000000008 _ZN7android26MEDIA_MIMETYPE_AUDIO_MSGSME
0000000000585ab0  w   DO .data	0000000000000028 _ZTIN7android6VectorIlEE
000000000059bd78  w   DO .data	0000000000000010 _ZTIN7android4ListIPNS_12SoundChannelEEE
000000000010a964 g    DF .text	00000000000009a0 _Z25qmfSynthesisFilteringSlotP15QMF_FILTER_BANKPKiS2_iiPsiPi
00000000001c0560  w   DF .text	0000000000000004 _ZN7android8NuPlayer6Source4stopEv
00000000005a3108 g    DO .data	00000000000000e8 _ZTVN7android28SoftVideoDecoderOMXComponentE
000000000029948c g    DF .text	0000000000000040 _ZNK7android11SampleTable7isValidEv
00000000000145a4 g    DF .text	0000000000000008 NvMMReadSockMultiple
0000000000015030 g    DF .text	000000000000008c NvMMLiteUtilAllocateVideoBuffer
00000000002e0524 g    DF .text	00000000000001e8 _ZN5movie16NnCodecVideoSink16ConvertYuvToNv12EPhPKhS3_S3_mmmPm
000000000018fc1c  w   DF .text	0000000000000048 _ZN7android13BnOMXObserverD0Ev
000000000051fc40 g    DO .rodata	000000000000001c _ZTSN7android15TimedTextSourceE
0000000000259638 g    DF .text	0000000000000110 _ZN7android10MediaCodec28renderOutputBufferAndReleaseEm
00000000002ce430 g    DF .text	0000000000000024 _ZN5movie12HLSExtractorD0Ev
00000000004f03da g    DO .rodata	0000000000000020 aDimCbShift
000000000022be80 g    DF .text	0000000000000154 _ZN7android28SoftVideoDecoderOMXComponent27copyYV12FrameToOutputBufferEPhPKhS3_S3_mmm
00000000002619f8  w   DF .text	0000000000000064 _ZNK7android6VectorINS_14MediaCodecList7SectionEE16do_move_backwardEPvPKvm
00000000002c8554 g    DF .text	000000000000061c _ZN7android11WebmElement10EbmlHeaderEiiiiii
000000000015a94c g    DF .text	0000000000000084 _ZN7android7SoftAVC21saveFirstOutputBufferEiPh
000000000058ffe0  w   DO .data	0000000000000060 _ZTTN7android8BpEffectE
0000000000285334 g    DF .text	0000000000000074 _ZN7android9OggSourceD0Ev
000000000016f0bc g    DF .text	000000000000002c oggpack_bits
00000000004ec800  w   DO .rodata	0000000000000015 _ZTSN7android6VectorIlEE
000000000019b2f0  w   DF .text	0000000000000008 _ZNK7android15MediaPlayerBase4dumpEiRKNS_6VectorINS_8String16EEE
000000000059fef8  w   DO .data	0000000000000058 _ZTVN7android12SortedVectorINS_16key_value_pair_tINS_11LiveSession10StreamTypeENS_2spINS_19AnotherPacketSourceEEEEEEE
0000000000200bbc g    DF .text	00000000000000fc _ZN7android16MPEG2PSExtractor12dequeueChunkEv
0000000000211ce4  w   DF .text	000000000000003c _ZN7android6VectorINS_14SoftAVCEncoder15InputBufferInfoEED0Ev
00000000005aa0f0 g    DO .data	0000000000000040 _ZTVN7android11SampleTableE
0000000000012fb0 g    DF .text	0000000000000084 NvmmUlpKpiSetReadStartTime
0000000000173394 g    DF .text	00000000000003f8 mapping_inverse
00000000002148ec g    DF .text	00000000000000d0 AVCRasterIntraUpdate
0000000000014100 g    DF .text	00000000000001f0 NvMMUtilDumpBufferProfilingData
000000000059eab8  w   DO .data	0000000000000058 _ZTVN7android12SortedVectorINS_16key_value_pair_tIlNS_2spINS_7ABufferEEEEEEE
00000000002df61c g    DF .text	00000000000002f8 _ZN5movie16NnCodecVideoSinkC1EPNS_16NnCodecAudioSinkEN7android2spINS_12NnMediaClockEEEPNS_14PlayerObserverEPNS_12PlayerConfigE
0000000000521ce0 g    DO .rodata	000000000000001c _ZTSN7android15ThrottledSourceE
00000000002dd4c0 g    DF .text	0000000000000054 _ZN5movie16NnCodecAudioSink23ClearBuffersReleaseListEv
00000000002b4a5c g    DF .text	0000000000000068 _ZNK9mkvparser10VideoTrack8VetEntryEPKNS_10BlockEntryE
00000000002a43bc g    DF .text	000000000000034c _ZN7android10XINGSeeker16CreateFromSourceERKNS_2spINS_10DataSourceEEEl
0000000000264bc0  w   DF .text	000000000000007c _ZN7android4ListIlED0Ev
0000000000503c5c g    DO .rodata	0000000000000100 ShortWindowSine
00000000002a4014 g    DF .text	0000000000000018 _ZN7android12WVMExtractor18getVendorLibHandleEv
000000000019b4c4 g    DF .text	0000000000000008 _ZN7android13MediaProfiler19startPausedDurationEl
00000000001b4d70 g    DF .text	0000000000000144 _ZN7android14ARTPConnection14onInjectPacketERKNS_2spINS_8AMessageEEE
000000000051c1a0 g    DO .rodata	0000000000000023 _ZTSN7android8NuPlayer13GenericSourceE
0000000000242378  w   DF .text	0000000000000080 _ZN7android13CodecObserverD1Ev
000000000016c7a0 g    DF .text	0000000000000190 h264bsdCheckPriorPicsFlag
00000000002b89e8 g    DF .text	0000000000000010 _ZN8mkvmuxer4CuesC1Ev
000000000000edfc g    DF .text	000000000000002c NvMMUtilConvertNvMMParserCoreType
00000000001cd9f4  w   DF .text	00000000000000a0 _ZN7android4ListINS_2spINS_8AMessageEEEED2Ev
0000000000265e34 g    DF .text	0000000000000008 _ZN7android11MediaSource11ReadOptions9setLateByEl
00000000001cc14c  w   DF .text	0000000000000048 _ZN7android8NuPlayer16SetSurfaceActionD0Ev
00000000002311b8 g    DF .text	0000000000000018 _ZN7android18TimedTextSRTSource9getFormatEv
00000000005017b0 g    DO .rodata	0000000000000004 FDKSEEK_SET
000000000019b168 g    DF .text	0000000000000088 _ZN7android17StagefrightPlayer11getMetadataERKNS_12SortedVectorIiEEPNS_6ParcelE
000000000017ed5c  w   DF .text	0000000000000050 _ZTv0_n24_N7android26BnAudioPolicyServiceClientD0Ev
0000000000589f00  w   DO .data	0000000000000118 _ZTCN7android11BnInterfaceINS_19IAudioFlingerClientEEE8_NS_7BBinderE
0000000000150738 g    DF .text	0000000000000004 idctrow0
00000000001bc1b8 g    DF .text	0000000000000050 _ZN7android17AMPEG2TSAssemblerC2ERKNS_2spINS_8AMessageEEEPKcRKNS_7AStringE
0000000000150740 g    DF .text	00000000000000f8 idctrow1
0000000000150864 g    DF .text	0000000000000188 idctrow2
00000000002e2a1c g    DF .text	00000000000001e0 _ZN5movie20NnCodecInputReceiver55MoveBuffersFromAudioCacheAllocListToAudioCacheEmptyListEv
0000000000150a94 g    DF .text	00000000000001d0 idctrow3
0000000000178ac4 g    DF .text	0000000000000018 _ZN7android23AttributeMatchCriterionC2E13audio_usage_t14audio_source_tj
0000000000150d30 g    DF .text	0000000000000208 idctrow4
00000000001d1d60 g    DF .text	000000000000001c _ZN7android14NuPlayerDriver6setUIDEj
0000000000113520 g    DF .text	0000000000000044 destroyLimiter
00000000001952b4 g    DF .text	0000000000000098 _ZTv0_n32_N7android11MediaPlayerD0Ev
00000000002b1414 g    DF .text	0000000000000048 _ZNK9mkvparser8Chapters4Atom12GetStartTimeEPKS0_
00000000002e55e8 g    DF .text	00000000000002cc _ZN5movie11DecoderImplD1Ev
00000000001bc5c8 g    DF .text	00000000000000b8 _ZN7android13AAVCAssemblerD1Ev
0000000000261fa0 g    DF .text	0000000000000184 _ZN7android16MediaCodecSource6Puller5startERKNS_2spINS_8MetaDataEEERKNS2_INS_8AMessageEEE
00000000001e1620 g    DF .text	0000000000000050 _ZN7android7AString5clearEv
000000000019e204 g    DF .text	0000000000000020 XML_SetReturnNSTriplet
000000000051c69c g    DO .rodata	0000000000000014 _ZN7android8NuPlayer8Renderer25AUDIO_PCMINFO_INITIALIZERE
00000000001db8a4 g    DF .text	00000000000000ac _ZN7android12NALBitReader13fillReservoirEv
000000000051cbb0 g    DO .rodata	0000000000000027 _ZTSN7android9AWakeLock16PMDeathRecipientE
00000000002b4cd0 g    DF .text	0000000000000008 _ZNK9mkvparser10VideoTrack14GetDisplayUnitEv
00000000001e33a4 g    DF .text	000000000000008c _ZN7android9AWakeLockD0Ev
000000000027b774 g    DF .text	0000000000000004 _ZN7android11MPEG4Writer5Track13ThreadWrapperEPv
0000000000285d4c g    DF .text	00000000000000a4 _ZN7android17MyVorbisExtractor12findNextPageElPl
00000000001b631c g    DF .text	0000000000000060 _ZN7android10ARTPSource16processRTPPacketERKNS_2spINS_7ABufferEEE
0000000000146cf0  w   DF .text	0000000000000004 _ZNK7android12SortedVectorINS_16key_value_pair_tIixEEE10do_destroyEPvm
000000000019b114  w   DF .text	0000000000000044 _ZN7android20MediaPlayerInterface12setAudioSinkERKNS_2spINS_15MediaPlayerBase9AudioSinkEEE
00000000002704d0 g    DF .text	000000000000003c _ZN7android14MPEG4Extractor15getDrmTrackInfoEmPi
00000000002eabfc g    DF .text	0000000000000014 _ZN5movie7Encoder19ReleaseOutputBufferEi
00000000002a0440  w   DF .text	0000000000000014 _ZTv0_n24_N7android15TimedEventQueue16PMDeathRecipientD1Ev
000000000018d2cc  w   DF .text	0000000000000048 _ZN7android16BnMediaCodecListD0Ev
000000000019e300 g    DF .text	0000000000000008 XML_SetProcessingInstructionHandler
0000000000520ea0  w   DO .rodata	0000000000000013 _ZTSN7android4ListIlEE
000000000027b76c g    DF .text	0000000000000008 _ZNK7android11MPEG4Writer19isRealTimeRecordingEv
0000000000014fa4 g    DF .text	0000000000000004 _ZN2nv2mm5AllocEm
00000000001049e0 g    DF .text	000000000000031c _Z6dct_IIPiS_iS_
000000000059e558  w   DO .data	0000000000000018 _ZTVZN7android14ReferenceMover15move_referencesINS_11MediaSourceEEEvPNS_2spIT_EEPKS5_mE7Renamer
00000000001cbef8  w   DF .text	0000000000000040 _ZN7android8NuPlayer6SourceD2Ev
000000000059e8e8  w   DO .data	0000000000000048 _ZTVN7android8NuPlayer19ResumeDecoderActionE
000000000014abc0 g    DF .text	00000000000002d8 GetMBheader
0000000000592080 g    DO .data	0000000000000070 _ZTTN7android16BnMediaCodecListE
00000000001910dc  w   DF .text	0000000000000008 _ZNK7android13IStreamSource5flagsEv
00000000005180a0  w   DO .rodata	0000000000000036 _ZTSN7android6VectorINS_14MediaCodecInfo12ProfileLevelEEE
00000000001c0590 g    DF .text	0000000000000018 _ZN7android19VideoFrameScheduler3PLLC1Ev
00000000002020a8  w   DF .text	0000000000000034 _ZN7android12SortedVectorINS_16key_value_pair_tIjNS_2spINS_16MPEG2PSExtractor5TrackEEEEEED2Ev
00000000005ac730 g    DO .data	0000000000000010 _ZTIN8mkvmuxer5TrackE
000000000017e27c g    DF .text	0000000000000040 _ZN7android11AudioSystem24AudioPolicyServiceClient21onAudioPortListUpdateEv
000000000019b368 g    DF .text	0000000000000070 _ZN7android13MediaProfilerC2Ev
00000000004f3474 g    DO .rodata	000000000000001a tns_max_bands_tbl
000000000020d3f4  w   DF .text	0000000000000004 _ZNK7android12SortedVectorIP20OMX_BUFFERHEADERTYPEE12do_constructEPvm
00000000002e9d7c g    DF .text	0000000000000044 _ZN5movie11EncoderImpl5FlushEv
0000000000255cc0 g    DF .text	0000000000000004 _ZN7android18CurlHttpConnection12disconnect_lEv
0000000000232324 g    DF .text	0000000000000034 _ZN7android9AACSourceD0Ev
00000000002dd1c8 g    DF .text	0000000000000250 _ZN5movie16NnCodecAudioSink8FinalizeEv
000000000059de18 g    DO .data	0000000000000058 _ZTVN7android13AAMRAssemblerE
00000000002a230c g    DF .text	000000000000007c _ZN7android26mapAACProfileToAudioFormatER14audio_format_tm
000000000017d924 g    DF .text	0000000000000098 _ZN7android11AudioSystem22isStreamActiveRemotelyE19audio_stream_type_tPbj
0000000000598010 g    DO .data	0000000000000008 _ZN7android15IStreamListener21kKeyDiscontinuityMaskE
0000000000203c48 g    DF .text	00000000000001fc _ZN7android19GraphicBufferSource12omxExecutingEv
00000000002ad9a4 g    DF .text	0000000000000018 _ZN9mkvparser4CuesC1EPNS_7SegmentExxxx
00000000001b85e4 g    DF .text	0000000000000554 _ZN7android20AMPEG4AudioAssembler17removeLATMFramingERKNS_2spINS_7ABufferEEE
000000000016e93c g    DF .text	0000000000000084 H264SwDecInit
00000000001bf900 g    DF .text	0000000000000114 _ZN7android8NuPlayer14HTTPLiveSource9forceStopEv
00000000001daa64 g    DF .text	0000000000000124 _ZN7android9AAtomizer7atomizeEPKc
000000000051c7e0 g    DO .rodata	0000000000000019 _ZTSN7android12NALBitReaderE
00000000001c91a0 g    DF .text	0000000000000020 _ZN7android8NuPlayer18performScanSourcesEv
0000000000267184  w   DF .text	00000000000000b4 _ZNK7android12SortedVectorINS_16key_value_pair_tIjNS_8MetaData10typed_dataEEEE7do_copyEPvPKvm
0000000000278bcc g    DF .text	0000000000000024 _ZN7android11MPEG4Writer12getMpeg4TimeEv
00000000001c6bc8 g    DF .text	000000000000246c _ZN7android8NuPlayer17onMessageReceivedERKNS_2spINS_8AMessageEEE
00000000002c6af8 g    DF .text	00000000000000c8 _ZN7android26WebmFrameMediaSourceThreadC2ERKNS_2spINS_11MediaSourceEEEiRNS_19LinkedBlockingQueueIKNS1_INS_9WebmFrameEEEEEmliib
0000000000176f40 g    DF .text	0000000000000024 _ZN7android11AudioEffectD0Ev
00000000001e2044 g    DF .text	00000000000000cc _ZN7android7AString6appendERKS0_mm
000000000025f84c g    DF .text	0000000000000128 _ZN7android14MediaCodecList12parseXMLFileEPKc
0000000000181c2c g    DF .text	000000000000023c _ZN7android10AudioTrack5startEv
0000000000253398  w   DF .text	0000000000000074 _ZN7android26WindowedLinearFitEstimatorD2Ev
00000000002ae9b8 g    DF .text	0000000000000038 _ZNK9mkvparser4Cues7GetLastEv
00000000002bfdb8 g    DF .text	00000000000000a0 _ZN8mkvmuxer15EbmlElementSizeEyPKc
000000000021db30 g    DF .text	00000000000001d0 eChromaFullMC_SIMD
000000000059efc8 g    DO .data	0000000000000048 _ZTVN7android8NuPlayer8RendererE
00000000005a2698  w   DO .data	0000000000000010 _ZTIN7android4ListINS_11omx_messageEEE
00000000005a6318  w   DO .data	0000000000000020 _ZTVN7android4ListImEE
00000000002e7f94 g    DF .text	0000000000000018 _ZN5movie11DecoderImpl30SendFormatChangedEventToClientEv
0000000000172bb0 g    DF .text	00000000000002fc floor1_inverse1
0000000000172eac g    DF .text	00000000000001f8 floor1_inverse2
00000000001e127c g    DF .text	0000000000000010 _ZN7android7AStringC1EPKcm
00000000001ec7ec  w   DF .text	00000000000000b0 _ZNK7android6VectorINS_11LiveSession13BandwidthItemEE15do_move_forwardEPvPKvm
00000000002d5270 g    DF .text	0000000000000214 _ZN5movie13NnCodecPlayer30CheckPlayBackStateAndSendEventEv
00000000002ea560 g    DF .text	000000000000003c _ZN5movie22EncoderMessageReceiverC1EPNS_11EncoderImplE
00000000002a42bc g    DF .text	000000000000001c _ZN7android10XINGSeeker11getDurationEPl
00000000005d5938 g    DO .bss	0000000000000008 _ZN7android22MediaMetadataRetriever8sServiceE
00000000002804f0 g    DF .text	0000000000000054 _ZN7android9PageCacheC1Em
0000000000297c4c  w   DF .text	000000000000008c _ZN7android16OMXCodecObserverD0Ev
000000000000eb84 g    DF .text	0000000000000278 NvMMUtilFilenameToParserType
00000000000ed80c g    DF .text	0000000000000008 _Z41GetRequiredMemAacDecoderStaticChannelInfov
000000000017756c g    DF .text	0000000000000078 _ZN7android11AudioEffect11queryEffectEjP19effect_descriptor_s
00000000005d57f0 g    DO .bss	0000000000000008 _ZN7android11AudioSystem18gAudioPortCallbackE
000000000025529c g    DF .text	0000000000000044 _ZN7android18InMemoryFileSourceC1Eill
00000000002a2a2c g    DF .text	000000000000001c _ZN7android10VBRISeeker11getDurationEPl
00000000002deea8 g    DF .text	0000000000000204 _ZN5movie16NnCodecAudioSink16FillOutputBufferEiiPNS_6BufferEPlPj
0000000000257af0  w   DF .text	0000000000000004 _ZN7android9SingletonINS_10MediaCodec15BatteryNotifierEEC2Ev
00000000002c3950 g    DF .text	00000000000004f8 _ZN7android10WebmWriterC1EPKc
00000000000cc778 g    DF .text	0000000000000158 TVMRVideoDecoderCreate
000000000010bf80 g    DF .text	0000000000000048 _Z17adtsRead_CrcCheckP11STRUCT_ADTS
00000000001d089c g    DF .text	0000000000000334 _ZN7android8NuPlayer11DecoderBase17onMessageReceivedERKNS_2spINS_8AMessageEEE
00000000002c7ab4 g    DF .text	0000000000000130 _ZN7android8EbmlVoidC2Em
00000000002db924 g    DF .text	0000000000000014 _ZN5movie26NnCodecVideoOutputReceiver25GetOutputBufferPropertiesEiPNS_9MediaDataE
0000000000114cd0 g    DF .text	000000000000006c pcmDmx_ReadDvbAncData
00000000001cc2b4  w   DF .text	0000000000000040 _ZN7android8NuPlayer17PostMessageActionD2Ev
00000000002eab98 g    DF .text	0000000000000014 _ZN5movie7Encoder5StartEv
00000000002b3670 g    DF .text	0000000000000020 _ZN9mkvparser5Track4InfoC1Ev
00000000002d076c g    DF .text	0000000000000004 _ZN5movie5CodecD2Ev
00000000001cd1e0  w   DF .text	0000000000000058 _ZNK7android12SortedVectorINS_16key_value_pair_tIlNS_2spINS_7ABufferEEEEEE8do_splatEPvPKvm
00000000005a73d8 g    DO .data	0000000000000008 _ZN7android29MEDIA_MIMETYPE_AUDIO_AAC_ADTSE
000000000029bd10 g    DF .text	0000000000000064 _ZN7android8SfThreadC2Eb
000000000051e130  w   DO .rodata	000000000000003c _ZTSN7android17AHandlerReflectorINS_22SimpleSoftOMXComponentEEE
00000000001f94b0 g    DF .text	0000000000000228 _ZN7android19AnotherPacketSource18queueDiscontinuityENS_9ATSParser17DiscontinuityTypeERKNS_2spINS_8AMessageEEEb
00000000002a054c g    DF .text	0000000000000034 _ZN7android16SystemTimeSourceC1Ev
00000000001f9c78 g    DF .text	0000000000000074 _ZN7android9ATSParser7ProgramC2EPS0_jj
00000000005a0628 g    DO .data	0000000000000040 _ZTVN7android9ATSParser6StreamE
00000000000f3ed4 g    DF .text	0000000000000090 _Z24CTns_ReadDataPresentFlagP13FDK_BITSTREAMP8CTnsData
000000000026bfcc  w   DF .text	0000000000000018 _ZZN7android14ReferenceMover15move_referencesINS_13MPEG2TSWriter10SourceInfoEEEvPNS_2spIT_EEPKS6_mENK7RenamerclEm
0000000000501401 g    DO .rodata	0000000000000016 bins2groupMap20
0000000000242a6c  w   DF .text	00000000000000ac _ZNK7android6VectorINS_6ACodec10BufferInfoEE15do_move_forwardEPvPKvm
000000000025fb7c g    DF .text	000000000000003c _ZThn8_N7android14MediaCodecListD0Ev
00000000002dba8c g    DF .text	00000000000001f0 _ZN5movie26NnCodecAudioOutputReceiverC2EN7android2spINS_12NnMediaClockEEEPNS_14PlayerObserverEPNS_12PlayerConfigE
0000000000177b78  w   DF .text	0000000000000048 _ZTv0_n24_N7android11BnInterfaceINS_13IEffectClientEED1Ev
00000000001bd2b4 g    DF .text	00000000000000a0 _ZN7android13ARTPAssembler16onPacketReceivedERKNS_2spINS_10ARTPSourceEEE
00000000002ba29c g    DF .text	0000000000000044 _ZNK8mkvmuxer6Tracks16GetTrackByNumberEy
00000000005071a4 g    DO .rodata	0000000000000020 tnsCoeff3
00000000005071e4 g    DO .rodata	0000000000000040 tnsCoeff4
000000000017fcd8 g    DF .text	0000000000000054 memcpy_to_i16_from_i32
00000000001d89d8 g    DF .text	000000000000000c _ZN7android14ColorConverterC2E20OMX_COLOR_FORMATTYPES1_
0000000000265db4 g    DF .text	0000000000000014 _ZN7android11MediaSource11ReadOptions5resetEv
0000000000280f4c g    DF .text	0000000000000094 _ZN7android15NuCachedSource226terminateNetworkConnectionEv
0000000000191174  w   DF .text	000000000000000c _ZNK7android11BnInterfaceINS_13IStreamSourceEE22getInterfaceDescriptorEv
0000000000195360 g    DF .text	0000000000000080 _ZN7android11MediaPlayer11setListenerERKNS_2spINS_19MediaPlayerListenerEEE
000000000019a5c4 g    DF .text	00000000000000f4 _ZN7android15SoundPoolThread3runEv
00000000002dc7e8 g    DF .text	0000000000000250 _ZN5movie16NnCodecAudioSinkD2Ev
00000000001dc778  w   DF .text	0000000000000018 _ZNK7android6VectorINS_2spINS_6AStateEEEE12do_constructEPvm
0000000000194020  w   DF .text	0000000000000048 _ZNK7android12SortedVectorINS_16key_value_pair_tINS_7AStringENS_2spINS_14MediaCodecInfo12CapabilitiesEEEEEE10do_destroyEPvm
00000000005adec0  w   DO .data	0000000000000048 _ZTVN7android17AHandlerReflectorIN5movie26NnCodecVideoOutputReceiverEEE
00000000001bd1c4 g    DF .text	0000000000000064 _ZN7android13AAVCAssembler10packetLostEv
0000000000256a08 g    DF .text	0000000000000034 _ZN7android12MediaAdapterD0Ev
000000000059ec50 g    DO .data	0000000000000018 _ZTIN7android8NuPlayer7DecoderE
000000000029c50c g    DF .text	00000000000000ac _ZN7android8SfThread4joinEv
00000000001df4dc g    DF .text	000000000000004c _ZN7android8AMessage7setRectEPKciiii
00000000005a8d98 g    DO .data	00000000000000e0 _ZTVN7android10SoftVorbisE
000000000018f83c  w   DF .text	0000000000000048 _ZTv0_n24_N7android5BnOMXD1Ev
0000000000255d14 g    DF .text	0000000000000008 _ZN7android18CurlHttpConnection17reconnectAtOffsetEl
00000000002853a8 g    DF .text	000000000000007c _ZTv0_n24_N7android9OggSourceD0Ev
00000000001de148 g    DF .text	0000000000000180 _ZN7android13ALooperRoster14deliverMessageERKNS_2spINS_8AMessageEEE
000000000029b410 g    DF .text	0000000000000150 _ZN7android9SfNvnUtil16createEncSurfaceEv
0000000000595610 g    DO .data	0000000000000118 _ZTCN7android5BnOMXE8_NS_7BBinderE
00000000002528d8  w   DF .text	000000000000005c _ZN7android20AwesomeLocalRendererD2Ev
00000000002bdfdc g    DF .text	00000000000001b4 _ZN8mkvmuxer7Segment22DoNewClusterProcessingEyyb
00000000002024fc g    DF .text	0000000000000010 _ZN7android13MPEG2TSSource5startEPNS_8MetaDataE
00000000005d5948  w   DO .bss	0000000000000010 _ZZN7android9SingletonINS_19GraphicBufferMapperEE11getInstanceEvE4_ctx
00000000001db950 g    DF .text	0000000000000004 _ZN7android10ABitReaderD1Ev
000000000059fda0 g    DO .data	0000000000000018 _ZTIN7android14LiveDataSourceE
000000000025880c g    DF .text	00000000000000e8 _ZN7android10MediaCodec11setCallbackERKNS_2spINS_8AMessageEEE
000000000018cc40  w   DF .text	0000000000000050 _ZTv0_n24_N7android14BpEffectClientD0Ev
000000000018fd44  w   DF .text	0000000000000050 _ZTv0_n24_N7android13BnOMXObserverD0Ev
00000000002026f4 g    DF .text	00000000000000b0 _ZN7android16MPEG2TSExtractorC1ERKNS_2spINS_10DataSourceEEE
0000000000111778 g    DF .text	000000000000001c _Z32transportDec_RegisterAscCallbackP12TRANSPORTDECPFiPvPK21CSAudioSpecificConfigES1_
00000000001fb220 g    DF .text	00000000000000f4 _ZN7android9ATSParser6StreamD1Ev
00000000005a5030 g    DO .data	0000000000000020 _ZTTN7android11AudioSourceE
000000000018298c g    DF .text	0000000000000100 _ZN7android10AudioTrack11getPositionEPj
00000000002ca7e8 g    DF .text	0000000000000008 _ZN5movie13BrowserPlayer22GetSupportedTypesCountEv
00000000000db284 g    DF .text	0000000000000030 TVMROutputSurfToVideoSurf
000000000015ac4c  w   DF .text	0000000000000094 _ZNK7android12SortedVectorINS_16key_value_pair_tIiP20OMX_BUFFERHEADERTYPEEEE8do_splatEPvPKvm
0000000000203284  w   DF .text	0000000000000064 _ZNK7android6VectorINS_2spINS_19AnotherPacketSourceEEEE16do_move_backwardEPvPKvm
000000000017d814 g    DF .text	0000000000000078 _ZN7android11AudioSystem16setEffectEnabledEib
00000000001e50c0 g    DF .text	000000000000069c _ZN7android11LiveSessionC2ERKNS_2spINS_8AMessageEEEjRKNS1_INS_17IMediaHTTPServiceEEEiPN5movie14PlayerObserverEiPb
0000000000231f8c g    DF .text	00000000000000f4 _ZN7android12AACExtractor8getTrackEm
00000000002844c0 g    DF .text	0000000000000090 _ZN7android16NuMediaExtractor6seekToElNS_11MediaSource11ReadOptions8SeekModeE
00000000002dd0f8 g    DF .text	0000000000000028 _ZN5movie16NnCodecAudioSink18UpdatePlaybackRateEv
0000000000076c40 g    DF .text	0000000000000014 NvMSEncGlobalChannelClose
0000000000230d64 g    DF .text	0000000000000094 _ZN7android18TimedTextSRTSource8scanFileEv
00000000002c9d70  w   DF .text	0000000000000004 _ZN7android10WebmStringD0Ev
0000000000521f00 g    DO .rodata	0000000000000019 _ZTSN7android12WAVExtractorE
0000000000192ecc g    DF .text	00000000000001f0 _ZN7android14MediaCodecInfo10FromParcelERKNS_6ParcelE
0000000000147cc8 g    DF .text	000000000000018c quickSearchMotionMarker
0000000000154394 g    DF .text	000000000000000c PVGetLayerID
00000000005a0668 g    DO .data	0000000000000040 _ZTVN7android9ATSParserE
00000000001d17e0 g    DF .text	0000000000000018 _ZN7android8NuPlayer18DecoderPassThrough16onBufferConsumedEi
00000000000143c8 g    DF .text	0000000000000060 NvMMGetHwChipId
00000000001a7e28 g    DF .text	00000000000002e4 XmlInitUnknownEncoding
00000000002d7e0c g    DF .text	000000000000002c _ZN5movie11NnMediaData7SetSizeEPKcm
0000000000500730 g    DO .rodata	0000000000000078 aBookPsIidFineFreqDecode
000000000018a7dc  w   DF .text	0000000000000048 _ZThn8_N7android20BpAudioFlingerClientD1Ev
0000000000201fa8  w   DF .text	000000000000003c _ZN7android12SortedVectorINS_16key_value_pair_tIjjEEED0Ev
000000000022f2cc  w   DF .text	0000000000000088 _ZNK7android12SortedVectorINS_16key_value_pair_tImNS_2spINS_15TimedTextSourceEEEEEE15do_move_forwardEPvPKvm
000000000051c680 g    DO .rodata	000000000000001b _ZTSN7android14NuPlayerDriverE
000000000059bc74 g    DO .data	0000000000000004 _ZN7android18kDefaultFrameCountE
00000000002426e4  w   DF .text	0000000000000088 _ZTv0_n24_N7android13CodecObserverD1Ev
00000000001bc550 g    DF .text	0000000000000078 _ZN7android13AAVCAssemblerC2ERKNS_2spINS_8AMessageEEE
0000000000507e10 g    DO .rodata	0000000000000200 intra_max_level
0000000000202060  w   DF .text	0000000000000014 _ZNK7android12SortedVectorINS_16key_value_pair_tIjjEEE15do_move_forwardEPvPKvm
0000000000198f24 g    DF .text	000000000000004c _ZN7android12SoundChannel6resumeEv
00000000002dbf54 g    DF .text	0000000000000018 _ZN5movie26NnCodecAudioOutputReceiver8GetStateEv
000000000018af44  w   DF .text	0000000000000064 _ZN7android26BpAudioPolicyServiceClient21onAudioPortListUpdateEv
000000000019e2d0 g    DF .text	0000000000000008 XML_GetSpecifiedAttributeCount
00000000001b4120  w   DF .text	0000000000000098 _ZN7android4ListINS_8NuPlayer22NuPlayerStreamListener10QueueEntryEED0Ev
00000000001d3358 g    DF .text	000000000000003c _ZN7android14NuPlayerDriver18notifyFlagsChangedEj
0000000000286868 g    DF .text	00000000000000ac _ZN7android17MyVorbisExtractor17parseFileMetaDataEv
0000000000208308  w   DF .text	000000000000005c _ZNK7android12SortedVectorINS_16key_value_pair_tIjNS_2spINS_3OMX18CallbackDispatcherEEEEEE12do_constructEPvm
000000000026c028  w   DF .text	000000000000004c _ZN7android17AHandlerReflectorINS_13MPEG2TSWriterEED0Ev
00000000002a29d4 g    DF .text	0000000000000058 _ZN7android10VBRISeekerC1Ev
0000000000201fec  w   DF .text	0000000000000014 _ZNK7android12SortedVectorINS_16key_value_pair_tIjjEEE7do_copyEPvPKvm
00000000005981d0 g    DO .data	0000000000000098 _ZTCN7android13IStreamSourceE0_NS_10IInterfaceE
000000000059df78 g    DO .data	0000000000000058 _ZTVN7android17AMPEG2TSAssemblerE
0000000000258240 g    DF .text	0000000000000134 _ZN7android10MediaCodecC1ERKNS_2spINS_7ALooperEEE
000000000059a140  w   DO .data	00000000000000a8 _ZTCN7android11BpInterfaceINS_15IStreamListenerEEE8_NS_9BpRefBaseE
0000000000152138 g    DF .text	00000000000000c0 PutSKIPPED_B
00000000001ebdb4  w   DF .text	0000000000000034 _ZN7android12SortedVectorINS_16key_value_pair_tImlEEED2Ev
00000000001e5b08  w   DF .text	0000000000000034 _ZN7android6VectorINS_11LiveSession13BandwidthItemEED2Ev
00000000005ac7b0 g    DO .data	0000000000000018 _ZTIN9mkvparser9MkvReaderE
0000000000268f44 g    DF .text	0000000000000744 _ZN7android13MPEG2TSWriter10SourceInfo24extractCodecSpecificDataEv
00000000005a15e8  w   DO .data	0000000000000048 _ZTVN7android17AHandlerReflectorINS_19GraphicBufferSourceEEE
0000000000248b78 g    DF .text	0000000000000160 _ZN7android12AVIExtractor11MP3Splitter4readEPPNS_11MediaBufferE
000000000016e908 g    DF .text	0000000000000020 H264SwDecMalloc
000000000018aac8 g    DF .text	000000000000003c _ZN7android25IAudioPolicyServiceClientC2Ev
00000000001b4f34 g    DF .text	0000000000000084 _ZN7android14ARTPConnection7receiveEPNS0_10StreamInfoEb
00000000001dc274 g    DF .text	0000000000000028 _ZN7android25AHierarchicalStateMachineD1Ev
0000000000521750 g    DO .rodata	0000000000000017 _ZTSN7android10SoftVorbisE
00000000002ed0c8  w   DF .text	0000000000000040 _ZThn8_N5movie22NULLGraphicBufferAllocD0Ev
0000000000142918 g    DF .text	00000000000000a8 SpreadingMax
000000000058d5f0 g    DO .data	0000000000000020 _ZTTN7android19IAudioFlingerClientE
00000000005a75f8  w   DO .data	0000000000000018 _ZTVZN7android14ReferenceMover15move_referencesINS_12MediaAdapterEEEvPNS_2spIT_EEPKS5_mE7Renamer
0000000000191b3c  w   DF .text	0000000000000050 _ZThn8_N7android11BpInterfaceINS_13IStreamSourceEED0Ev
00000000001b8568  w   DF .text	0000000000000064 _ZNK7android6VectorINS_2spINS_7ABufferEEEE16do_move_backwardEPvPKvm
0000000000131428 g    DF .text	0000000000000098 sbrDecoder_GetDelay
0000000000013160 g    DF .text	0000000000000028 NvmmUlpKpiSetParseStartTime
00000000004f041a g    DO .rodata	0000000000000017 aMinOfCbPair
000000000027aec4 g    DF .text	0000000000000004 _ZN7android11MPEG4Writer13ThreadWrapperEPv
0000000000000234 g    DF .text	0000000000000008 NvAvpUnMapIova
0000000000250d14 g    DF .text	00000000000001c8 _ZN7android13AwesomePlayer21finishSeekIfNecessaryEl
000000000017f8bc  w   DF .text	0000000000000064 _ZNK7android6VectorINS_23AttributeMatchCriterionEE16do_move_backwardEPvPKvm
00000000001b5384 g    DF .text	0000000000000128 _ZN7android14ARTPConnection10findSourceEPNS0_10StreamInfoEj
0000000000189234  w   DF .text	000000000000007c _ZN7android14BpAudioFlinger16newAudioUniqueIdEv
0000000000190150  w   DF .text	0000000000000008 _ZN7android5BpOMX22signalEndOfInputStreamEj
000000000023c2c8 g    DF .text	0000000000000470 _ZN7android6ACodec9BaseState12onOMXMessageERKNS_2spINS_8AMessageEEE
0000000000135f24 g    DF .text	0000000000000008 voAACEncGetParam
00000000005a12c0  w   DO .data	0000000000000028 _ZTIN7android6VectorINS_2spINS_19AnotherPacketSourceEEEEE
000000000022ea34 g    DF .text	0000000000000090 _ZN7android15TimedTextDriver11selectTrackEm
0000000000181ef0 g    DF .text	00000000000000d8 _ZN7android10AudioTrack14restoreTrack_lEPKc
00000000001804e8 g    DF .text	0000000000000034 nonZeroStereo16
000000000025fc00 g    DF .text	00000000000002d0 _ZN7android14MediaCodecList19startElementHandlerEPKcPS2_
000000000059dbe0  w   DO .data	0000000000000018 _ZTIN7android10ARTPSourceE
00000000002b1990 g    DF .text	0000000000000008 _ZNK9mkvparser8Chapters7Display10GetCountryEv
00000000001873cc  w   DF .text	0000000000000098 _ZThn8_N7android11BnInterfaceINS_13IAudioFlingerEE19queryLocalInterfaceERKNS_8String16E
00000000002e3ef8 g    DF .text	0000000000000084 _ZN5movie20NnCodecInputReceiver16IsEosSentToCodecEi
0000000000261d48 g    DF .text	0000000000000130 _ZN7android16MediaCodecSource6PullerC1ERKNS_2spINS_11MediaSourceEEE
00000000002562d0 g    DF .text	0000000000000084 _ZN7android10JPEGSourceD1Ev
000000000029616c g    DF .text	0000000000000468 _ZN7android8OMXCodec18stopOmxComponent_lEv
0000000000518380 g    DO .rodata	0000000000000018 _ZTSN7android11StringArrayE
00000000002a610c g    DF .text	00000000000002e0 _ZN7android14MatroskaSource9readBlockEv
000000000018e694  w   DF .text	0000000000000098 _ZThn8_N7android11BnInterfaceINS_18IMediaPlayerClientEE19queryLocalInterfaceERKNS_8String16E
00000000002041c8 g    DF .text	0000000000000038 _ZN7android19GraphicBufferSource7omxIdleEv
00000000002d4dd8 g    DF .text	000000000000003c _ZN5movie13NnCodecPlayer22FinalizeOutpuReceiversEv
00000000005968e0  w   DO .data	0000000000000048 _ZTTN7android11BpInterfaceINS_4IOMXEEE
00000000002e485c g    DF .text	0000000000000004 _ZN5movie23BrowserPlayerDataSourceD2Ev
0000000000202bb4 g    DF .text	000000000000005c _ZN7android16MPEG2TSExtractor11getMetaDataEv
0000000000265e44 g    DF .text	0000000000000050 _ZN7android8MetaDataC1Ev
0000000000188c74  w   DF .text	0000000000000084 _ZN7android14BpAudioFlinger11closeOutputEi
0000000000203bd4 g    DF .text	0000000000000034 _ZN7android19GraphicBufferSourceD0Ev
00000000001875a0  w   DF .text	0000000000000040 _ZN7android14BnAudioFlingerD1Ev
000000000028b118 g    DF .text	0000000000000184 _ZN7android8OMXCodec25parseAVCCodecSpecificDataEPKvmPjS3_
00000000005ac5c0 g    DO .data	0000000000000018 _ZTIN9mkvparser11SimpleBlockE
00000000005ac160 g    DO .data	00000000000000d8 _ZTCN7android14MatroskaSourceE0_NS_11MediaSourceE
0000000000185e50 g    DF .text	0000000000000030 _ZN7android13IAudioFlingerD1Ev
00000000002050bc g    DF .text	000000000000005c _ZN7android19GraphicBufferSource29setRepeatPreviousFrameDelayUsEl
00000000001dc454 g    DF .text	00000000000002b4 _ZN7android25AHierarchicalStateMachine11changeStateERKNS_2spINS_6AStateEEE
00000000002684e0 g    DF .text	0000000000000018 _ZN7android9MP3Source9getFormatEv
00000000002d43bc g    DF .text	0000000000000038 _ZN5movie13NnCodecPlayer14GetPlayerStateEv
00000000002e58b4  w   DF .text	00000000000001c4 _ZN5movie6detail16TelemetryTrackerINS0_9SetAlwaysENS0_11ErrReporterEE14appendErrorLogEPKc
00000000001d3040 g    DF .text	00000000000000f4 _ZN7android14NuPlayerDriver28notifySetDataSourceCompletedEi
000000000026b8d4 g    DF .text	0000000000000028 _ZN7android13MPEG2TSWriter13internalWriteEPKvm
00000000002c304c g    DF .text	0000000000000060 _ZN8mkvmuxer9MkvWriter5WriteEPKvj
00000000002b7800 g    DF .text	0000000000000064 _ZN9mkvparser10BlockGroup5ParseEv
0000000000593120  w   DO .data	0000000000000098 _ZTCN7android11BnInterfaceINS_15IMediaCodecListEEE0_NS_10IInterfaceE
000000000029e498 g    DF .text	0000000000000038 _ZTv0_n24_N7android18SurfaceMediaSourceD1Ev
000000000020fa04 g    DF .text	0000000000000010 _ZN7android16SoftOMXComponent21AllocateBufferWrapperEPvPP20OMX_BUFFERHEADERTYPEjS1_j
000000000051bbf8 g    DO .rodata	0000000000000008 _ZN7android14ARTPConnection16kSelectTimeoutUsE
000000000017efb0  w   DF .text	0000000000000054 _ZN7android11AudioSystem24AudioPolicyServiceClientD0Ev
00000000002081e0  w   DF .text	0000000000000038 _ZN7android3OMX24CallbackDispatcherThreadD0Ev
00000000002a7f88  w   DF .text	0000000000000058 _ZNK7android6VectorINS_17MatroskaExtractor9TrackInfoEE12do_constructEPvm
00000000002d5cb8 g    DF .text	0000000000000264 _ZN5movie13NnCodecPlayer5PauseEb
000000000020fa14 g    DF .text	0000000000000010 _ZN7android16SoftOMXComponent17FreeBufferWrapperEPvjP20OMX_BUFFERHEADERTYPE
0000000000591260 g    DO .data	0000000000000098 _ZTCN7android14BnEffectClientE0_NS_10IInterfaceE
00000000005056dc g    DO .rodata	0000000000000060 invSBF
000000000050b67c g    DO .rodata	0000000000000040 h264bsdBlockX
000000000018a328 g    DF .text	0000000000000044 _ZTv0_n24_N7android19IAudioFlingerClientD0Ev
0000000000517eb0 g    DO .rodata	000000000000001c _ZTSN7android15IStreamListenerE
00000000002074d4 g    DF .text	00000000000000a4 _ZN7android3OMX24configureVideoTunnelModeEjj8OMX_BOOLjPP13native_handle
00000000002ca2ec g    DF .text	0000000000000078 _ZN5movie6Player6CreateEPPS0_PNS_12PlayerConfigE
000000000050b6bc g    DO .rodata	0000000000000040 h264bsdBlockY
00000000002c5638  w   DF .text	0000000000000260 _ZN7android10WebmWriterD2Ev
0000000000147460 g    DF .text	0000000000000058 BitstreamRead1Bits
00000000001ba5b0 g    DF .text	0000000000000064 _ZN7android14AH263Assembler10packetLostEv
0000000000505ea2 g    DO .rodata	00000000000000a2 huff_ltab1_2
000000000016e9c0 g    DF .text	0000000000000038 H264SwDecRelease
00000000001eaa8c g    DF .text	0000000000000664 _ZN7android11LiveSession9fetchFileEPKcPNS_2spINS_7ABufferEEElljPNS3_INS_10DataSourceEEEPNS_7String8E
000000000023f620 g    DF .text	0000000000000040 _ZN7android6ACodec17LoadedToIdleState15allocateBuffersEv
00000000001800f0 g    DF .text	0000000000000078 memcpy_to_q4_27_from_float
00000000005aa890 g    DO .data	0000000000000180 _ZTCN7android12SfMemoryHeapE40_NS_11BnInterfaceINS_11IMemoryHeapEEE
0000000000194414 g    DF .text	0000000000000058 _ZN7android22MediaMetadataRetrieverD2Ev
00000000002ee2b0  w   DF .text	0000000000000048 _ZThn8_N7android11BnInterfaceINS_19IGraphicBufferAllocEED1Ev
000000000051cb40 g    DO .rodata	0000000000000014 _ZTSN7android8AMessageE
00000000002ead44 g    DF .text	0000000000000080 _ZN5movie9ExtractorC1ENS_13ContainerTypeENS_9CacheSizeE
0000000000287d40 g    DF .text	000000000000003c _ZN7android10SoftVorbis20onPortFlushCompletedEj
000000000025eb2c g    DF .text	0000000000000024 _ZN7android10MediaCodec15onSetParametersERKNS_2spINS_8AMessageEEE
000000000051d400  w   DO .rodata	000000000000001d _ZTSN7android9ATSParser7ProgramE
000000000019e224 g    DF .text	0000000000000018 XML_SetUserData
000000000025724c g    DF .text	0000000000000018 _ZN7android11MediaBuffer7add_refEv
00000000001858f8 g    DF .text	0000000000000110 _ZN7android27StaticAudioTrackServerProxy12obtainBufferEPNS_5Proxy6BufferEb
00000000001d7f08 g    DF .text	00000000000000cc _ZN7android8NuPlayer15StreamingSourceD1Ev
00000000001f12cc  w   DF .text	0000000000000034 _ZN7android12SortedVectorINS_16key_value_pair_tINS_7AStringENS_2spINS_9M3UParser10MediaGroupEEEEEED2Ev
00000000000deb80 g    DF .text	000000000000003c TVMRVideoMixerRenderYUV
0000000000189d58  w   DF .text	00000000000000d0 _ZN7android14BpAudioFlinger16listAudioPatchesEPjP11audio_patch
0000000000284ed8  w   DF .text	0000000000000074 _ZNK7android6VectorINS_16NuMediaExtractor9TrackInfoEE7do_copyEPvPKvm
0000000000014fa8 g    DF .text	0000000000000004 _ZN2nv2mm10AllocAlignEmm
0000000000252b48 g    DF .text	000000000000007c _ZN7android18CallbackDataSourceD2Ev
00000000000edbd8 g    DF .text	0000000000000860 _Z25aacDecoder_drcMarkPayloadP8CDrcInfoP13FDK_BITSTREAM23AACDEC_DRC_PAYLOAD_TYPE
00000000002e8fd0 g    DF .text	0000000000000014 _ZN5movie7Decoder5StartEv
00000000001bd698  w   DF .text	0000000000000024 _ZN7android13ARTPAssemblerD0Ev
000000000017de0c g    DF .text	0000000000000068 _ZN7android11AudioSystem17releaseAudioPatchEi
00000000001804b4 g    DF .text	0000000000000034 nonZeroStereo32
000000000051c410  w   DO .rodata	0000000000000027 _ZTSN7android8NuPlayer17PostMessageActionE
00000000001511b4 g    DF .text	000000000000013c idctrow2_intra
00000000002880f4 g    DF .text	00000000000000a8 _ZN7android6MuxOMXD2Ev
000000000019e2f0 g    DF .text	0000000000000008 XML_SetEndElementHandler
000000000025ef2c  w   DF .text	00000000000000f8 _ZN7android17move_forward_typeINS_10MediaCodec10BufferInfoEEEvPT_PKS3_m
0000000000246220 g    DF .text	0000000000000044 _ZN7android11AudioSource17trackMaxAmplitudeEPsi
00000000001f1cf4 g    DF .text	0000000000000024 _ZN7android15PlaylistFetcherD0Ev
0000000000246fc0 g    DF .text	0000000000000138 _ZN7android14getNextNALUnitEPPKhPmS2_S3_b
00000000001dcd78 g    DF .text	0000000000000010 _ZN7android7ALooper17unregisterHandlerEi
00000000002414a0 g    DF .text	0000000000000024 _ZN7android6ACodec20ExecutingToIdleState19onInputBufferFilledERKNS_2spINS_8AMessageEEE
00000000005a9d98  w   DO .data	0000000000000050 _ZTVN7android6VectorIPNS_8OMXCodec17CodecSpecificDataEEE
00000000001b5738  w   DF .text	000000000000005c _ZNK7android12SortedVectorINS_16key_value_pair_tIjNS_2spINS_10ARTPSourceEEEEEE12do_constructEPvm
0000000000268158 g    DF .text	00000000000000bc _ZN7android9MP3SourceC2ERKNS_2spINS_8MetaDataEEERKNS1_INS_10DataSourceEEEljRKNS1_INS_9MP3SeekerEEE
000000000020f514 g    DF .text	00000000000000d8 _ZN7android22SimpleSoftOMXComponent12editPortInfoEj
00000000001ea828 g    DF .text	0000000000000010 _ZN7android11LiveSession19cancelPollBufferingEv
000000000023ab0c g    DF .text	00000000000002dc _ZN7android6ACodec25setupVPXEncoderParametersERKNS_2spINS_8AMessageEEE
0000000000597d40  w   DO .data	0000000000000098 _ZTCN7android11BnInterfaceINS_12IOMXObserverEEE0_NS_10IInterfaceE
000000000059a9c0  w   DO .data	0000000000000098 _ZTCN7android11BnInterfaceINS_15IStreamListenerEEE0_NS_10IInterfaceE
0000000000594470  w   DO .data	00000000000000a8 _ZTCN7android11BpInterfaceINS_18IMediaPlayerClientEEE0_NS_18IMediaPlayerClientE
0000000000216a10 g    DF .text	0000000000000250 EncodeVUI
00000000002bb8dc g    DF .text	00000000000000b0 _ZN8mkvmuxer7Cluster8FinalizeEv
000000000058dda8  w   DO .data	00000000000000e8 _ZTVN7android20BpAudioFlingerClientE
00000000001947e0 g    DF .text	0000000000000058 _ZN7android22MediaMetadataRetriever15extractAlbumArtEv
00000000000163d8 g    DF .text	0000000000000010 _ZN2nv2mm17SetThreadPriorityEi
00000000001325c0 g    DF .text	0000000000000004 FDKfeof
000000000058e620 g    DO .data	0000000000000020 _ZTTN7android25IAudioPolicyServiceClientE
000000000019e394 g    DF .text	0000000000000010 XML_SetExternalEntityRefHandlerArg
000000000019aa4c g    DF .text	0000000000000070 _ZN7android11StringArrayD0Ev
00000000001c5a64  w   DF .text	000000000000005c _ZNK7android6VectorINS_2spINS_11MediaSourceEEEE8do_splatEPvPKvm
00000000001f7bf8 g    DF .text	0000000000000044 _ZNK7android3ID38Iterator9getStringEPNS_7String8ES3_
00000000002b5080 g    DF .text	0000000000000aec _ZNK9mkvparser6Tracks15ParseTrackEntryExxxxRPNS_5TrackE
00000000002616f4  w   DF .text	0000000000000060 _ZNK7android6VectorINS_17CodecProfileLevelEE8do_splatEPvPKvm
00000000002d7314 g    DF .text	00000000000000d4 _ZN5movie13NnCodecPlayer20RegisterOutputBufferEPNS_6BufferEPi
0000000000165274 g    DF .text	0000000000000be8 h264bsdDecodeMacroblockLayer
00000000005ad868 g    DO .data	0000000000000048 _ZTVN5movie10HLSHandlerE
00000000002199c4 g    DF .text	0000000000000088 _Z16AVCSaveRDSamplesP12tagMultiPassi
0000000000587f30  w   DO .data	0000000000000058 _ZTTN7android11BnInterfaceINS_13IEffectClientEEE
0000000000590e48 g    DO .data	0000000000000178 _ZTVN7android14BnEffectClientE
00000000001b4eb4 g    DF .text	0000000000000080 _ZN7android14ARTPConnection13postPollEventEv
000000000051db60  w   DO .rodata	0000000000000064 _ZTSZN7android14ReferenceMover15move_referencesINS_19AnotherPacketSourceEEEvPNS_2spIT_EEPKS5_mE7Renamer
000000000051dda0  w   DO .rodata	000000000000004a _ZTSN7android12SortedVectorINS_16key_value_pair_tIjPNS_15OMXNodeInstanceEEEEE
000000000023ade8 g    DF .text	00000000000000ec _ZN7android6ACodec31setCyclicIntraMacroblockRefreshERKNS_2spINS_8AMessageEEEi
00000000002e5f90 g    DF .text	000000000000000c _ZN5movie11DecoderImpl20RegisterClientEventsEPNS_13DecoderEventsE
0000000000023f24 g    DF .text	000000000000003c NvxSchedulerIsMultithreaded
00000000002e53c0  w   DF .text	0000000000000110 _ZN5movie6detail16TelemetryTrackerINS0_9SetAlwaysENS0_11ErrReporterEE14appendErrorLogERKNSt3__112basic_stringIcNS5_11char_traitsIcEENS5_9allocatorIcEEEE
00000000002ef3f8  w   DF .text	0000000000000198 _ZNSt3__115basic_stringbufIcNS_11char_traitsIcEENS_9allocatorIcEEE8overflowEi
0000000000015a74 g    DF .text	0000000000000010 NvMMLiteBlockSetSendBlockEventFunction
0000000000258730 g    DF .text	0000000000000054 _ZN7android10MediaCodec20PostAndAwaitResponseERKNS_2spINS_8AMessageEEEPS3_
00000000002dc778 g    DF .text	0000000000000070 _ZN5movie30NnCodecAudioSinkThreadFunctionEPv
00000000002085dc  w   DF .text	0000000000000004 _ZNK7android12SortedVectorINS_16key_value_pair_tIjPNS_15OMXNodeInstanceEEEE12do_constructEPvm
000000000017d45c g    DF .text	0000000000000080 _ZN7android11AudioSystem16initStreamVolumeE19audio_stream_type_tii
000000000019a7f8  w   DF .text	0000000000000004 _ZNK7android6VectorINS_12SoundPoolMsgEE10do_destroyEPvm
000000000022f354  w   DF .text	000000000000006c _ZNK7android12SortedVectorINS_16key_value_pair_tImNS_2spINS_15TimedTextSourceEEEEEE16do_move_backwardEPvPKvm
00000000002cc0e8 g    DF .text	0000000000000014 _ZN5movie15PlayerExtractorC2Ev
00000000002d03b4  w   DF .text	0000000000000098 _ZN7android4ListINS_2spIN5movie12HLSExtractor9HLSSampleEEEED0Ev
00000000001f854c g    DF .text	000000000000009c _ZN7android19AnotherPacketSourceC2ERKNS_2spINS_8MetaDataEEE
000000000020e934 g    DF .text	0000000000000058 _ZN7android22SimpleSoftOMXComponent13onSendCommandE15OMX_COMMANDTYPEj
00000000002c75e0 g    DF .text	0000000000000050 _ZN7android11WebmElement9totalSizeEv
0000000000205888  w   DF .text	0000000000000044 _ZN7android17AHandlerReflectorINS_19GraphicBufferSourceEED2Ev
0000000000197f10 g    DF .text	0000000000000090 _ZN7android12SoundChannel4stopEv
000000000029f2a4  w   DF .text	0000000000000040 _ZNK7android6VectorINS_2spINS_13GraphicBufferEEEE10do_destroyEPvm
0000000000015f9c g    DF .text	000000000000002c NvMMLiteBlockAreAllBuffersReturned
00000000002ded38 g    DF .text	0000000000000170 _ZN5movie16NnCodecAudioSink24AcquireOutputBufferIndexEiPiPlS1_
00000000001cf300 g    DF .text	0000000000000064 _ZN7android8NuPlayer7Decoder31notifyResumeCompleteIfNecessaryEv
00000000005a57b0  w   DO .data	0000000000000018 _ZTIN7android20AwesomeLocalRendererE
00000000001d9a90 g    DF .text	0000000000000048 _ZN7android16SoftwareRendererC1ERKNS_2spI13ANativeWindowEE
00000000002b6fb8 g    DF .text	000000000000001c _ZN9mkvparser7ClusterC1EPNS_7SegmentElx
0000000000177330 g    DF .text	0000000000000090 _ZN7android11AudioEffect12getParameterEP14effect_param_s
0000000000178e04 g    DF .text	0000000000000068 _ZN7android11AudioRecordC2Ev
000000000059e7c8  w   DO .data	0000000000000048 _ZTVN7android8NuPlayer16SetSurfaceActionE
00000000001d33a4 g    DF .text	0000000000000190 _ZN7android8NuPlayer8RendererC2ERKNS_2spINS_15MediaPlayerBase9AudioSinkEEERKNS2_INS_8AMessageEEEj
000000000051d550  w   DO .rodata	0000000000000033 _ZTSN7android6VectorINS_2spINS_9ATSParser7ProgramEEEEE
00000000002c7630 g    DF .text	000000000000009c _ZN7android11WebmElement9serializeERm
00000000005abf50 g    DO .data	0000000000000018 _ZTIN7android12WVMExtractorE
0000000000599ea8  w   DO .data	00000000000000f0 _ZTVN7android11BpInterfaceINS_15IStreamListenerEEE
00000000001f480c g    DF .text	0000000000000070 _ZN7android15PlaylistFetcher18queueDiscontinuityENS_9ATSParser17DiscontinuityTypeERKNS_2spINS_8AMessageEEE
0000000000058c68 g    DF .text	000000000000005c jpegTegraDecoderAccelerationCheck
000000000017e33c g    DF .text	0000000000000040 _ZThn8_N7android11AudioSystem24AudioPolicyServiceClient22onAudioPatchListUpdateEv
000000000058ae50 g    DO .data	0000000000000018 _ZTIN7android21AudioTrackServerProxyE
0000000000155998 g    DF .text	00000000000002f0 PV_VlcDecIntraDCPredSize
00000000001bd92c g    DF .text	00000000000002e4 _ZN7android9SDPLoader6onLoadERKNS_2spINS_8AMessageEEE
00000000001cef48 g    DF .text	0000000000000074 _ZN7android8NuPlayer7Decoder13onSetRendererERKNS_2spINS0_8RendererEEE
0000000000254968 g    DF .text	000000000000005c _ZN7android4ESDS5parseEv
000000000001459c g    DF .text	0000000000000008 NvMMHToNL
00000000001460a0 g    DF .text	00000000000000d0 _ZN7android9SoftMPEG4D1Ev
00000000001560d4 g    DF .text	000000000000044c VlcDecTCOEFInter
000000000021ed38 g    DF .text	0000000000000084 InterpretMBType
00000000002a83fc g    DF .text	0000000000000004 _ZN9mkvparser10IMkvReaderD1Ev
00000000005a0130 g    DO .data	0000000000000018 _ZTIN7android9M3UParser10MediaGroupE
00000000002eba80 g    DF .text	0000000000000010 _ZNK5movie9MediaData10FindStringEPKcPS2_
00000000005acfd0 g    DO .data	0000000000000170 _ZTVN5movie13BrowserPlayerE
00000000005d5830 g    DO .bss	0000000000000008 _ZN7android25IAudioPolicyServiceClient10descriptorE
0000000000521180  w   DO .rodata	000000000000006a _ZTSZN7android14ReferenceMover15move_referencesINS_13MPEG2TSWriter10SourceInfoEEEvPNS_2spIT_EEPKS6_mE7Renamer
00000000001953e0 g    DF .text	0000000000000140 _ZN7android11MediaPlayer15attachNewPlayerERKNS_2spINS_12IMediaPlayerEEE
00000000005a0710 g    DO .data	0000000000000018 _ZTIN7android9ATSParserE
000000000029e7d4 g    DF .text	00000000000001ac _ZN7android18SurfaceMediaSource5startEPNS_8MetaDataE
0000000000194280  w   DF .text	0000000000000024 _ZN7android2spINS_22MediaMetadataRetriever13DeathNotifierEED2Ev
000000000051dee0  w   DO .rodata	000000000000005b _ZTSN7android12SortedVectorINS_16key_value_pair_tIP17OMX_COMPONENTTYPEPNS_13OMXPluginBaseEEEEE
00000000005ad4a0 g    DO .data	0000000000000020 _ZTTN11nnAudioSink14CallbackThreadE
000000000058f480  w   DO .data	0000000000000098 _ZTCN7android11BpInterfaceINS_25IAudioPolicyServiceClientEEE0_NS_10IInterfaceE
00000000001b59dc  w   DF .text	00000000000000b4 _ZN7android4ListINS_14ARTPConnection10StreamInfoEE5clearEv
000000000028af94 g    DF .text	0000000000000128 _ZN7android8OMXCodec26parseHEVCCodecSpecificDataEPKvmPjS3_
00000000002ca0dc g    DF .text	0000000000000064 _ZN7android9WebmFrameC2Ev
00000000005a4da0 g    DO .data	0000000000000020 _ZTTN7android9AMRSourceE
00000000002e1c20 g    DF .text	0000000000000070 _ZN5movie16NnCodecVideoSink13GetRealTimeUsEll
000000000019a1f4  w   DF .text	000000000000006c _ZNK7android12SortedVectorINS_16key_value_pair_tIiNS_2spINS_6SampleEEEEEE16do_move_backwardEPvPKvm
000000000024e38c g    DF .text	000000000000009c _ZN7android13AwesomePlayer14setVideoSourceENS_2spINS_11MediaSourceEEE
0000000000232e18  w   DF .text	0000000000000034 _ZN7android6VectorINS_6ACodec10BufferInfoEED2Ev
000000000051d3b0 g    DO .rodata	0000000000000015 _ZTSN7android9ATSParserE
0000000000250428 g    DF .text	0000000000000348 _ZN7android13AwesomePlayer16initVideoDecoderEj
000000000018cba8  w   DF .text	0000000000000050 _ZThn8_N7android14BpEffectClientD0Ev
000000000026c8a0 g    DF .text	0000000000000024 _ZN7android14MPEG4ExtractorD0Ev
00000000004f059c g    DO .rodata	0000000000000058 aHuffTreeRvlCodewds
00000000001f574c g    DF .text	0000000000000dd0 _ZN7android15PlaylistFetcher26extractAndQueueAccessUnitsERKNS_2spINS_7ABufferEEERKNS1_INS_8AMessageEEE
0000000000200348  w   DF .text	0000000000000004 _ZNK7android6VectorINS_11NALPositionEE10do_destroyEPvm
0000000000272c8c g    DF .text	0000000000000350 _ZN7android11MPEG4Source10parseChunkEPl
0000000000218498 g    DF .text	00000000000000b8 CleanupRateControlModule
000000000018e450 g    DF .text	0000000000000108 _ZN7android19BnMediaPlayerClient10onTransactEjRKNS_6ParcelEPS1_j
00000000002b14d8 g    DF .text	0000000000000008 _ZNK9mkvparser8Chapters4Atom15GetDisplayCountEv
0000000000517650 g    DO .rodata	000000000000001a _ZTSN7android13IAudioFlingerE
0000000000161764 g    DF .text	000000000000002c h264bsdDpbOutputPicture
000000000020f9f4 g    DF .text	0000000000000010 _ZN7android16SoftOMXComponent16UseBufferWrapperEPvPP20OMX_BUFFERHEADERTYPEjS1_jPh
00000000002b1d6c g    DF .text	00000000000000c8 _ZN9mkvparser4Tags3Tag5ParseEPNS_10IMkvReaderExx
0000000000207f10 g    DF .text	0000000000000120 _ZN7android3OMX17OnEmptyBufferDoneEjjP20OMX_BUFFERHEADERTYPE
00000000001ba9d0 g    DF .text	00000000000004a0 _ZN7android13AAMRAssembler9addPacketERKNS_2spINS_10ARTPSourceEEE
00000000002e7d44 g    DF .text	00000000000000dc _ZN5movie11DecoderImpl30RemoveBufferIndexFromInputListEPiS1_
000000000029d054  w   DF .text	0000000000000008 _ZN7android11BnInterfaceINS_11IMemoryHeapEE10onAsBinderEv
0000000000282594 g    DF .text	0000000000000008 _ZNK7android15NuCachedSource222getAvailableCacheBytesEv
00000000001b6578 g    DF .text	0000000000000010 _ZN7android10ARTPSource11byeReceivedEv
00000000001647c4 g    DF .text	0000000000000914 h264bsdIntraChromaPrediction
000000000026c154 g    DF .text	000000000000005c _ZN7android15MPEG4DataSourceD2Ev
00000000002e9d10 g    DF .text	000000000000006c _ZN5movie11EncoderImpl5ResetEv
00000000001958c0 g    DF .text	000000000000017c _ZN7android11MediaPlayer13setDataSourceERKNS_2spINS_13IStreamSourceEEE
00000000005a5588 g    DO .data	0000000000000048 _ZTVN7android13AwesomePlayerE
00000000000ecbb0  w   DF .text	000000000000003c _ZN7android6VectorINS_22SimpleSoftOMXComponent8PortInfoEED0Ev
000000000022e534  w   DF .text	0000000000000014 _ZN7android19TimedText3GPPSource5startEv
000000000016ce84 g    DF .text	0000000000000010 h264bsdIsStartOfPicture
000000000018eaa8  w   DF .text	0000000000000008 _ZN7android11BpInterfaceINS_18IMediaPlayerClientEE10onAsBinderEv
0000000000243660 g    DF .text	0000000000000094 _ZN7android9AMRSourceD1Ev
0000000000185e80 g    DF .text	000000000000003c _ZTv0_n24_N7android13IAudioFlingerD1Ev
00000000002495f8 g    DF .text	000000000000006c _ZN7android12AVIExtractorD0Ev
0000000000298bf4 g    DF .text	00000000000000e4 _ZN7android14SampleIterator14findChunkRangeEj
00000000002acf3c g    DF .text	000000000000001c _ZN9mkvparser8SeekHeadC2EPNS_7SegmentExxxx
000000000018d700  w   DF .text	0000000000000050 _ZThn8_N7android16BpMediaCodecListD0Ev
00000000001dea40 g    DF .text	0000000000000048 _ZN7android8AMessage4Item7setNameEPKcm
000000000025543c g    DF .text	0000000000000058 _ZN7android18InMemoryFileSource7getSizeEPl
0000000000255cb4 g    DF .text	0000000000000008 _ZN7android18CurlHttpConnection9connect_lEPKcPKNS_11KeyedVectorINS_7String8ES4_EEl
00000000002dfe90 g    DF .text	0000000000000040 _ZN5movie16NnCodecVideoSink8SetStateENS_12NnCodecStateE
0000000000517730 g    DO .rodata	0000000000000021 _ZTSN7android20BnAudioFlingerClientE
000000000051bc00 g    DO .rodata	000000000000001b _ZTSN7android14ARTPConnectionE
0000000000201d84 g    DF .text	0000000000000084 _ZN7android16MPEG2PSExtractor12WrappedTrackD0Ev
00000000002b13b0 g    DF .text	000000000000003c _ZNK9mkvparser8Chapters4Atom11ShallowCopyERS1_
000000000022ca50 g    DF .text	000000000000020c _ZN7android28SoftVideoEncoderOMXComponent20internalSetParameterE13OMX_INDEXTYPEPv
00000000002a3884 g    DF .text	00000000000000cc _ZN7android9WAVSource5startEPNS_8MetaDataE
000000000020be78 g    DF .text	00000000000002cc _ZN7android15OMXNodeInstance24allocateBufferWithBackupEjRKNS_2spINS_7IMemoryEEEPj
000000000020dd50 g    DF .text	0000000000000478 _ZN7android22SimpleSoftOMXComponent16checkTransitionsEv
00000000005a5350 g    DO .data	00000000000000d8 _ZTCN7android12AVIExtractor9AVISourceE0_NS_11MediaSourceE
00000000002a7154 g    DF .text	00000000000000bc _ZN7android17MatroskaExtractorD1Ev
000000000013250c g    DF .text	00000000000000b4 FDKfread_EL
0000000000193d4c  w   DF .text	0000000000000034 _ZN7android6VectorINS_7AStringEED2Ev
00000000001d3f08 g    DF .text	000000000000002c _ZN7android8NuPlayer8Renderer28getCurrentPositionIfPaused_lEPl
00000000002860b4 g    DF .text	00000000000000e0 _ZN7android17MyVorbisExtractor12seekToOffsetEl
00000000002d70a4 g    DF .text	000000000000003c _ZN5movie13NnCodecPlayer24ReleaseOutputBufferIndexEii
000000000019c7cc g    DF .text	0000000000000378 XML_ParserReset
00000000001ebe2c  w   DF .text	0000000000000014 _ZNK7android12SortedVectorINS_16key_value_pair_tImlEEE7do_copyEPvPKvm
00000000005add50 g    DO .data	0000000000000040 _ZTVN5movie18VideoCodecCallbackE
0000000000518210  w   DO .rodata	0000000000000020 _ZTSN7android19IMediaDeathNotifierE
00000000001dc154 g    DF .text	0000000000000014 _ZN7android8AHandler6looperEv
00000000002b16d8 g    DF .text	0000000000000284 _ZN9mkvparser8Chapters7Display5ParseEPNS_10IMkvReaderExx
0000000000015eac g    DF .text	0000000000000060 NvMMLiteBlockClose
00000000001921f0  w   DF .text	0000000000000040 _ZN7android16BpStreamListenerD1Ev
000000000027a580 g    DF .text	0000000000000064 _ZN7android11MPEG4Writer5Track20addOneStscTableEntryEmm
000000000020fec0 g    DF .text	0000000000000048 _ZN7android13SoftOMXPlugin19enumerateComponentsEPcmj
0000000000188078  w   DF .text	0000000000000084 _ZNK7android14BpAudioFlinger6formatEi
000000000051ced0 g    DO .rodata	0000000000000021 _ZTSN7android9M3UParser10MediaGroupE
0000000000246818 g    DF .text	0000000000000050 _ZN7android7parseUEEPNS_10ABitReaderE
0000000000177da8  w   DF .text	0000000000000048 _ZThn8_N7android11AudioEffect12EffectClientD1Ev
00000000002821dc g    DF .text	00000000000001e8 _ZN7android15NuCachedSource214seekInternal_lEl
00000000002e94cc g    DF .text	00000000000000a4 _ZN5movie22EncoderMessageReceiver11SetCallbackEPNS_11EncoderImplERN7android2spINS3_10MediaCodecEEE
00000000001918ac  w   DF .text	0000000000000040 _ZN7android16BnStreamListenerD1Ev
00000000002ed234 g    DF .text	000000000000005c _ZN5movie20NnCodecVideoConsumerD2Ev
00000000001f0f68 g    DF .text	00000000000000a4 _ZN7android9M3UParser26parseDiscontinuitySequenceERKNS_7AStringEPm
00000000001937bc  w   DF .text	0000000000000088 _ZN7android14MediaCodecInfo12CapabilitiesD2Ev
00000000005a63a0  w   DO .data	0000000000000028 _ZTIN7android6VectorINS_10MediaCodec10BufferInfoEEE
000000000018f540  w   DF .text	0000000000000098 _ZThn8_N7android11BnInterfaceINS_4IOMXEE19queryLocalInterfaceERKNS_8String16E
00000000002b8414 g    DF .text	0000000000000004 _ZN8mkvmuxer10IMkvWriterD2Ev
000000000029a850 g    DF .text	0000000000000130 _ZN7android9SfNvnUtilD2Ev
000000000022e298 g    DF .text	0000000000000140 _ZN7android19TimedText3GPPSource33extractAndAppendLocalDescriptionsElPKNS_11MediaBufferEPNS_6ParcelE
000000000051c7a0  w   DO .rodata	000000000000001e _ZTSN7android4ListINS_7AStringEEE
00000000002dd678 g    DF .text	0000000000000900 _ZN5movie16NnCodecAudioSink6RenderEv
000000000018c7cc  w   DF .text	0000000000000008 _ZN7android11BpInterfaceINS_13IEffectClientEE10onAsBinderEv
000000000019534c g    DF .text	0000000000000014 _ZN7android11MediaPlayer7clear_lEv
0000000000271950 g    DF .text	0000000000000338 _ZN7android14MPEG4Extractor17parse3GPPMetaDataElmi
000000000029f6e4 g    DF .text	00000000000000bc _ZN7android15TimedEventQueueC2Ev
00000000002d7514  w   DF .text	0000000000000004 _ZN5movie13CodecCallbackD2Ev
000000000059ad20  w   DO .data	0000000000000018 _ZTIZN7android14ReferenceMover15move_referencesINS_7IMemoryEEEvPNS_2spIT_EEPKS5_mE7Renamer
00000000002128e0 g    DF .text	0000000000000008 PVAVCEncUpdateBitRate
00000000005a3958 g    DO .data	0000000000000128 _ZTVN7android6ACodecE
00000000002c7548 g    DF .text	0000000000000004 _ZN7android11WebmElementD0Ev
00000000005213e0  w   DO .rodata	000000000000001d _ZTSN7android6VectorINS_4TrexEEE
00000000002bea20 g    DF .text	000000000000000c _ZN8mkvmuxer7Segment10OutputCuesEb
000000000017c350 g    DF .text	0000000000000140 _ZN7android11AudioSystem18getInputBufferSizeEj14audio_format_tjPm
00000000001e4ea4  w   DF .text	0000000000000008 _ZN7android10DataSource17DrmInitializationEPKc
0000000000222c9c g    DF .text	000000000000016c VertInterpWClip
00000000002c2fc8 g    DF .text	0000000000000034 _ZN8mkvmuxer9MkvWriter5CloseEv
000000000017f188  w   DF .text	000000000000005c _ZTv0_n24_N7android11AudioSystem24AudioPolicyServiceClientD0Ev
0000000000223888 g    DF .text	0000000000000720 intrapred_luma_16x16
0000000000262e20 g    DF .text	0000000000000034 _ZThn8_N7android16MediaCodecSource20signalBufferReturnedEPNS_11MediaBufferE
00000000002ee3f0  w   DF .text	000000000000004c _ZNSt3__16__treeINS_12__value_typeIPvPK13native_handleEENS_19__map_value_compareIS2_S6_NS_4lessIS2_EELb1EEENS_9allocatorIS6_EEE7destroyEPNS_11__tree_nodeIS6_S2_EE
0000000000266bc4 g    DF .text	0000000000000040 _ZN7android8MetaData10typed_dataD1Ev
00000000001c15a8 g    DF .text	0000000000000758 _ZN7android8NuPlayer13GenericSource18initFromDataSourceEv
00000000005ac720 g    DO .data	0000000000000010 _ZTIN8mkvmuxer10IMkvWriterE
00000000002d22d4 g    DF .text	0000000000000078 _ZN5movie7NnMuxer10InitializeEPKcNS_17MuxerOutputFormatE
000000000024b388  w   DF .text	0000000000000064 _ZNK7android6VectorINS_12AVIExtractor10SampleInfoEE7do_copyEPvPKvm
00000000002c7880 g    DF .text	0000000000000024 _ZN7android9WebmFloatC2Emd
00000000004fa8d8 g    DO .rodata	00000000000001e0 SineWindow120
00000000002c78a4 g    DF .text	0000000000000028 _ZN7android9WebmFloatC2Emf
0000000000591030 g    DO .data	0000000000000170 _ZTCN7android14BnEffectClientE0_NS_11BnInterfaceINS_13IEffectClientEEE
0000000000197324 g    DF .text	0000000000000014 _ZN7android18MediaScannerClientD1Ev
000000000051fb50  w   DO .rodata	0000000000000052 _ZTSN7android12SortedVectorINS_16key_value_pair_tImNS_2spINS_15TimedTextSourceEEEEEEE
000000000023a8c0 g    DF .text	000000000000024c _ZN7android6ACodec26setupHEVCEncoderParametersERKNS_2spINS_8AMessageEEE
0000000000014f14 g    DF .text	000000000000008c _ZN2nv2mm12SetAllocatorEPFPvmmS1_EPFvS1_S1_EPFS1_S1_mS1_ES1_
00000000000ed9b4 g    DF .text	0000000000000224 _Z22aacDecoder_drcSetParamP8CDrcInfo16AACDEC_DRC_PARAMi
00000000001487ac g    DF .text	0000000000000518 BlockIDCT
0000000000167e78 g    DF .text	00000000000001d4 h264bsdInterpolateHorHalf
000000000019b278  w   DF .text	0000000000000060 _ZN7android20MediaPlayerInterfaceD0Ev
00000000001e4910 g    DF .text	0000000000000024 _ZN7android14LiveDataSourceD0Ev
00000000001d0480 g    DF .text	000000000000008c _ZN7android8NuPlayer11DecoderBase9configureERKNS_2spINS_8AMessageEEE
0000000000244f40 g    DF .text	00000000000000cc _ZN7android11AudioPlayer13getRealTimeUsEv
00000000004f86d8 g    DO .rodata	0000000000000200 SineWindow128
00000000001d9ad8 g    DF .text	0000000000000050 _ZN7android16SoftwareRendererD2Ev
000000000018026c g    DF .text	0000000000000078 memcpy_to_i32_from_float
0000000000252d9c g    DF .text	0000000000000100 _ZN7android26WindowedLinearFitEstimatorC1Emdmd
00000000002c5590 g    DF .text	000000000000007c _ZN7android10WebmWriter5pauseEv
00000000000ea914 g    DF .text	00000000000001dc _ZN7android8SoftAAC2C1EPKcPK16OMX_CALLBACKTYPEPvPP17OMX_COMPONENTTYPE
00000000001e4eb8 g    DF .text	0000000000000064 _ZN7android11LiveSession18BandwidthEstimatorC2Ev
000000000025549c g    DF .text	0000000000000004 _ZN7android18InMemoryFileSource10getDrmInfoERNS_2spINS_13DecryptHandleEEEPPNS_16DrmManagerClientE
000000000025646c g    DF .text	0000000000000094 _ZTv0_n24_N7android10JPEGSourceD0Ev
0000000000201b90 g    DF .text	000000000000008c _ZN7android16MPEG2PSExtractor12WrappedTrackC2ERKNS_2spIS0_EERKNS2_INS0_5TrackEEE
000000000029cc14 g    DF .text	0000000000000008 _ZNK7android12SfMemoryHeap9getHeapIDEv
00000000002b80bc g    DF .text	0000000000000040 _ZN9mkvparser10BlockGroupC2EPNS_7ClusterElxxxxxx
00000000002d5168 g    DF .text	0000000000000108 _ZN5movie18AudioCodecCallback23OnOutputBufferAvailableEPNS_5CodecEilj
000000000058c5d0  w   DO .data	00000000000000a8 _ZTCN7android14BpAudioFlingerE8_NS_9BpRefBaseE
000000000023e484 g    DF .text	0000000000000050 _ZN7android6ACodec18UninitializedState7onSetupERKNS_2spINS_8AMessageEEE
00000000002547ac g    DF .text	0000000000000040 _ZN7android13DataURISourceD2Ev
000000000059b6f0 g    DO .data	00000000000000a8 _ZTCN7android11MediaPlayerE0_NS_18IMediaPlayerClientE
0000000000261e78 g    DF .text	0000000000000084 _ZN7android16MediaCodecSource6PullerD1Ev
00000000001d7b84 g    DF .text	0000000000000064 _ZN7android8NuPlayer8Renderer16syncQueuesDone_lEv
000000000020d3f8  w   DF .text	0000000000000004 _ZNK7android12SortedVectorIP20OMX_BUFFERHEADERTYPEE10do_destroyEPvm
00000000002eb7ec g    DF .text	0000000000000008 _ZNK5movie6Buffer4SizeEv
0000000000012f10 g    DF .text	000000000000003c NvmmUlpKpiLoggerDeInit
00000000005d5940 g    DO .bss	0000000000000008 _ZN7android22MediaMetadataRetriever14sDeathNotifierE
000000000059e6e8  w   DO .data	0000000000000040 _ZTVN7android19NativeWindowWrapperE
00000000001eccb4 g    DF .text	0000000000000008 _ZNK7android9M3UParser10MediaGroup11countTracksEv
00000000005a3a80 g    DO .data	0000000000000058 _ZTVN7android6ACodec15PortDescriptionE
0000000000190428  w   DF .text	0000000000000048 _ZN7android11BpInterfaceINS_12IOMXObserverEED0Ev
0000000000595570 g    DO .data	0000000000000098 _ZTCN7android5BnOMXE0_NS_10IInterfaceE
000000000017f3e8  w   DF .text	0000000000000064 _ZNK7android6VectorINS_8AudioMixEE10do_destroyEPvm
000000000018b0ec  w   DF .text	0000000000000050 _ZTv0_n24_N7android26BpAudioPolicyServiceClientD0Ev
0000000000517920  w   DO .rodata	0000000000000026 _ZTSN7android11BpInterfaceINS_7IEffectEEE
0000000000520070 g    DO .rodata	0000000000000022 _ZTSN7android6ACodec14ExecutingStateE
00000000002d8350 g    DF .text	00000000000000cc _ZNK5movie11NnMediaData10FindStringEPKcPS2_
000000000029d4f0  w   DF .text	00000000000000a0 _ZNK7android6VectorINS_11SfMemDealer7MemInfoEE15do_move_forwardEPvPKvm
000000000014f8f0 g    DF .text	0000000000000e48 GetPredOutside
00000000002b80b4 g    DF .text	0000000000000008 _ZNK9mkvparser11SimpleBlock8GetBlockEv
000000000051d000 g    DO .rodata	000000000000001c _ZTSN7android15PlaylistFetcherE
00000000005a02c8  w   DO .data	0000000000000058 _ZTVN7android12SortedVectorINS_16key_value_pair_tINS_7AStringENS_2spINS_7ABufferEEEEEEE
00000000002c1c88 g    DF .text	0000000000000610 _ZN8mkvmuxer24WriteBlockWithAdditionalEPNS_10IMkvWriterEPKhyS3_yyyxy
00000000002049fc g    DF .text	0000000000000214 _ZN7android19GraphicBufferSource14submitBuffer_lERKNS_22IGraphicBufferConsumer10BufferItemEi
000000000029d990 g    DF .text	0000000000000174 _ZN7android13SkipCutBuffer4readEPcm
00000000001d58c0 g    DF .text	00000000000004ac _ZN7android8NuPlayer8Renderer17onDrainVideoQueueEv
00000000002b2490 g    DF .text	0000000000000018 _ZN9mkvparser15ContentEncodingC2Ev
000000000018fc64  w   DF .text	0000000000000048 _ZThn8_N7android13BnOMXObserverD1Ev
0000000000187508  w   DF .text	0000000000000048 _ZTv0_n24_N7android11BnInterfaceINS_13IAudioFlingerEED1Ev
000000000029ac9c g    DF .text	00000000000000c4 _ZN7android9SfNvnUtil25SetNativeHandleFromClientEPviii
0000000000180af8 g    DF .text	0000000000000128 _ZN7android10AudioTrackC1E19audio_stream_type_tj14audio_format_tjm20audio_output_flags_tPFviPvS4_ES4_jiNS0_13transfer_typeEPK20audio_offload_info_tiiPK18audio_attributes_t
0000000000257540 g    DF .text	000000000000016c _ZN7android11MediaBuffer5cloneEv
0000000000012f4c g    DF .text	000000000000001c NvmmUlpKpiSetLogger
000000000010a8ac g    DF .text	00000000000000b8 _Z20qmfAnalysisFilteringP15QMF_FILTER_BANKPPiS2_P16QMF_SCALE_FACTORPKsiS1_
0000000000587cb0  w   DO .data	0000000000000098 _ZTCN7android11AudioEffect12EffectClientE32_NS_7IBinder14DeathRecipientE
00000000001d9750 g    DF .text	00000000000002d4 _ZN7android14ColorConverter31convertTIYUV420PackedSemiPlanarERKNS0_12BitmapParamsES3_
00000000005a15c0  w   DO .data	0000000000000028 _ZTIN7android6VectorINS_19GraphicBufferSource11CodecBufferEEE
00000000002ba060 g    DF .text	000000000000000c _ZN8mkvmuxer6TracksC2Ev
00000000005acfc8 g    DO .data	0000000000000008 _ZN5movie7codecID27MEDIA_CODEC_ID_MPEG2_AAC_LCE
0000000000190100  w   DF .text	0000000000000008 _ZN7android5BpOMX8getStateEjP13OMX_STATETYPE
000000000013cecc g    DF .text	0000000000000108 voAACEnc_mem_malloc
0000000000192548  w   DF .text	000000000000004c _ZNK7android6VectorINS_2spINS_7IMemoryEEEE10do_destroyEPvm
000000000029c72c g    DF .text	000000000000007c _ZN7android12SfMemoryHeapC1Em
000000000018dd88 g    DF .text	000000000000002c _ZN7android19IMediaDeathNotifier13DeathNotifierD1Ev
000000000019ec58 g    DF .text	0000000000000010 XML_MemRealloc
000000000029fa94  w   DF .text	00000000000000a0 _ZN7android4ListINS_15TimedEventQueue9QueueItemEED2Ev
0000000000206fc0 g    DF .text	0000000000000094 _ZN7android3OMX12getParameterEj13OMX_INDEXTYPEPvm
00000000002191f8 g    DF .text	000000000000004c _Z8QP2Qstepi
00000000005aadf0 g    DO .data	0000000000000028 _ZTIN7android12SfMemoryHeapE
00000000001fdd34 g    DF .text	0000000000000048 _ZN7android21ElementaryStreamQueueC2ENS0_4ModeEj
00000000005a65d8 g    DO .data	0000000000000098 _ZTVN7android14MediaCodecList19BinderDeathObserverE
000000000029e40c g    DF .text	000000000000002c _ZN7android18SurfaceMediaSourceD1Ev
000000000051cff0 g    DO .rodata	0000000000000008 _ZN7android15PlaylistFetcher23kFetcherResumeThresholdE
00000000005a2ff0 g    DO .data	0000000000000038 _ZTIN7android14SoftAVCEncoderE
00000000001fec5c g    DF .text	000000000000027c _ZN7android21ElementaryStreamQueue20dequeueAccessUnitAC3Ev
00000000002101a4 g    DF .text	000000000000012c _ZN7android11NVOMXPlugin19getRolesOfComponentEPKcPNS_6VectorINS_7String8EEE
00000000001dd538  w   DF .text	0000000000000058 _ZNK7android12SortedVectorINS_16key_value_pair_tIjNS_2spINS_8AMessageEEEEEE8do_splatEPvPKvm
000000000023172c  w   DF .text	00000000000000ac _ZNK7android12SortedVectorINS_16key_value_pair_tIlNS_18TimedTextSRTSource8TextInfoEEEE15do_move_forwardEPvPKvm
00000000002cdba8 g    DF .text	0000000000000050 _ZN5movie14NnMSEExtractor13GetSampleTimeEmPl
00000000001d5d6c g    DF .text	0000000000000368 _ZN7android8NuPlayer8Renderer21postDrainVideoQueue_lEv
00000000002670c0  w   DF .text	0000000000000070 _ZNK7android12SortedVectorINS_16key_value_pair_tIjNS_8MetaData10typed_dataEEEE12do_constructEPvm
00000000002e8fa8 g    DF .text	0000000000000014 _ZN5movie7Decoder9ConfigureEPNS_9MediaDataE
000000000020452c g    DF .text	000000000000023c _ZN7android19GraphicBufferSource29repeatLatestSubmittedBuffer_lEv
00000000002554a8 g    DF .text	0000000000000080 _ZN7android8HTTPBaseC2Ev
00000000001de7b0 g    DF .text	00000000000000b0 _ZN7android8AMessageD1Ev
00000000001dca0c g    DF .text	00000000000000e0 _ZN7android7ALooperD2Ev
00000000001e57d4 g    DF .text	0000000000000254 _ZN7android11LiveSessionD2Ev
0000000000205664  w   DF .text	0000000000000040 _ZNK7android6VectorINS_19GraphicBufferSource11CodecBufferEE10do_destroyEPvm
00000000002aa3b0 g    DF .text	000000000000085c _ZN9mkvparser7Segment12ParseHeadersEv
000000000018df88  w   DF .text	0000000000000058 _ZNK7android12SortedVectorINS_2wpINS_19IMediaDeathNotifierEEEE8do_splatEPvPKvm
00000000001cee38 g    DF .text	0000000000000110 _ZN7android8NuPlayer7Decoder25rememberCodecSpecificDataERKNS_2spINS_8AMessageEEE
00000000001d8a68 g    DF .text	0000000000000014 _ZN7android14ColorConverter12BitmapParamsC1EPvmmmmmm
00000000002e48f4 g    DF .text	000000000000097c _ZN5movie11DecoderImplC2ENS_11DecoderTypeENS_19DecoderOutputFormatENS_11DecoderModeEi
00000000000f03d8 g    DF .text	0000000000000054 _Z10HcrInitRomP10CErHcrInfo
00000000002df0ac g    DF .text	0000000000000170 _ZN5movie16NnCodecAudioSink24ReleaseOutputBufferIndexEii
00000000002ca3ec g    DF .text	0000000000000018 _ZN5movie13BrowserConfigC2Ev
000000000058e420  w   DO .data	0000000000000098 _ZTCN7android11BpInterfaceINS_19IAudioFlingerClientEEE0_NS_10IInterfaceE
000000000018a6f0  w   DF .text	00000000000000ec _ZN7android20BpAudioFlingerClient15ioConfigChangedEiiPKv
00000000002103fc g    DF .text	000000000000017c _ZN7android14SoftAVCEncoderD2Ev
0000000000193fe4  w   DF .text	000000000000003c _ZNK7android12SortedVectorINS_16key_value_pair_tINS_7AStringENS_2spINS_14MediaCodecInfo12CapabilitiesEEEEEE12do_constructEPvm
000000000020a8e0 g    DF .text	00000000000000fc _ZN7android15OMXNodeInstance24storeMetaDataInBuffers_lEj8OMX_BOOLS1_PS1_
00000000005a03e0  w   DO .data	0000000000000018 _ZTIN7android12MemorySourceE
00000000002a02bc g    DF .text	000000000000009c _ZN7android15TimedEventQueue22removeEventFromQueue_lEiPb
00000000005223e0  w   DO .rodata	000000000000002a _ZTSN7android4ListIKNS_2spINS_9WebmFrameEEEEE
000000000059df08 g    DO .data	0000000000000058 _ZTVN7android25AMPEG4ElementaryAssemblerE
0000000000156708 g    DF .text	000000000000018c VlcDecTCOEFShortHeader_AnnexI
000000000051c110 g    DO .rodata	0000000000000020 _ZTSN7android19VideoFrameSchedulerE
000000000020a590 g    DF .text	000000000000007c _ZN7android15OMXNodeInstance9setConfigE13OMX_INDEXTYPEPKvm
0000000000508010 g    DO .rodata	0000000000000200 inter_max_level
0000000000145e8c g    DF .text	0000000000000024 cmnMemSet
000000000022c3e8 g    DF .text	0000000000000068 _ZN7android28SoftVideoDecoderOMXComponent17getExtensionIndexEPKcP13OMX_INDEXTYPE
0000000000249500 g    DF .text	0000000000000060 _ZN7android12AVIExtractor12parseHeadersEv
0000000000108ae8 g    DF .text	0000000000000024 _Z15mul_dbl_sgl_rndis
000000000051e190 g    DO .rodata	000000000000001a _ZTSN7android13SoftOMXPluginE
00000000002cc3c4 g    DF .text	0000000000000094 _ZN5movie11NnExtractor13SetDataSourceEPKvi
0000000000255cbc g    DF .text	0000000000000004 _ZN7android18CurlHttpConnection10disconnectEv
0000000000264b2c  w   DF .text	0000000000000018 _ZN7android16MediaCodecSource9getFormatEv
0000000000124e10 g    DF .text	000000000000035c _Z18resetLppTransposerP13SBR_LPP_TRANShPhhS1_hhj
0000000000265da0 g    DF .text	0000000000000014 _ZN7android11MediaSource11ReadOptionsC2Ev
0000000000156894 g    DF .text	00000000000001c8 VlcDecTCOEFShortHeader_AnnexT
00000000001de43c g    DF .text	00000000000000e8 _ZN7android13ALooperRoster9postReplyEjRKNS_2spINS_8AMessageEEE
00000000001b8420  w   DF .text	0000000000000040 _ZNK7android6VectorINS_2spINS_7ABufferEEEE10do_destroyEPvm
00000000002ecc78 g    DF .text	0000000000000004 _ZN5movie12SetAllocatorEPFPvmmS0_EPFvS0_S0_EPFS0_S0_mS0_ES0_
000000000058adc0 g    DO .data	0000000000000018 _ZTIN7android11ServerProxyE
00000000001cc568 g    DF .text	000000000000013c _ZNK7android8NuPlayer9CCDecoder12getTrackInfoEm
00000000005a7710 g    DO .data	0000000000000028 _ZTIN7android11MediaSourceE
000000000017af5c g    DF .text	0000000000000044 _ZN7android11AudioRecord17AudioRecordThread13pauseInternalEl
000000000018d23c  w   DF .text	0000000000000050 _ZTv0_n24_N7android11BnInterfaceINS_15IMediaCodecListEED0Ev
0000000000249664 g    DF .text	0000000000000008 _ZN7android12AVIExtractor11countTracksEv
000000000003f7b4 g    DF .text	0000000000000024 NvxEglInit
00000000001f8104 g    DF .text	000000000000005c _ZNK7android3ID38Iterator15getHeaderLengthEv
00000000001fdc54  w   DF .text	0000000000000064 _ZNK7android6VectorINS_2spINS_9ATSParser7ProgramEEEE15do_move_forwardEPvPKvm
0000000000594eb0 g    DO .data	0000000000000018 _ZTIN7android4IOMXE
000000000017c834 g    DF .text	0000000000000178 _ZN7android11AudioSystem18AudioFlingerClient15ioConfigChangedEiiPKv
00000000001b5f30 g    DF .text	00000000000003ec _ZN7android10ARTPSourceC1EjRKNS_2spINS_19ASessionDescriptionEEEmRKNS1_INS_8AMessageEEE
00000000001df2c4 g    DF .text	0000000000000094 _ZN7android8AMessage9setStringEPKcRKNS_7AStringE
0000000000197284  w   DF .text	000000000000008c _ZTv0_n24_N7android19IMediaDeathNotifierD0Ev
000000000020994c g    DF .text	000000000000019c _ZN7android15OMXNodeInstanceC2EPNS_3OMXERKNS_2spINS_12IOMXObserverEEEPKc
000000000010bfc8 g    DF .text	0000000000000b24 _Z21adtsRead_DecodeHeaderP11STRUCT_ADTSP21CSAudioSpecificConfigP13FDK_BITSTREAMi
0000000000259b3c g    DF .text	0000000000000108 _ZNK7android10MediaCodec14getInputFormatEPNS_2spINS_8AMessageEEE
0000000000254dc0 g    DF .text	0000000000000044 _ZN7android10FileSourceC2Eill
0000000000013410 g    DF .text	0000000000000030 NvmmUlpKpiGetTotalParseTime
00000000001543c0 g    DF .text	0000000000000150 PVExtractVolHeader
00000000002ea418 g    DF .text	0000000000000018 _ZN5movie11EncoderImpl38SendOutputBufferEventAvailableToClientEv
000000000019739c g    DF .text	000000000000002c _ZN7android5media8MetadataC1EPNS_6ParcelE
00000000001016d8 g    DF .text	00000000000000bc _Z16CopyAlignedBlockP10FDK_BITBUFPhj
00000000005a88d0 g    DO .data	0000000000000018 _ZTIN7android16NuMediaExtractorE
00000000002cdbf8 g    DF .text	0000000000000008 _ZN5movie14NnMSEExtractor19CancelSetDataSourceEv
00000000001de9d4 g    DF .text	000000000000006c _ZN7android8AMessage13freeItemValueEPNS0_4ItemE
00000000001fe234 g    DF .text	0000000000000294 _ZN7android21ElementaryStreamQueue17dequeueAccessUnitEv
00000000005981b0 g    DO .data	0000000000000020 _ZTTN7android15IStreamListenerE
000000000059de00 g    DO .data	0000000000000018 _ZTIN7android14AH263AssemblerE
000000000017b19c  w   DF .text	0000000000000024 _ZN7android2spINS_11AudioSystem18AudioFlingerClientEED2Ev
00000000002573e0 g    DF .text	00000000000000cc _ZN7android11MediaBufferD2Ev
0000000000269f50 g    DF .text	0000000000000018 _ZN7android13MPEG2TSWriter10SourceInfo14lastAccessUnitEv
00000000002d0710 g    DF .text	0000000000000048 _ZN5movie7NnCodec8FinalizeEv
00000000005d58e8 g    DO .bss	0000000000000008 _ZN7android4IOMX10descriptorE
00000000002d13a4 g    DF .text	0000000000000040 _ZN5movie7NnCodec5FlushEv
00000000002a32d8 g    DF .text	0000000000000010 _ZN7android12WAVExtractor11countTracksEv
000000000025edd0  w   DF .text	00000000000000a0 _ZNK7android6VectorINS_10MediaCodec10BufferInfoEE7do_copyEPvPKvm
0000000000177504 g    DF .text	0000000000000068 _ZN7android11AudioEffect18queryNumberEffectsEPj
0000000000521070 g    DO .rodata	0000000000000019 _ZTSN7android12MP3ExtractorE
00000000002bea2c g    DF .text	0000000000000204 _ZN8mkvmuxer7Segment11SetChunkingEbPKc
00000000001c2e34 g    DF .text	0000000000000278 _ZN7android8NuPlayer13GenericSource15onPollBufferingEv
00000000002b2408 g    DF .text	0000000000000010 _ZN9mkvparser15ContentEncoding18ContentCompressionD1Ev
00000000001f13c0  w   DF .text	0000000000000060 _ZNK7android12SortedVectorINS_16key_value_pair_tINS_7AStringENS_2spINS_9M3UParser10MediaGroupEEEEEE7do_copyEPvPKvm
0000000000148154 g    DF .text	00000000000000ec MBlockIDCT
0000000000160f88 g    DF .text	0000000000000040 h264bsdGetRefPicData
00000000001d0c4c g    DF .text	0000000000000098 _ZN7android8NuPlayer18DecoderPassThroughC1ERKNS_2spINS_8AMessageEEERKNS2_INS0_6SourceEEERKNS2_INS0_8RendererEEE
0000000000227220 g    DF .text	0000000000000410 _Z11RefListInitP12tagCommonObj
00000000001d3d08 g    DF .text	0000000000000040 _ZN7android8NuPlayer8Renderer5pauseEv
00000000004fc698 g    DO .rodata	0000000000000528 qmf_64
00000000001924f4  w   DF .text	000000000000003c _ZN7android6VectorINS_2spINS_7IMemoryEEEED0Ev
000000000059f768  w   DO .data	0000000000000010 _ZTIN7android4ListINS_7ALooper5EventEEE
0000000000258aa4 g    DF .text	00000000000000a4 _ZN7android10MediaCodec5resetEv
00000000005a8828  w   DO .data	0000000000000048 _ZTVN7android17AHandlerReflectorINS_15NuCachedSource2EEE
000000000018c5a0 g    DF .text	000000000000019c _ZN7android14BnEffectClient10onTransactEjRKNS_6ParcelEPS1_j
0000000000592900  w   DO .data	00000000000000c0 _ZTCN7android16BpMediaCodecListE0_NS_15IMediaCodecListE
0000000000591e40 g    DO .data	0000000000000098 _ZTCN7android15IMediaCodecListE0_NS_10IInterfaceE
00000000001890f0  w   DF .text	00000000000000b8 _ZNK7android14BpAudioFlinger17getRenderPositionEPjS1_i
0000000000285c38 g    DF .text	00000000000000bc _ZN7android17MyVorbisExtractorD2Ev
00000000005a6ef8  w   DO .data	0000000000000050 _ZTVN7android6VectorINS_2spINS_14MediaCodecInfoEEEEE
0000000000208458  w   DF .text	0000000000000088 _ZNK7android12SortedVectorINS_16key_value_pair_tIjNS_2spINS_3OMX18CallbackDispatcherEEEEEE15do_move_forwardEPvPKvm
00000000002ccba4 g    DF .text	00000000000000c8 _ZN5movie14NnMSEExtractorD1Ev
00000000001987b0 g    DF .text	000000000000047c _ZN7android12SoundChannel4playERKNS_2spINS_6SampleEEEiffiif
00000000002f0424  w   DF .text	00000000000000e8 _ZN2nn2sf4hipc6client24Hipc2ClientCoreProcessorILNS1_6detail11MessageTypeE4ENS0_4cmif6detail14CoreMethodInfoINSt3__15tupleIJNS7_17InRawArgumentInfoILm4ELm4ELl0EEEEEELm4ELm0ELb0EEESD_E7ProcessEPNS2_26Hipc2ClientProxyBaseObjectENS6_6client23InRawClientArgumentTypeILm4ELm4EvEEj
000000000015a0f4 g    DF .text	00000000000001ac _ZN7android7SoftAVCD1Ev
00000000002b2378 g    DF .text	0000000000000008 _ZNK9mkvparser4Tags9SimpleTag12GetTagStringEv
000000000018e938  w   DF .text	0000000000000050 _ZThn8_N7android19BnMediaPlayerClientD0Ev
000000000029ae24 g    DF .text	0000000000000014 _ZN7android9SfNvnUtil16getNativeBufSizeEPiS1_
0000000000177970  w   DF .text	0000000000000050 _ZThn8_N7android14BnEffectClientD0Ev
00000000002a4140 g    DF .text	0000000000000018 _ZN7android12WVMExtractor19getCachedDurationUsEPi
000000000017e7e0  w   DF .text	0000000000000050 _ZTv0_n24_N7android11BnInterfaceINS_19IAudioFlingerClientEED0Ev
00000000002eaae0 g    DF .text	0000000000000048 _ZN5movie7EncoderD2Ev
00000000001fb338 g    DF .text	00000000000000f0 _ZN7android9ATSParser6Stream5flushEv
000000000059f398  w   DO .data	0000000000000050 _ZTVN7android6VectorINS_2spINS_6AStateEEEEE
00000000005ac7c8 g    DO .data	0000000000000048 _ZTVN8mkvmuxer9MkvWriterE
00000000002d4d80 g    DF .text	0000000000000020 _ZN5movie13NnCodecPlayer22FinalizeInputReceiversEv
00000000002823c4 g    DF .text	000000000000003c _ZN7android15NuCachedSource225resumeFetchingIfNecessaryEv
00000000001d3134 g    DF .text	0000000000000224 _ZN7android14NuPlayerDriver22notifyPrepareCompletedEi
000000000059ad38  w   DO .data	0000000000000040 _ZTVN7android14MediaCodecInfo12CapabilitiesE
000000000020da74 g    DF .text	00000000000002dc _ZN7android22SimpleSoftOMXComponent9useBufferEPP20OMX_BUFFERHEADERTYPEjPvjPh
0000000000189888  w   DF .text	0000000000000084 _ZN7android14BpAudioFlinger12loadHwModuleEPKc
00000000001ec988 g    DF .text	0000000000000054 _ZN7android9M3UParser10MediaGroupD2Ev
000000000024ba00 g    DF .text	0000000000000838 _ZN7android13AwesomePlayer12onVideoEventEv
0000000000522580  w   DO .rodata	000000000000002c _ZTSN7android12LightRefBaseINS_11WebmElementEEE
00000000001d1ad0 g    DF .text	00000000000001b0 _ZN7android14NuPlayerDriverC2Ev
00000000005a4110 g    DO .data	0000000000000018 _ZTIN7android6ACodec13FlushingStateE
00000000001e4c98 g    DF .text	000000000000008c _ZN7android14LiveDataSource11queueBufferERKNS_2spINS_7ABufferEEE
00000000002b2398 g    DF .text	000000000000004c _ZN9mkvparser11SegmentInfoD1Ev
000000000017be74 g    DF .text	00000000000000a8 _ZN7android11AudioSystem9getOutputE19audio_stream_type_tj14audio_format_tj20audio_output_flags_tPK20audio_offload_info_t
00000000001b999c g    DF .text	00000000000000b8 _ZN7android20AMPEG4AudioAssemblerD1Ev
000000000018e868  w   DF .text	0000000000000040 _ZN7android19BnMediaPlayerClientD1Ev
00000000002615a4  w   DF .text	0000000000000014 _ZTv0_n24_N7android14MediaCodecList19BinderDeathObserverD1Ev
0000000000181444 g    DF .text	00000000000007e8 _ZN7android10AudioTrack13createTrack_lEv
00000000005d5960 g    DO .bss	0000000000000008 _ZN7android13gLooperRosterE
000000000020c7d4 g    DF .text	000000000000006c _ZN7android15OMXNodeInstance17emptyDirectBufferEP20OMX_BUFFERHEADERTYPEjjjx
00000000001b5ae0 g    DF .text	0000000000000040 _ZN7android18ARawAudioAssemblerD1Ev
0000000000521790  w   DO .rodata	0000000000000035 _ZTSN7android12SortedVectorINS_16key_value_pair_tIjbEEEE
0000000000145f24 g    DF .text	0000000000000158 _ZN7android9SoftMPEG4C2EPKcS2_20OMX_VIDEO_CODINGTYPEPKNS_17CodecProfileLevelEmPK16OMX_CALLBACKTYPEPvPP17OMX_COMPONENTTYPE
000000000016e92c g    DF .text	0000000000000008 H264SwDecMemcpy
000000000019b1f8  w   DF .text	0000000000000008 _ZN7android20MediaPlayerInterface14hardwareOutputEv
0000000000211fb4 g    DF .text	0000000000000314 PVAVCEncInitialize
00000000002ad54c g    DF .text	0000000000000008 _ZNK9mkvparser8SeekHead19GetVoidElementCountEv
000000000016d90c g    DF .text	000000000000033c h264bsdProcessLumaDc
00000000001d6d40 g    DF .text	0000000000000044 _ZN7android8NuPlayer8Renderer20onEnableOffloadAudioEv
000000000020fdd0 g    DF .text	00000000000000f0 _ZN7android13SoftOMXPlugin24destroyComponentInstanceEP17OMX_COMPONENTTYPE
00000000005abba0 g    DO .data	0000000000000018 _ZTIN7android16SystemTimeSourceE
00000000002b8630 g    DF .text	000000000000003c _ZN8mkvmuxer5FrameD1Ev
0000000000284f4c  w   DF .text	000000000000007c _ZNK7android6VectorINS_16NuMediaExtractor9TrackInfoEE8do_splatEPvPKvm
0000000000013a6c g    DF .text	0000000000000010 NvmmSetMaxOffsets
00000000001bd8cc g    DF .text	0000000000000060 _ZN7android9SDPLoader17onMessageReceivedERKNS_2spINS_8AMessageEEE
000000000015a9d0 g    DF .text	0000000000000164 _ZN7android7SoftAVC20drainOneOutputBufferEiPh
0000000000241824 g    DF .text	00000000000000b4 _ZN7android6ACodec13FlushingState17onMessageReceivedERKNS_2spINS_8AMessageEEE
0000000000243504 g    DF .text	00000000000000e8 _ZN7android9AMRSourceC2ERKNS_2spINS_10DataSourceEEERKNS1_INS_8MetaDataEEEbPKlm
0000000000227be8 g    DF .text	0000000000000060 _Z15GetShortTermPicP12tagCommonObji
00000000002b2bdc g    DF .text	0000000000000274 _ZN9mkvparser15ContentEncoding21ParseCompressionEntryExxPNS_10IMkvReaderEPNS0_18ContentCompressionE
00000000001e5024 g    DF .text	000000000000009c _ZN7android11LiveSession18BandwidthEstimator17estimateBandwidthEPi
0000000000257528 g    DF .text	0000000000000008 _ZN7android11MediaBuffer13setNextBufferEPS0_
000000000022f488  w   DF .text	0000000000000060 _ZNK7android6VectorINS_15TimedTextDriver14TextSourceTypeEE8do_splatEPvPKvm
00000000002926a4 g    DF .text	0000000000000230 _ZN7android8OMXCodec10freeBufferEjm
00000000002392b4 g    DF .text	000000000000005c _ZN7android6ACodec14setupG711CodecEbi
00000000001c11b8 g    DF .text	0000000000000054 _ZN7android19VideoFrameSchedulerD2Ev
000000000029a734 g    DF .text	00000000000000b0 _ZN7android11SampleTable24getCompositionTimeOffsetEj
00000000001d9a90 g    DF .text	0000000000000048 _ZN7android16SoftwareRendererC2ERKNS_2spI13ANativeWindowEE
000000000059f3f0  w   DO .data	0000000000000028 _ZTIN7android6VectorINS_2spINS_6AStateEEEEE
00000000002eaa8c g    DF .text	0000000000000054 _ZN5movie7EncoderC2ENS_11EncoderTypeE
00000000000ed7cc g    DF .text	0000000000000008 _Z24GetRequiredMemAacDecoderv
00000000005a6a50 g    DO .data	00000000000000c0 _ZTCN7android14MediaCodecListE0_NS_15IMediaCodecListE
0000000000168f14 g    DF .text	0000000000000428 h264bsdInterpolateMidHorQuarter
000000000012d504 g    DF .text	000000000000002c _Z21FreeRam_SbrDecElementPP19SBR_DECODER_ELEMENT
00000000002a42d8 g    DF .text	00000000000000e4 _ZN7android10XINGSeeker16getOffsetForTimeEPlS1_
000000000024e828 g    DF .text	0000000000000114 _ZN7android13AwesomePlayer22shutdownVideoDecoder_lEv
0000000000263ad8 g    DF .text	00000000000001cc _ZN7android16MediaCodecSource9signalEOSEi
000000000020d4b8 g    DF .text	0000000000000140 _ZN7android22SimpleSoftOMXComponentC1EPKcPK16OMX_CALLBACKTYPEPvPP17OMX_COMPONENTTYPE
0000000000245420 g    DF .text	0000000000000224 _ZN7android11AudioSourceC2E14audio_source_tjj
0000000000297788 g    DF .text	0000000000000418 _ZN7android10QueryCodecERKNS_2spINS_4IOMXEEEPKcS6_bPNS_17CodecCapabilitiesE
000000000016c1c4 g    DF .text	00000000000000b0 h264bsdCheckFrameNum
000000000029cbc4 g    DF .text	0000000000000008 _ZNK7android12SfMemoryHeap7getSizeEv
0000000000282654 g    DF .text	000000000000003c _ZN7android15NuCachedSource229updateHighwaterThresholdBytesEl
0000000000132420 g    DF .text	0000000000000004 FDKatan
00000000002417b4 g    DF .text	0000000000000068 _ZN7android6ACodec13FlushingStateC1EPS0_
000000000059f140 g    DO .data	0000000000000018 _ZTIN7android8NuPlayer15StreamingSourceE
0000000000209dd8 g    DF .text	0000000000000024 _ZN7android15OMXNodeInstance8observerEv
0000000000239d08 g    DF .text	0000000000000218 _ZN7android6ACodec20setVideoFormatOnPortEjii20OMX_VIDEO_CODINGTYPEf
0000000000589be8  w   DO .data	0000000000000160 _ZTVN7android11BnInterfaceINS_19IAudioFlingerClientEEE
00000000001c4dd4 g    DF .text	0000000000000130 _ZN7android8NuPlayer13GenericSource11selectTrackEmbl
00000000000594c0 g    DF .text	0000000000000004 jpegTegraLoadLib
00000000002485d8 g    DF .text	000000000000007c _ZN7android12AVIExtractor9AVISource4stopEv
0000000000187290 g    DF .text	0000000000000008 _ZThn8_N7android14BnAudioFlinger10onTransactEjRKNS_6ParcelEPS1_j
00000000000db01c g    DF .text	0000000000000008 TVMRCaptureGetErrorStatus
000000000029c5f0 g    DF .text	0000000000000038 _ZNK7android8SfThread11exitPendingEv
00000000002ee0f8  w   DF .text	0000000000000048 _ZThn8_N7android20BnGraphicBufferAllocD1Ev
0000000000232e54 g    DF .text	0000000000000024 _ZN7android6ACodecD0Ev
00000000001551b0 g    DF .text	00000000000001c0 mv_prediction
000000000017e910  w   DF .text	0000000000000054 _ZThn8_N7android11AudioSystem18AudioFlingerClientD0Ev
00000000001ddb80 g    DF .text	00000000000001ec _ZN7android13ALooperRoster15registerHandlerENS_2spINS_7ALooperEEERKNS1_INS_8AHandlerEEE
0000000000229424 g    DF .text	00000000000000b4 _Z13MemMgrCtrlOp4P12tagAVCHandleP12tagCommonObjP15tagDecPicBufferj
00000000002a6c34 g    DF .text	0000000000000520 _ZN7android17MatroskaExtractor9addTracksEv
00000000002d23a4 g    DF .text	0000000000000028 _ZN5movie7NnMuxerD1Ev
000000000019a114  w   DF .text	0000000000000058 _ZNK7android12SortedVectorINS_16key_value_pair_tIiNS_2spINS_6SampleEEEEEE8do_splatEPvPKvm
0000000000224d80 g    DF .text	00000000000004fc cost_i16
0000000000268d60 g    DF .text	000000000000009c _ZN7android13MPEG2TSWriter10SourceInfoD2Ev
0000000000240bdc g    DF .text	0000000000000360 _ZN7android6ACodec30OutputPortSettingsChangedState10onOMXEventE13OMX_EVENTTYPEjj
0000000000178500 g    DF .text	000000000000007c _ZN7android14AudioParameter8addFloatERKNS_7String8Ef
0000000000014fa0 g    DF .text	0000000000000004 _ZN2nv2mm12GetAllocatorEv
0000000000188d7c  w   DF .text	0000000000000084 _ZN7android14BpAudioFlinger13restoreOutputEi
0000000000206198 g    DF .text	000000000000002c _ZN7android3OMXD1Ev
00000000002a06ac g    DF .text	0000000000000014 _ZN7android6ntoh64Em
0000000000520140 g    DO .rodata	0000000000000021 _ZTSN7android6ACodec13FlushingStateE
00000000002cb7d0 g    DF .text	0000000000000008 _ZNK11nnAudioSink13getSampleRateEv
00000000000fb164 g    DF .text	00000000000003a4 _Z27CConcealment_SetAttenuationP14CConcealParamsPsS1_
000000000020f9a4 g    DF .text	0000000000000010 _ZN7android16SoftOMXComponent19SetParameterWrapperEPv13OMX_INDEXTYPES1_
000000000023ebe0 g    DF .text	0000000000000190 _ZN7android6ACodec11LoadedState20onConfigureComponentERKNS_2spINS_8AMessageEEE
00000000002ee5e8 g    DF .text	0000000000000028 mm_internal_malloc
0000000000246798  w   DF .text	0000000000000004 _ZN7android11AudioSource4stopEv
00000000005d5c98 g    DO .bss	0000000000000008 _ZN7android14MediaCodecList11sRemoteListE
00000000002ca814 g    DF .text	0000000000000030 _ZN5movie13BrowserPlayerC2Ev
00000000001c1e28 g    DF .text	000000000000024c _ZN7android8NuPlayer13GenericSourceD2Ev
00000000001b51f8 g    DF .text	000000000000018c _ZN7android14ARTPConnection9parseRTCPEPNS0_10StreamInfoERKNS_2spINS_7ABufferEEE
00000000002ba8f0 g    DF .text	0000000000000060 _ZN8mkvmuxer7Chapter7Display11set_countryEPKc
000000000018ad3c  w   DF .text	0000000000000048 _ZN7android11BpInterfaceINS_25IAudioPolicyServiceClientEED0Ev
00000000002baa78 g    DF .text	0000000000000050 _ZN8mkvmuxer7Chapter7Display5ClearEv
00000000001e344c  w   DF .text	0000000000000028 _ZN7android9AWakeLock16PMDeathRecipientD0Ev
00000000005991c0 g    DO .data	0000000000000018 _ZTIN7android16BnStreamListenerE
000000000020a498 g    DF .text	000000000000007c _ZN7android15OMXNodeInstance12setParameterE13OMX_INDEXTYPEPKvm
00000000005a6300 g    DO .data	0000000000000018 _ZTIN7android10MediaCodecE
00000000002762a0  w   DF .text	00000000000000d8 _ZNK7android6VectorINS_14MPEG4Extractor8PsshInfoEE8do_splatEPvPKvm
00000000002c0e30 g    DF .text	000000000000029c _ZN8mkvmuxer16WriteEbmlElementEPNS_10IMkvWriterEyPKhy
000000000015f610 g    DF .text	0000000000000060 h264bsdInit
00000000005953b0  w   DO .data	0000000000000038 _ZTIN7android11BnInterfaceINS_4IOMXEEE
00000000001e2c34 g    DF .text	0000000000000024 _ZNK7android7AString16equalsIgnoreCaseERKS0_
000000000059ea58  w   DO .data	0000000000000040 _ZTVN7android8NuPlayer9CCDecoderE
000000000059adf8  w   DO .data	0000000000000050 _ZTVN7android6VectorINS_14MediaCodecInfo12ProfileLevelEEE
0000000000285124 g    DF .text	0000000000000060 _ZN7android9OggSourceC2ERKNS_2spINS_12OggExtractorEEE
00000000001dccb4 g    DF .text	0000000000000040 _ZN7android7ALooper7setNameEPKc
00000000001bd228 g    DF .text	0000000000000054 _ZN7android13AAVCAssembler13onByeReceivedEv
0000000000227c48 g    DF .text	0000000000000064 _Z14GetLongTermPicP12tagCommonObji
00000000001bc208 g    DF .text	0000000000000040 _ZN7android17AMPEG2TSAssemblerD2Ev
00000000002826d0  w   DF .text	000000000000007c _ZN7android4ListIPNS_9PageCache4PageEED0Ev
00000000002efd68 g    DF .text	0000000000000030 _ZN2nn4mmnv7Request3GetEPj
00000000001df9d4 g    DF .text	0000000000000068 _ZN7android8AMessage20postAndAwaitResponseEPNS_2spIS0_EE
0000000000255790 g    DF .text	0000000000000020 _ZNK7android8HTTPBase6getUIDEPj
0000000000593618 g    DO .data	00000000000000a8 _ZTVN7android18IMediaPlayerClientE
00000000001d39e8 g    DF .text	0000000000000108 _ZN7android8NuPlayer8Renderer5flushEbb
0000000000207430 g    DF .text	00000000000000a4 _ZN7android3OMX26prepareForAdaptivePlaybackEjj8OMX_BOOLjj
00000000005a24f8  w   DO .data	0000000000000058 _ZTVN7android12SortedVectorINS_16key_value_pair_tIjNS_2spINS_3OMX18CallbackDispatcherEEEEEEE
000000000017d3f4 g    DF .text	0000000000000068 _ZN7android11AudioSystem12releaseInputEi15audio_session_t
0000000000230b24 g    DF .text	00000000000000a4 _ZN7android18TimedTextSRTSourceC1ERKNS_2spINS_10DataSourceEEE
0000000000255328 g    DF .text	0000000000000050 _ZN7android18InMemoryFileSourceD0Ev
00000000005a84ec g    DO .data	0000000000000080 _ZN7android23g_MPEG4WriterThreadNameE
00000000002a473c g    DF .text	00000000000000c0 _ZN4webm14encodeUnsignedEm
00000000002e1cd4 g    DF .text	0000000000000018 _ZN5movie16NnCodecVideoSink12GetFrameRateEv
00000000001cd380  w   DF .text	000000000000003c _ZN7android6VectorImED0Ev
0000000000193bd4  w   DF .text	0000000000000064 _ZNK7android6VectorINS_14MediaCodecInfo12ProfileLevelEE16do_move_backwardEPvPKvm
00000000001cbff0  w   DF .text	0000000000000048 _ZN7android19NativeWindowWrapperD0Ev
0000000000256a3c g    DF .text	000000000000003c _ZThn8_N7android12MediaAdapterD0Ev
0000000000283c68 g    DF .text	00000000000001a8 _ZN7android16NuMediaExtractor13unselectTrackEm
0000000000266cbc g    DF .text	0000000000000044 _ZN7android8MetaData10typed_data15allocateStorageEm
00000000002af300 g    DF .text	0000000000000008 _ZNK9mkvparser7Segment8GetCountEv
00000000001e2d28 g    DF .text	0000000000000058 _ZNK7android7AString8endsWithEPKc
00000000000ed470  w   DF .text	0000000000000164 _ZN7android18move_backward_typeINS_22SimpleSoftOMXComponent8PortInfoEEEvPT_PKS3_m
00000000001712e8 g    DF .text	0000000000000024 vorbis_dsp_destroy
00000000001f00d0 g    DF .text	000000000000039c _ZN7android9M3UParser15parseCipherInfoERKNS_7AStringEPNS_2spINS_8AMessageEEES3_
00000000002a3874 g    DF .text	0000000000000010 _ZTv0_n24_N7android9WAVSourceD0Ev
00000000002ea5a0 g    DF .text	0000000000000024 _ZN5movie22EncoderMessageReceiverD0Ev
00000000004fc418 g    DO .rodata	0000000000000080 qmf_phaseshift_sin32
0000000000281afc g    DF .text	0000000000000168 _ZN7android15NuCachedSource230restartPrefetcherIfNecessary_lEbb
000000000059daf8  w   DO .data	0000000000000010 _ZTIN7android4ListINS_14ARTPConnection10StreamInfoEEE
00000000001bb948 g    DF .text	0000000000000024 _ZN7android25AMPEG4ElementaryAssemblerD0Ev
00000000001fca34 g    DF .text	0000000000000020 _ZNK7android9ATSParser10PSISection7isEmptyEv
00000000002d09d0 g    DF .text	0000000000000024 _ZN5movie7NnCodecD0Ev
00000000005a7350 g    DO .data	0000000000000008 _ZN7android26MEDIA_MIMETYPE_VIDEO_MPEG2E
000000000021c9bc g    DF .text	0000000000000774 eDiagonalInterpMC
00000000001fd3dc  w   DF .text	000000000000005c _ZNK7android12SortedVectorINS_16key_value_pair_tIjNS_2spINS_9ATSParser10PSISectionEEEEEE12do_constructEPvm
0000000000263740 g    DF .text	0000000000000040 _ZTv0_n24_N7android16MediaCodecSourceD0Ev
000000000017a110 g    DF .text	0000000000000038 _ZNK7android11AudioRecord18getInputFramesLostEv
00000000002cc0d4 g    DF .text	0000000000000014 _ZN5movie15PlayerExtractorC2EPNS_15ExtractorConfigE
000000000020fb74 g    DF .text	0000000000000018 _ZN7android16SoftOMXComponent21notifyEmptyBufferDoneEP20OMX_BUFFERHEADERTYPE
0000000000205918  w   DF .text	0000000000000080 _ZN7android17AHandlerReflectorINS_19GraphicBufferSourceEE17onMessageReceivedERKNS_2spINS_8AMessageEEE
00000000002b8c50 g    DF .text	0000000000000110 _ZNK8mkvmuxer4Cues5WriteEPNS_10IMkvWriterE
000000000020fc04 g    DF .text	000000000000000c _ZN7android16SoftOMXComponent10freeBufferEjP20OMX_BUFFERHEADERTYPE
0000000000147794 g    DF .text	0000000000000008 getPointer
0000000000180384 g    DF .text	0000000000000060 upmix_to_stereo_i16_from_mono_i16
000000000021003c g    DF .text	0000000000000050 _ZN7android11NVOMXPluginC1Ev
00000000005a7e20  w   DO .data	0000000000000018 _ZTIZN7android14ReferenceMover15move_referencesINS_13MPEG2TSWriter10SourceInfoEEEvPNS_2spIT_EEPKS6_mE7Renamer
00000000002aea54 g    DF .text	0000000000000018 _ZNK9mkvparser4Cues8GetBlockEPKNS_8CuePointEPKNS1_13TrackPositionE
00000000000cddd8 g    DF .text	0000000000000224 TVMROutputSurfaceCreateEx
00000000002d4bd0 g    DF .text	0000000000000190 _ZN5movie13NnCodecPlayer11StopPrivateEb
00000000005ae480  w   DO .data	00000000000000a0 _ZTTN5movie22NULLGraphicBufferAllocE
0000000000281c64 g    DF .text	0000000000000134 _ZN7android15NuCachedSource212readInternalElPvm
0000000000155c88 g    DF .text	000000000000044c VlcDecTCOEFIntra
000000000026b618 g    DF .text	0000000000000280 _ZN7android13MPEG2TSWriter28writeProgramAssociationTableEv
000000000019282c g    DF .text	0000000000000008 _ZNK7android14MediaCodecInfo12Capabilities8getFlagsEv
00000000001126f4 g    DF .text	00000000000000f8 _Z21transportDec_SetParamP12TRANSPORTDEC11TPDEC_PARAMi
0000000000287034  w   DF .text	00000000000000b0 _ZNK7android6VectorINS_17MyVorbisExtractor8TOCEntryEE15do_move_forwardEPvPKvm
0000000000508a90 g    DO .rodata	0000000000000020 PV_MCBPCtab1
000000000017eb38  w   DF .text	0000000000000008 _ZN7android11BnInterfaceINS_25IAudioPolicyServiceClientEE10onAsBinderEv
0000000000183c54 g    DF .text	000000000000023c _ZN7android10AudioTrack12getTimestampERNS_14AudioTimestampE
000000000025d6f0 g    DF .text	0000000000000070 _ZN7android10MediaCodec21onOutputFormatChangedEv
00000000000db110 g    DF .text	0000000000000010 TVMRJPEGEncoderSetAttributes
00000000002e7f5c g    DF .text	0000000000000008 _ZN5movie11DecoderImpl12SetLastErrorENS_6StatusE
00000000002e7f64 g    DF .text	0000000000000018 _ZN5movie11DecoderImpl37SendInputBufferEventAvailableToClientEv
0000000000589a20 g    DO .data	0000000000000108 _ZTCN7android11AudioSystem24AudioPolicyServiceClientE16_NS_7IBinderE
00000000001dd218 g    DF .text	000000000000009c _Z20shutdownLooperRosterv
000000000026cc30 g    DF .text	0000000000000044 _ZN7android14MPEG4Extractor11countTracksEv
0000000000147750 g    DF .text	0000000000000044 BitstreamByteAlignNoForceStuffing
000000000016ec40 g    DF .text	000000000000000c H264SwDecGetAPIVersion
00000000005a54e0  w   DO .data	0000000000000028 _ZTIN7android6VectorINS_12AVIExtractor5TrackEEE
00000000001c5dc4  w   DF .text	00000000000000a0 _ZN7android4ListINS_2spINS_8NuPlayer6ActionEEEED2Ev
0000000000154330 g    DF .text	000000000000000c PVSetPostProcType
00000000000ea5f4 g    DF .text	00000000000000b4 _ZN19CDrcPresModeWrapper16submitStreamDataEP11CStreamInfo
00000000001e2c28 g    DF .text	000000000000000c _ZNK7android7AString17compareIgnoreCaseERKS0_
0000000000258b48 g    DF .text	00000000000001d4 _ZN7android10MediaCodec18createInputSurfaceEPNS_2spINS_22IGraphicBufferProducerEEE
00000000005221d0 g    DO .rodata	0000000000000019 _ZTSN9mkvparser10IMkvReaderE
0000000000211d20  w   DF .text	0000000000000004 _ZNK7android6VectorINS_14SoftAVCEncoder15InputBufferInfoEE12do_constructEPvm
0000000000278594 g    DF .text	0000000000000188 _ZN7android11MPEG4Writer17startWriterThreadEv
000000000058d7f0 g    DO .data	0000000000000160 _ZTCN7android20BnAudioFlingerClientE0_NS_11BnInterfaceINS_19IAudioFlingerClientEEE
00000000002ede38 g    DF .text	00000000000000b0 _ZN5movie15NnCodecConsumer9setBufferEPviii
0000000000282790  w   DF .text	000000000000004c _ZN7android17AHandlerReflectorINS_15NuCachedSource2EED0Ev
00000000000bf328 g    DF .text	000000000000026c video_parser_set_encryption
000000000024b384  w   DF .text	0000000000000004 _ZNK7android6VectorINS_12AVIExtractor10SampleInfoEE10do_destroyEPvm
00000000001bfd90 g    DF .text	000000000000004c _ZNK7android8NuPlayer14HTTPLiveSource12getTrackInfoEm
00000000001ec618  w   DF .text	000000000000007c _ZN7android4ListINS_11LiveSession18BandwidthEstimator14BandwidthEntryEED0Ev
00000000002b236c g    DF .text	0000000000000004 _ZN9mkvparser4Tags9SimpleTagD2Ev
0000000000112448 g    DF .text	0000000000000004 _Z26transportDec_EndAccessUnitP12TRANSPORTDEC
000000000058e020  w   DO .data	00000000000000a8 _ZTCN7android20BpAudioFlingerClientE0_NS_19IAudioFlingerClientE
00000000001deef8 g    DF .text	00000000000000b8 _ZNK7android8AMessage8findSizeEPKcPm
00000000001fac94  w   DF .text	0000000000000034 _ZN7android6VectorINS_10StreamInfoEED2Ev
0000000000232ff8 g    DF .text	0000000000000008 _ZThn16_N7android6ACodec19signalSetParametersERKNS_2spINS_8AMessageEEE
000000000017e5e0  w   DF .text	0000000000000048 _ZTv0_n24_N7android20BnAudioFlingerClientD1Ev
0000000000179df8 g    DF .text	0000000000000084 _ZN7android11AudioRecord15restoreRecord_lEPKc
0000000000201e94 g    DF .text	0000000000000010 _ZN7android16MPEG2PSExtractor12WrappedTrack5startEPNS_8MetaDataE
00000000005008e4 g    DO .rodata	000000000000007c ScaleFactorsFine
0000000000507330 g    DO .rodata	0000000000000008 hiPassCoeff
000000000027b778 g    DF .text	0000000000001124 _ZN7android11MPEG4Writer5Track11threadEntryEv
00000000002db910 g    DF .text	0000000000000014 _ZN5movie26NnCodecVideoOutputReceiver20RegisterOutputBufferEPNS_6BufferEi
00000000001dc824  w   DF .text	0000000000000050 _ZNK7android6VectorINS_2spINS_6AStateEEEE8do_splatEPvPKvm
00000000002d72dc g    DF .text	000000000000001c _ZN5movie13NnCodecPlayer11IsCacheFullEPb
000000000000e718 g    DF .text	000000000000003c NvMMBufMgrDeinit
000000000017fb6c g    DF .text	0000000000000034 float_from_gain
00000000005a03f8 g    DO .data	00000000000000d8 _ZTVN7android19AnotherPacketSourceE
00000000001832f8 g    DF .text	0000000000000150 _ZN7android15TimedAudioTrack19allocateTimedBufferEmPNS_2spINS_7IMemoryEEE
0000000000256cb8 g    DF .text	00000000000000c8 _ZN7android12MediaAdapter4readEPPNS_11MediaBufferEPKNS_11MediaSource11ReadOptionsE
00000000002bc568 g    DF .text	0000000000000230 _ZN8mkvmuxer7SegmentD1Ev
0000000000176aa0 g    DF .text	000000000000020c _ZN7android11AudioEffectC2EPKcS2_iPFviPvS3_ES3_ii
000000000029d05c  w   DF .text	0000000000000004 _ZNK7android11BnInterfaceINS_11IMemoryHeapEE22getInterfaceDescriptorEv
00000000005abfd0 g    DO .data	0000000000000018 _ZTIN7android10XINGSeekerE
0000000000286e48 g    DF .text	0000000000000094 _ZN7android8SniffOggERKNS_2spINS_10DataSourceEEEPNS_7String8EPfPNS0_INS_8AMessageEEE
00000000002b9ba8 g    DF .text	0000000000000024 _ZN8mkvmuxer10VideoTrackD0Ev
000000000058b198 g    DO .data	00000000000002f8 _ZTVN7android14BnAudioFlingerE
00000000005a5768  w   DO .data	0000000000000048 _ZTVN7android20AwesomeLocalRendererE
0000000000193190 g    DF .text	00000000000000b4 _ZN7android14MediaCodecInfoC1ENS_7AStringEbPKc
00000000005a7340 g    DO .data	0000000000000008 _ZN7android26MEDIA_MIMETYPE_VIDEO_MPEG4E
00000000001d37e0 g    DF .text	0000000000000008 _ZN7android8NuPlayer8Renderer21enableJitterProfilingEPNS_10JitterToolES3_
000000000024aad8 g    DF .text	000000000000023c _ZN7android12AVIExtractor24addH264CodecSpecificDataEm
00000000005a7360 g    DO .data	0000000000000008 _ZN7android24MEDIA_MIMETYPE_VIDEO_OGGE
0000000000190108  w   DF .text	0000000000000008 _ZN7android5BpOMX22storeMetaDataInBuffersEjj8OMX_BOOL
000000000025d524 g    DF .text	000000000000011c _ZN7android10MediaCodec34postActivityNotificationIfPossibleEv
00000000002d43f4 g    DF .text	00000000000000b4 _ZN5movie13NnCodecPlayer16SetShadowBuffersEv
00000000002e1f88 g    DF .text	000000000000012c _ZN5movie16NnCodecVideoSink24SetOutputBufferAlignmentEPNS_9MediaDataE
000000000059f430  w   DO .data	0000000000000018 _ZTIZN7android14ReferenceMover15move_referencesINS_6AStateEEEvPNS_2spIT_EEPKS5_mE7Renamer
00000000005a3fd0 g    DO .data	0000000000000018 _ZTIN7android6ACodec15PortDescriptionE
00000000002cc104 g    DF .text	000000000000006c _ZN5movie11NnExtractorC2Ev
000000000029ae50 g    DF .text	00000000000000fc _ZN7android9SfNvnUtil18AllocateGrallocBufERKNS_2spI13ANativeWindowEEi
00000000005a08f0  w   DO .data	0000000000000028 _ZTIN7android6VectorINS_10StreamInfoEEE
0000000000268e20 g    DF .text	0000000000000008 _ZNK7android13MPEG2TSWriter10SourceInfo10streamTypeEv
00000000001dbb80 g    DF .text	0000000000000024 _ZN7android7ABufferD0Ev
000000000059f870 g    DO .data	0000000000000018 _ZTIN7android8AMessageE
000000000051bd20  w   DO .rodata	000000000000001a _ZTSN7android13ARTPAssemblerE
00000000005a00a8 g    DO .data	0000000000000040 _ZTVN7android9M3UParser10MediaGroupE
0000000000521d60  w   DO .rodata	0000000000000031 _ZTSN7android4ListINS_15TimedEventQueue9QueueItemEEE
0000000000147364 g    DF .text	0000000000000040 BitstreamShowBits32HC
000000000019572c g    DF .text	0000000000000194 _ZN7android11MediaPlayer13setDataSourceEill
000000000020d0bc  w   DF .text	0000000000000004 _ZNK7android12SortedVectorINS_16key_value_pair_tIjP20OMX_BUFFERHEADERTYPEEEE10do_destroyEPvm
0000000000147a50 g    DF .text	0000000000000044 PVLocateM4VFrameBoundary
00000000004f66d8 g    DO .rodata	0000000000001000 SineWindow1024
000000000059dd20  w   DO .data	0000000000000018 _ZTIZN7android14ReferenceMover15move_referencesINS_7ABufferEEEvPNS_2spIT_EEPKS5_mE7Renamer
000000000022e0cc g    DF .text	0000000000000054 _ZN7android19TimedText3GPPSourceD0Ev
00000000001f89bc g    DF .text	0000000000000008 _ZN7android19AnotherPacketSource4stopEv
00000000002bb9dc g    DF .text	0000000000000010 _ZNK8mkvmuxer7Cluster18IsValidTrackNumberEy
000000000020fb8c g    DF .text	0000000000000018 _ZN7android16SoftOMXComponent20notifyFillBufferDoneEP20OMX_BUFFERHEADERTYPE
0000000000518250 g    DO .rodata	000000000000001f _ZTSN7android18MediaScannerClientE
0000000000206f34 g    DF .text	000000000000008c _ZN7android3OMX11sendCommandEj15OMX_COMMANDTYPEi
000000000023b0bc g    DF .text	00000000000000d8 _ZN7android6ACodec14getAVCLevelForEiiii24OMX_VIDEO_AVCPROFILETYPE
00000000005d5c58 g    DO .bss	0000000000000020 _ZN7android9SingletonINS_10MediaCodec15BatteryNotifierEE5sLockE
0000000000154618 g    DF .text	0000000000000230 PVDecodeVopHeader
00000000002b39c8 g    DF .text	0000000000000070 _ZNK9mkvparser7Cluster8GetFirstERPKNS_10BlockEntryE
00000000001c2988 g    DF .text	0000000000000078 _ZN7android8NuPlayer13GenericSource5startEv
00000000004fc598 g    DO .rodata	0000000000000100 qmf_phaseshift_sin64
00000000001342b0 g    DF .text	0000000000000384 _ZN7android14SoftAACEncoderC2EPKcPK16OMX_CALLBACKTYPEPvPP17OMX_COMPONENTTYPE
00000000001b5b68 g    DF .text	0000000000000004 _ZN7android18ARawAudioAssembler12assembleMoreERKNS_2spINS_10ARTPSourceEEE
000000000028e860 g    DF .text	00000000000000d8 _ZN7android8OMXCodec22setVideoPortFormatTypeEj20OMX_VIDEO_CODINGTYPE20OMX_COLOR_FORMATTYPE
00000000002db6b8 g    DF .text	0000000000000010 _ZN5movie26NnCodecVideoOutputReceiver29UpdateCurrentPlaybackPositionEl
00000000001e2e6c g    DF .text	00000000000001b0 _ZNK7android7AString13writeToParcelEPNS_6ParcelE
0000000000268be0 g    DF .text	0000000000000180 _ZN7android13MPEG2TSWriter10SourceInfoC1ERKNS_2spINS_11MediaSourceEEE
00000000005a13d0 g    DO .data	0000000000000020 _ZTTN7android19GraphicBufferSourceE
0000000000199678 g    DF .text	0000000000000004 _ZN7android12SoundChannel4dumpEv
00000000002324d8 g    DF .text	00000000000001a8 _ZN7android9AACSource4readEPPNS_11MediaBufferEPKNS_11MediaSource11ReadOptionsE
00000000002ce0c4 g    DF .text	00000000000000c8 _ZN5movie12HLSExtractorC2EPNS_15ExtractorConfigE
00000000001d1454 g    DF .text	00000000000000ec _ZN7android8NuPlayer18DecoderPassThrough17dequeueAccessUnitEPNS_2spINS_7ABufferEEE
000000000020f5ec  w   DF .text	000000000000007c _ZN7android22SimpleSoftOMXComponentD2Ev
000000000021662c g    DF .text	0000000000000084 AVCSAD_MB_HalfPel_Cxhyh
00000000005a7ac0 g    DO .data	00000000000000d8 _ZTCN7android9MP3SourceE0_NS_11MediaSourceE
00000000002b5054 g    DF .text	0000000000000008 _ZNK9mkvparser10AudioTrack15GetSamplingRateEv
000000000013f8d4 g    DF .text	00000000000000d4 QCOutNew
00000000002cc1c4 g    DF .text	0000000000000088 _ZN5movie11NnExtractorC2EPNS_15ExtractorConfigE
000000000011ac04 g    DF .text	00000000000005e0 _Z17aliasingReductionPiP13ENV_CALC_NRGSS_i
000000000012f580 g    DF .text	00000000000002b0 _Z19resetFreqBandTablesP15SBR_HEADER_DATAj
000000000022d334 g    DF .text	0000000000000298 _ZNK7android28SoftVideoEncoderOMXComponent20extractGraphicBufferEPhmPKhmmm
00000000002cc514 g    DF .text	0000000000000088 _ZNK5movie11NnExtractor14GetTrackFormatEiPNS_9MediaDataE
0000000000594830  w   DO .data	00000000000000a8 _ZTCN7android11BnInterfaceINS_18IMediaPlayerClientEEE0_NS_18IMediaPlayerClientE
00000000001c1dcc g    DF .text	0000000000000030 _ZN7android8NuPlayer13GenericSource19getLastReadPositionEv
0000000000200308  w   DF .text	000000000000003c _ZN7android6VectorINS_11NALPositionEED0Ev
0000000000185c9c g    DF .text	000000000000000c _ZNK7android13IAudioFlinger22getInterfaceDescriptorEv
0000000000240320 g    DF .text	000000000000047c _ZN7android6ACodec14ExecutingState17onMessageReceivedERKNS_2spINS_8AMessageEEE
00000000001d7db8  w   DF .text	00000000000000a8 _ZN7android4ListINS_8NuPlayer8Renderer10QueueEntryEED0Ev
0000000000594320  w   DO .data	0000000000000018 _ZTIN7android19BpMediaPlayerClientE
0000000000113ae8 g    DF .text	000000000000014c setLimiterSampleRate
0000000000184914 g    DF .text	0000000000000028 _ZN7android18audio_track_cblk_tC2Ev
00000000001bfef8 g    DF .text	0000000000000298 _ZN7android8NuPlayer14HTTPLiveSource17onMessageReceivedERKNS_2spINS_8AMessageEEE
0000000000206994 g    DF .text	00000000000002a0 _ZN7android3OMX12allocateNodeEPKcRKNS_2spINS_12IOMXObserverEEEPj
00000000002802e8  w   DF .text	000000000000007c _ZN7android4ListIPlED0Ev
00000000002ab6bc g    DF .text	00000000000006f0 _ZN9mkvparser7Segment13DoLoadClusterERxRl
0000000000182f6c g    DF .text	00000000000000b4 _ZN7android10AudioTrack13releaseBufferEPNS0_6BufferE
0000000000176f6c g    DF .text	0000000000000010 _ZNK7android11AudioEffect10descriptorEv
00000000001ee0e0 g    DF .text	0000000000000054 _ZN7android9M3UParser20pickRandomMediaItemsEv
000000000018a0d0 g    DF .text	000000000000000c _ZNK7android19IAudioFlingerClient22getInterfaceDescriptorEv
0000000000500258 g    DO .rodata	00000000000000f0 FDK_sbrDecoder_sbr_huffBook_EnvLevel10F
000000000018c474 g    DF .text	000000000000003c _ZN7android13IEffectClientC2Ev
000000000026b8fc g    DF .text	00000000000002f8 _ZN7android13MPEG2TSWriter15writeProgramMapEv
00000000000f82d0 g    DF .text	0000000000000088 aacDecoder_Fill
0000000000520cb0 g    DO .rodata	0000000000000030 _ZTSN7android14MediaCodecList19BinderDeathObserverE
0000000000178a7c  w   DF .text	0000000000000048 _ZNK7android12SortedVectorINS_16key_value_pair_tINS_7String8ES2_EEE10do_compareEPKvS6_
00000000005d5898 g    DO .bss	0000000000000008 _ZN7android19IMediaDeathNotifier14sDeathNotifierE
00000000005a5640  w   DO .data	0000000000000028 _ZTIN7android6VectorINS_13AwesomePlayer9TrackStatEEE
0000000000261574  w   DF .text	0000000000000008 _ZN7android14MediaCodecList19BinderDeathObserverD1Ev
000000000029e3d8  w   DF .text	0000000000000034 _ZN7android6VectorINS_2spINS_13GraphicBufferEEEED2Ev
000000000020fa8c g    DF .text	0000000000000050 _ZN7android16SoftOMXComponentD0Ev
000000000027ea5c g    DF .text	0000000000000058 _ZN7android11MPEG4Writer5Track12writeStscBoxEv
00000000005abfe8 g    DO .data	00000000000000d8 _ZTVN7android14MatroskaSourceE
00000000001388f0 g    DF .text	000000000000004c bitCount
000000000027aec0 g    DF .text	0000000000000004 _ZN7android8KinuwakiEPv
00000000000110d8 g    DF .text	00000000000000c8 NvMMQueueCreate
0000000000189f54  w   DF .text	0000000000000048 _ZThn8_N7android14BpAudioFlingerD1Ev
00000000005a2768  w   DO .data	0000000000000010 _ZTIN7android13OMXPluginBaseE
00000000002d0180 g    DF .text	0000000000000008 _ZN5movie12HLSExtractor19CancelSetDataSourceEv
000000000000020c g    DF .text	0000000000000008 NvAvpSetClockRate
0000000000500168 g    DO .rodata	00000000000000f0 FDK_sbrDecoder_sbr_huffBook_EnvLevel10T
000000000059eb38  w   DO .data	0000000000000050 _ZTVN7android6VectorImEE
000000000051dd00 g    DO .rodata	0000000000000023 _ZTSN7android3OMX18CallbackDispatcherE
000000000018c188  w   DF .text	0000000000000048 _ZThn8_N7android8BpEffectD1Ev
00000000002ef380  w   DF .text	0000000000000078 _ZNSt3__115basic_stringbufIcNS_11char_traitsIcEENS_9allocatorIcEEE9pbackfailEi
00000000000f9824 g    DF .text	00000000000005ac _Z23CBlock_ReadSpectralDataP13FDK_BITSTREAMP22CAacDecoderChannelInfoPK16SamplingRateInfoj
00000000002576ac g    DF .text	0000000000000048 _ZN7android16MediaBufferGroupC1Ev
00000000002818d8 g    DF .text	0000000000000224 _ZN7android15NuCachedSource213fetchInternalEv
000000000016f088 g    DF .text	0000000000000034 oggpack_bytes
00000000001ba944 g    DF .text	0000000000000040 _ZN7android13AAMRAssemblerD2Ev
00000000000111a0 g    DF .text	00000000000000a8 NvMMQueueEnQ
0000000000001ad0 g    DF .text	0000000000000010 NvmmGetFileContentPipe
00000000001777f0  w   DF .text	0000000000000098 _ZN7android11BnInterfaceINS_13IEffectClientEE19queryLocalInterfaceERKNS_8String16E
000000000058bd58  w   DO .data	0000000000000278 _ZTVN7android14BpAudioFlingerE
0000000000284d04 g    DF .text	000000000000007c _ZN7android16NuMediaExtractor19cancelSetDataSourceEv
000000000017b040  w   DF .text	0000000000000058 _ZN7android11AudioRecord13DeathNotifierD0Ev
000000000058e0d0  w   DO .data	0000000000000098 _ZTCN7android20BpAudioFlingerClientE0_NS_10IInterfaceE
00000000005917a0  w   DO .data	0000000000000038 _ZTIN7android11BpInterfaceINS_13IEffectClientEEE
0000000000500484 g    DO .rodata	000000000000007c FDK_sbrDecoder_sbr_huffBook_EnvLevel11F
00000000001c1dfc g    DF .text	000000000000002c _ZN7android8NuPlayer13GenericSource10setBuffersEbRNS_6VectorIPNS_11MediaBufferEEE
000000000059ff78  w   DO .data	0000000000000058 _ZTVN7android12SortedVectorINS_16key_value_pair_tINS_7AStringENS_11LiveSession11FetcherInfoEEEEE
00000000002cb7c8 g    DF .text	0000000000000008 _ZNK11nnAudioSink12getTimestampERN7android14AudioTimestampE
00000000001df3a8 g    DF .text	0000000000000058 _ZN7android8AMessage9setObjectEPKcRKNS_2spINS_7RefBaseEEE
00000000001c2cb4 g    DF .text	00000000000000f0 _ZN7android8NuPlayer13GenericSource10disconnectEv
000000000018e5f0  w   DF .text	000000000000000c _ZNK7android11BnInterfaceINS_18IMediaPlayerClientEE22getInterfaceDescriptorEv
00000000001de588  w   DF .text	0000000000000018 _ZNK7android6VectorINS_2spINS_7ALooperEEEE12do_constructEPvm
00000000001f88dc g    DF .text	000000000000002c _ZN7android19AnotherPacketSourceD1Ev
00000000001bee00 g    DF .text	00000000000000f8 _ZN7android19ASessionDescription13parseNTPRangeEPKcPfS3_
0000000000281340 g    DF .text	000000000000002c _ZN7android15NuCachedSource25flagsEv
00000000002054d8  w   DF .text	0000000000000004 _ZNK7android12SortedVectorINS_16key_value_pair_tIllEEE10do_destroyEPvm
00000000002e9ccc g    DF .text	0000000000000044 _ZN5movie11EncoderImpl4StopEv
00000000005a2a40  w   DO .data	0000000000000028 _ZTIN7android6VectorINS_15OMXNodeInstance12ActiveBufferEEE
00000000002cbc90 g    DF .text	0000000000000048 _ZN11nnAudioSink5closeEv
00000000005a8ce8 g    DO .data	0000000000000010 _ZTIN7android17MyVorbisExtractorE
000000000019e2c8 g    DF .text	0000000000000008 XML_GetBase
00000000005a5dd0 g    DO .data	0000000000000018 _ZTIN7android18CurlHttpConnectionE
000000000026beb4  w   DF .text	0000000000000050 _ZNK7android6VectorINS_2spINS_13MPEG2TSWriter10SourceInfoEEEE8do_splatEPvPKvm
000000000017dd94 g    DF .text	0000000000000078 _ZN7android11AudioSystem16createAudioPatchEPK11audio_patchPi
0000000000216144 g    DF .text	0000000000000280 AVCFullSearch
00000000002e1ca0 g    DF .text	0000000000000034 _ZN5movie16NnCodecVideoSink19GetVideoPostDelayUsEv
0000000000500408 g    DO .rodata	000000000000007c FDK_sbrDecoder_sbr_huffBook_EnvLevel11T
0000000000588408 g    DO .data	0000000000000040 _ZTVN7android11AudioRecordE
00000000005a6de0 g    DO .data	0000000000000018 _ZTIN7android14MediaCodecListE
00000000002b07a4 g    DF .text	000000000000010c _ZNK9mkvparser7Segment11FindClusterEx
0000000000208b8c  w   DF .text	0000000000000014 _ZNK7android6VectorINS_7String8EE15do_move_forwardEPvPKvm
000000000018ae24  w   DF .text	0000000000000048 _ZTv0_n24_N7android11BpInterfaceINS_25IAudioPolicyServiceClientEED1Ev
0000000000246868 g    DF .text	0000000000000060 _ZN7android7parseSEEPNS_10ABitReaderE
00000000000f35e8 g    DF .text	000000000000000c _Z12CPns_InitPnsP8CPnsDataP20CPnsInterChannelDataPiS3_
000000000012d544 g    DF .text	000000000000002c _Z21FreeRam_SbrDecChannelPP11SBR_CHANNEL
0000000000217ca4 g    DF .text	0000000000000098 BitstreamWriteBits
0000000000053980 g    DF .text	0000000000000008 NvDdk2dSurfaceSetRepeatMode
000000000015c8a8 g    DF .text	0000000000002470 h264bsdFilterPicture
00000000001fd3a0  w   DF .text	000000000000003c _ZN7android12SortedVectorINS_16key_value_pair_tIjNS_2spINS_9ATSParser10PSISectionEEEEEED0Ev
0000000000177d34  w   DF .text	0000000000000010 _ZN7android11AudioEffect12EffectClient15commandExecutedEjjPvjS2_
0000000000199fe0  w   DF .text	000000000000003c _ZN7android12SortedVectorINS_16key_value_pair_tIiNS_2spINS_6SampleEEEEEED0Ev
00000000005a7cc0  w   DO .data	0000000000000018 _ZTIN7android11MediaWriterE
00000000001782cc g    DF .text	00000000000000c0 _ZN7android14AudioParameter8toStringEv
0000000000189bf8  w   DF .text	00000000000000cc _ZN7android14BpAudioFlinger16createAudioPatchEPK11audio_patchPi
000000000018b188 g    DF .text	000000000000000c _ZNK7android7IEffect22getInterfaceDescriptorEv
00000000005972a0  w   DO .data	0000000000000098 _ZTCN7android11BpInterfaceINS_12IOMXObserverEEE0_NS_10IInterfaceE
000000000024ea98 g    DF .text	0000000000000010 _ZN7android13AwesomePlayer23ensureCacheIsFetching_lEv
00000000002ca140 g    DF .text	00000000000000b8 _ZN7android9WebmFrameC1EibmPNS_11MediaBufferE
00000000000fa234 g    DF .text	00000000000000e4 _Z26CChannel_CodebookTableInitP22CAacDecoderChannelInfo
0000000000174694 g    DF .text	000000000000035c mdct_unroll_lap
0000000000282440 g    DF .text	000000000000014c _ZN7android15NuCachedSource226RemoveCacheSpecificHeadersEPNS_11KeyedVectorINS_7String8ES2_EEPS2_Pb
000000000000ee28 g    DF .text	0000000000000a48 NvMMUtilGuessFormatFromFile
00000000002163c4 g    DF .text	00000000000001e8 AVCMoveNeighborSAD
00000000005a80a8 g    DO .data	00000000000000e8 _ZTVN7android11MPEG4SourceE
00000000001e1938 g    DF .text	000000000000003c _ZN7android7AString11makeMutableEv
000000000017d7ac g    DF .text	0000000000000068 _ZN7android11AudioSystem16unregisterEffectEi
00000000002d8618 g    DF .text	00000000000001d8 _ZN5movie16NnReassembleAVCCERKN7android2spINS0_7ABufferEEES3_Pc
0000000000267238  w   DF .text	00000000000000a0 _ZNK7android12SortedVectorINS_16key_value_pair_tIjNS_8MetaData10typed_dataEEEE8do_splatEPvPKvm
000000000018c744  w   DF .text	0000000000000040 _ZN7android11BpInterfaceINS_13IEffectClientEED1Ev
00000000002052cc g    DF .text	0000000000000120 _ZN7android19GraphicBufferSource17onMessageReceivedERKNS_2spINS_8AMessageEEE
00000000002a4708 g    DF .text	0000000000000008 _ZN7android10XINGSeeker15getEncoderDelayEv
0000000000230b24 g    DF .text	00000000000000a4 _ZN7android18TimedTextSRTSourceC2ERKNS_2spINS_10DataSourceEEE
00000000002b0d70 g    DF .text	0000000000000004 _ZN9mkvparser8Chapters7EditionC1Ev
000000000017ee34  w   DF .text	0000000000000048 _ZThn8_N7android11BnInterfaceINS_25IAudioPolicyServiceClientEED1Ev
000000000059e9d8  w   DO .data	0000000000000050 _ZTVN7android6VectorIPNS_11MediaBufferEEE
00000000002ba950 g    DF .text	0000000000000004 _ZN8mkvmuxer7ChapterC1Ev
00000000002b37b0 g    DF .text	0000000000000008 _ZNK9mkvparser5Track11GetLanguageEv
00000000000f5244 g    DF .text	0000000000000140 _Z23CAacDecoder_SyncQmfModeP20AAC_DECODER_INSTANCE
00000000002a4174 g    DF .text	000000000000001c _ZN7android12WVMExtractor24setAdaptiveStreamingModeEb
0000000000261f20 g    DF .text	0000000000000080 _ZN7android16MediaCodecSource6Puller31postSynchronouslyAndReturnErrorERKNS_2spINS_8AMessageEEE
00000000002ccc6c g    DF .text	0000000000000004 _ZN5movie14NnMSEExtractor8FinalizeEv
00000000000f3f64 g    DF .text	00000000000004f8 _Z9CTns_ReadP13FDK_BITSTREAMP8CTnsDataPK8CIcsInfoj
00000000000101e4 g    DF .text	0000000000000058 NvMMInitMediaClocks
00000000001d17f8 g    DF .text	0000000000000074 _ZN7android8NuPlayer18DecoderPassThrough8onResumeEb
0000000000517ac0 g    DO .rodata	000000000000002f _ZTSN7android19IMediaDeathNotifier13DeathNotifierE
000000000025799c g    DF .text	0000000000000034 _ZN7android16MediaBufferGroup20signalBufferReturnedEPNS_11MediaBufferE
00000000001268c4 g    DF .text	0000000000000210 _Z12ResetPsDeCorP6PS_DEC
0000000000264c3c  w   DF .text	0000000000000044 _ZN7android17AHandlerReflectorINS_16MediaCodecSourceEED2Ev
00000000005ac980  w   DO .data	0000000000000018 _ZTIN7android26WebmFrameEmptySourceThreadE
00000000004f57d8 g    DO .rodata	0000000000000780 RotVectorReal480
000000000017d714 g    DF .text	0000000000000098 _ZN7android11AudioSystem14registerEffectEPK19effect_descriptor_sijii
00000000002d721c g    DF .text	00000000000000c0 _ZN5movie13NnCodecPlayer34RegisterOutputBuffersWithVideoSinkEv
00000000002e9570 g    DF .text	0000000000000178 _ZN5movie11EncoderImplD2Ev
00000000002093dc  w   DF .text	000000000000003c _ZN7android12SortedVectorINS_16key_value_pair_tIP17OMX_COMPONENTTYPEPNS_13OMXPluginBaseEEEED0Ev
00000000000cdffc g    DF .text	0000000000000054 TVMRRawSurfaceDestroy
0000000000180168 g    DF .text	0000000000000030 memcpy_to_i16_from_q8_23
00000000001dd344  w   DF .text	0000000000000008 _ZN7android7ALooper12LooperThread10threadLoopEv
00000000001dd350  w   DF .text	000000000000003c _ZTv0_n24_N7android7ALooper12LooperThreadD1Ev
00000000005a0ed8  w   DO .data	0000000000000058 _ZTVN7android12SortedVectorINS_16key_value_pair_tIjjEEEE
0000000000207210 g    DF .text	000000000000007c _ZN7android3OMX8getStateEjP13OMX_STATETYPE
000000000024b344  w   DF .text	000000000000003c _ZN7android6VectorINS_12AVIExtractor10SampleInfoEED0Ev
00000000002ada64 g    DF .text	0000000000000240 _ZNK9mkvparser4Cues4InitEv
00000000001558c8 g    DF .text	00000000000000d0 PV_VlcDecCBPY
0000000000187958  w   DF .text	0000000000000048 _ZN7android14BpAudioFlingerD0Ev
0000000000204e80 g    DF .text	0000000000000140 _ZN7android19GraphicBufferSource16onFrameAvailableERKNS_10BufferItemE
0000000000252030 g    DF .text	000000000000003c _ZNK7android13AwesomePlayer11countTracksEv
00000000001f8b78 g    DF .text	0000000000000268 _ZN7android19AnotherPacketSource17dequeueAccessUnitEPNS_2spINS_7ABufferEEE
000000000014e8f0 g    DF .text	00000000000003f4 GetPredAdvancedBy0x0
000000000014ece4 g    DF .text	00000000000003f8 GetPredAdvancedBy0x1
00000000001920b8  w   DF .text	0000000000000008 _ZN7android11BpInterfaceINS_15IStreamListenerEE10onAsBinderEv
00000000001bafa8  w   DF .text	0000000000000060 _ZNK7android6VectorIhE8do_splatEPvPKvm
0000000000185be8  w   DF .text	0000000000000024 _ZN7android11ServerProxyD0Ev
00000000001cd668 g    DF .text	000000000000020c _ZN7android8NuPlayer7DecoderD1Ev
00000000000133e0 g    DF .text	0000000000000030 NvmmUlpKpiGetTotalIdleTime
00000000001df5f0 g    DF .text	00000000000000e8 _ZNK7android8AMessage10findObjectEPKcPNS_2spINS_7RefBaseEEE
000000000018eb90  w   DF .text	0000000000000050 _ZTv0_n24_N7android11BpInterfaceINS_18IMediaPlayerClientEED0Ev
0000000000248410 g    DF .text	0000000000000030 _ZTv0_n24_N7android12AVIExtractor9AVISourceD0Ev
00000000004ff470 g    DO .rodata	00000000000000d8 FDK_sbrDecoder_sbr_whFactorsTable
000000000023e138 g    DF .text	000000000000006c _ZN7android6ACodec18UninitializedStateC2EPS0_
000000000026552c  w   DF .text	0000000000000034 _ZN7android6VectorINS_2spINS_12MediaAdapterEEEED2Ev
000000000020941c  w   DF .text	0000000000000004 _ZNK7android12SortedVectorINS_16key_value_pair_tIP17OMX_COMPONENTTYPEPNS_13OMXPluginBaseEEEE10do_destroyEPvm
00000000002730f0 g    DF .text	000000000000002c _ZN7android11MPEG4SourceD1Ev
00000000002e42bc g    DF .text	00000000000002a8 _ZN5movie20NnCodecInputReceiver17onMessageReceivedERKN7android2spINS1_8AMessageEEE
0000000000523030  w   DO .rodata	000000000000001f _ZTSN2nn2sf6detail13CmifProxyInfoE
00000000001910e4  w   DF .text	0000000000000040 _ZN7android11BnInterfaceINS_13IStreamSourceEED1Ev
00000000000ecf98  w   DF .text	000000000000008c _ZNK7android6VectorINS_22SimpleSoftOMXComponent10BufferInfoEE7do_copyEPvPKvm
000000000059a8b0  w   DO .data	0000000000000058 _ZTTN7android11BnInterfaceINS_15IStreamListenerEEE
000000000058e320  w   DO .data	0000000000000048 _ZTTN7android11BpInterfaceINS_19IAudioFlingerClientEEE
0000000000516f40  w   DO .rodata	000000000000002d _ZTSN7android11BnInterfaceINS_13IEffectClientEEE
000000000023428c g    DF .text	0000000000000320 _ZN7android6ACodec38configureOutputBuffersFromNativeWindowEPjS1_S1_
00000000005a92f8 g    DO .data	0000000000000108 _ZTVN7android8OMXCodecE
0000000000182bac g    DF .text	0000000000000038 _ZNK7android10AudioTrack9getOutputEv
000000000059b1c8 g    DO .data	00000000000001b8 _ZTVN7android11MediaPlayerE
0000000000190118  w   DF .text	0000000000000008 _ZN7android5BpOMX24configureVideoTunnelModeEjj8OMX_BOOLjPP13native_handle
0000000000219bac g    DF .text	0000000000000080 _Z15ComputeFrameMADP12tagCommonObjP17tagAVCRateControl
000000000016643c g    DF .text	0000000000000004 h264bsdSubMbPartMode
0000000000500560 g    DO .rodata	000000000000007c FDK_sbrDecoder_sbr_huffBook_NoiseLevel11T
0000000000200bb4 g    DF .text	0000000000000008 _ZNK7android16MPEG2PSExtractor5flagsEv
00000000002056a4  w   DF .text	000000000000006c _ZNK7android6VectorINS_19GraphicBufferSource11CodecBufferEE7do_copyEPvPKvm
00000000002760f4  w   DF .text	000000000000008c _ZNK7android6VectorINS_9SidxEntryEE16do_move_backwardEPvPKvm
00000000001666fc g    DF .text	0000000000000010 h264bsdNeighbour4x4BlockA
00000000002eabe8 g    DF .text	0000000000000014 _ZN5movie7Encoder24SendInputBufferForEncodeEiiilj
000000000016670c g    DF .text	0000000000000010 h264bsdNeighbour4x4BlockB
000000000016671c g    DF .text	0000000000000010 h264bsdNeighbour4x4BlockC
00000000005a6690 g    DO .data	0000000000000098 _ZTCN7android14MediaCodecList19BinderDeathObserverE0_NS_7IBinder14DeathRecipientE
000000000016672c g    DF .text	0000000000000010 h264bsdNeighbour4x4BlockD
000000000027db60 g    DF .text	00000000000000b8 _ZN7android11MPEG4Writer5Track12writeVmhdBoxEv
000000000017f754  w   DF .text	0000000000000004 _ZNK7android6VectorINS_23AttributeMatchCriterionEE12do_constructEPvm
00000000000db1c4 g    DF .text	0000000000000030 TVMRSingleSurfaceCopy
00000000005a8738  w   DO .data	0000000000000010 _ZTIN7android4ListINS_11MPEG4Writer5Track11AVCParamSetEEE
00000000002badd8 g    DF .text	0000000000000008 _ZN8mkvmuxer8ChaptersC1Ev
00000000002b2448 g    DF .text	0000000000000048 _ZN9mkvparser15ContentEncoding17ContentEncryptionD1Ev
00000000002cb580 g    DF .text	0000000000000008 _ZN5movie8nnPlayer8GetStateEPNS_11PlayerStateE
00000000002ae940 g    DF .text	0000000000000014 _ZNK9mkvparser8CuePoint7GetTimeEPKNS_7SegmentE
000000000029162c g    DF .text	0000000000000134 _ZN7android8OMXCodec26cancelBufferToNativeWindowEPNS0_10BufferInfoE
0000000000256f64 g    DF .text	0000000000000098 _ZN7android11MediaBufferC1ERKNS_2spINS_7ABufferEEE
00000000002e0128 g    DF .text	0000000000000054 _ZN5movie16NnCodecVideoSink25ClearBuffersForClientListEv
00000000001d2cf8 g    DF .text	0000000000000008 _ZN7android14NuPlayerDriver12setParameterEiRKNS_6ParcelE
000000000028f68c g    DF .text	00000000000000a4 _ZN7android8OMXCodec30setupErrorCorrectionParametersEv
000000000014bcf0 g    DF .text	000000000000039c DecodeDataPart_I_VideoPacket
00000000001cc730 g    DF .text	000000000000001c _ZNK7android8NuPlayer9CCDecoder13getTrackIndexEm
00000000001351f8 g    DF .text	0000000000000390 _ZN7android14SoftAACEncoder13onQueueFilledEj
0000000000242930  w   DF .text	0000000000000050 _ZNK7android6VectorINS_6ACodec10BufferInfoEE10do_destroyEPvm
000000000017f044  w   DF .text	0000000000000054 _ZThn8_N7android11AudioSystem24AudioPolicyServiceClientD0Ev
0000000000298348  w   DF .text	00000000000000ac _ZNK7android6VectorINS_8OMXCodec10BufferInfoEE16do_move_backwardEPvPKvm
000000000029f468 g    DF .text	00000000000000a8 _ZN7android15ThrottledSourceC1ERKNS_2spINS_10DataSourceEEEi
00000000002cb5c8 g    DF .text	0000000000000008 _ZN5movie8nnPlayer24SetOutputBufferAlignmentEPNS_9MediaDataE
000000000017584c g    DF .text	000000000000000c vorbis_comment_init
0000000000298000  w   DF .text	0000000000000004 _ZNK7android6VectorIPNS_8OMXCodec17CodecSpecificDataEE10do_destroyEPvm
00000000002db474 g    DF .text	00000000000000bc _ZN5movie26NnCodecVideoOutputReceiverD1Ev
00000000002334dc g    DF .text	0000000000000068 _ZN7android6ACodec48signalSubmitOutputMetaDataBufferIfEOS_workaroundEv
0000000000197cd0 g    DF .text	0000000000000070 _ZN7android9SoundPool13addToStopListEPNS_12SoundChannelE
0000000000053240 g    DF .text	0000000000000018 NvDdk2dSurfaceGetBuffer
00000000002b5b6c g    DF .text	0000000000000010 _ZNK9mkvparser6Tracks14GetTracksCountEv
0000000000113ab0 g    DF .text	0000000000000008 getLimiterDelay
000000000059f388 g    DO .data	0000000000000010 _ZTIN7android25AHierarchicalStateMachineE
00000000002cb6c8 g    DF .text	0000000000000008 _ZNK11nnAudioSink5readyEv
00000000002c6af8 g    DF .text	00000000000000c8 _ZN7android26WebmFrameMediaSourceThreadC1ERKNS_2spINS_11MediaSourceEEEiRNS_19LinkedBlockingQueueIKNS1_INS_9WebmFrameEEEEEmliib
00000000002eb790 g    DF .text	0000000000000034 _ZN5movie6BufferD2Ev
00000000002cb264 g    DF .text	0000000000000050 _ZN5movie8nnPlayer19GetPlaybackDurationEPl
00000000001cdcd8 g    DF .text	0000000000000320 _ZN7android8NuPlayer7Decoder19handleAnInputBufferEv
0000000000209220 g    DF .text	00000000000000c0 _ZN7android9OMXMaster19enumerateComponentsEPcmj
00000000001bc4fc g    DF .text	0000000000000054 _ZN7android17AMPEG2TSAssembler13onByeReceivedEv
0000000000205e6c g    DF .text	000000000000001c _ZN7android3OMX24CallbackDispatcherThread10threadLoopEv
000000000018d15c  w   DF .text	0000000000000048 _ZThn8_N7android11BnInterfaceINS_15IMediaCodecListEED1Ev
00000000000001f4 g    DF .text	0000000000000008 NvAvpSubmitBufferNew
00000000001f2c70 g    DF .text	00000000000004c0 _ZN7android15PlaylistFetcher7onStartERKNS_2spINS_8AMessageEEE
0000000000114d3c g    DF .text	0000000000000040 pcmDmx_SetMatrixMixdownFromPce
00000000001c461c g    DF .text	00000000000000a8 _ZN7android8NuPlayer13GenericSource12onReadBufferENS_2spINS_8AMessageEEE
0000000000132354 g    DF .text	0000000000000004 FDKfree_L
000000000022e120 g    DF .text	0000000000000178 _ZN7android19TimedText3GPPSource4readEPlS1_PNS_6ParcelEPKNS_11MediaSource11ReadOptionsE
0000000000242480  w   DF .text	000000000000015c _ZN7android13CodecObserver9onMessageERKNS_11omx_messageE
000000000012f8a0 g    DF .text	000000000000047c sbrDecoder_InitElement
0000000000174cc4 g    DF .text	0000000000000044 res_clear_info
0000000000593b10 g    DO .data	00000000000000a8 _ZTCN7android19BnMediaPlayerClientE0_NS_18IMediaPlayerClientE
00000000002c9de0  w   DF .text	0000000000000004 _ZN7android8EbmlVoidD0Ev
000000000022f1d8  w   DF .text	0000000000000040 _ZNK7android12SortedVectorINS_16key_value_pair_tImNS_2spINS_15TimedTextSourceEEEEEE10do_destroyEPvm
0000000000281d98 g    DF .text	000000000000007c _ZN7android15NuCachedSource221schedulePollBufferingEv
000000000018b6c0  w   DF .text	0000000000000040 _ZN7android11BnInterfaceINS_7IEffectEED1Ev
00000000001bb96c g    DF .text	00000000000005b4 _ZN7android25AMPEG4ElementaryAssembler9addPacketERKNS_2spINS_10ARTPSourceEEE
00000000005858a8  w   DO .data	0000000000000050 _ZTVN7android6VectorINS_22SimpleSoftOMXComponent8PortInfoEEE
0000000000517f70  w   DO .rodata	000000000000002f _ZTSN7android11BpInterfaceINS_15IStreamListenerEEE
00000000002a91ec g    DF .text	0000000000000020 _ZN9mkvparser10EBMLHeaderC1Ev
00000000002d2388 g    DF .text	0000000000000004 _ZN5movie5MuxerD2Ev
00000000002e5a78 g    DF .text	000000000000041c _ZN5movie11DecoderImpl9ConfigureEPNS_9MediaDataE
00000000002b8760 g    DF .text	0000000000000014 _ZN8mkvmuxer8CuePointC1Ev
0000000000278724 g    DF .text	0000000000000040 _ZN7android11MPEG4Writer5pauseEv
0000000000111684 g    DF .text	00000000000000f4 _Z28transportDec_OutOfBandConfigP12TRANSPORTDECPhjj
00000000001f4b34 g    DF .text	000000000000002c _ZN7android15PlaylistFetcher26bufferStartsWithTsSyncByteERKNS_2spINS_7ABufferEEE
0000000000192030  w   DF .text	0000000000000040 _ZN7android11BpInterfaceINS_15IStreamListenerEED1Ev
000000000059c0f8  w   DO .data	0000000000000128 _ZTVN7android15MediaPlayerBaseE
000000000029bf0c g    DF .text	000000000000008c _ZN7android8SfThreadD0Ev
0000000000168794 g    DF .text	0000000000000340 h264bsdInterpolateMidHalf
00000000001969dc g    DF .text	0000000000000074 _ZN7android11MediaPlayer15attachAuxEffectEi
00000000002d76ac g    DF .text	0000000000000008 _ZN5movie11NnMediaDataC1Ev
0000000000269b40 g    DF .text	00000000000000a0 _ZN7android13MPEG2TSWriter10SourceInfo14flushAACFramesEv
0000000000295f9c g    DF .text	00000000000001d0 _ZN7android8OMXCodec5startEPNS_8MetaDataE
000000000019605c g    DF .text	0000000000000084 _ZN7android11MediaPlayer4stopEv
000000000029abd0 g    DF .text	00000000000000cc _ZN7android9SfNvnUtil22SetCPUBufferFromClientEPviii
00000000002bdca8 g    DF .text	00000000000001f4 _ZN8mkvmuxer7Segment15CheckHeaderInfoEv
000000000017f258  w   DF .text	0000000000000004 _ZNK7android12SortedVectorINS_16key_value_pair_tIiPNS_11AudioSystem16OutputDescriptorEEEE10do_destroyEPvm
000000000027e994 g    DF .text	0000000000000058 _ZN7android11MPEG4Writer5Track12writeStssBoxEv
00000000001841a8 g    DF .text	0000000000000060 _ZN7android10AudioTrack16AudioTrackThreadD1Ev
00000000000db018 g    DF .text	0000000000000004 TVMRCaptureDebugGetStatus
000000000023a578 g    DF .text	0000000000000348 _ZN7android6ACodec25setupAVCEncoderParametersERKNS_2spINS_8AMessageEEE
000000000016673c g    DF .text	0000000000000020 h264bsdIsNeighbourAvailable
0000000000594ba8 g    DO .data	0000000000000178 _ZTVN7android4IOMXE
000000000059eb90  w   DO .data	0000000000000028 _ZTIN7android6VectorImEE
000000000020d0c0  w   DF .text	0000000000000014 _ZNK7android12SortedVectorINS_16key_value_pair_tIjP20OMX_BUFFERHEADERTYPEEEE7do_copyEPvPKvm
00000000002e20e8 g    DF .text	0000000000000140 _ZN5movie16NnCodecVideoSink25GetOutputBufferPropertiesEiPNS_9MediaDataE
00000000000167ec g    DF .text	0000000000000150 NVOMX_DeRegisterComponent
0000000000202b64 g    DF .text	0000000000000050 _ZN7android16MPEG2TSExtractor16getTrackMetaDataEmj
000000000029d3d8  w   DF .text	000000000000004c _ZNK7android6VectorINS_11SfMemDealer7MemInfoEE10do_destroyEPvm
00000000002b8380  w   DF .text	0000000000000020 _ZN9mkvparser10BlockGroupD2Ev
000000000018ba98  w   DF .text	0000000000000050 _ZThn8_N7android8BnEffectD0Ev
0000000000276478  w   DF .text	00000000000000dc _ZNK7android6VectorINS_14MPEG4Extractor8PsshInfoEE16do_move_backwardEPvPKvm
00000000000db03c g    DF .text	0000000000000008 TVMRCaptureCreateSingleShotCSI
00000000001c0e30 g    DF .text	0000000000000014 _ZN7android19VideoFrameScheduler7restartEv
000000000018fbdc  w   DF .text	0000000000000040 _ZN7android13BnOMXObserverD1Ev
00000000001e1388 g    DF .text	0000000000000028 _ZN7android7AStringC1ERKNS_7String8E
00000000002da63c g    DF .text	0000000000000060 _ZN5movie7parseSEEPN7android10ABitReaderE
00000000004f8ad8 g    DO .rodata	0000000000000f00 SineWindow960
0000000000221184 g    DF .text	0000000000000a7c dct_chroma
00000000002ce18c g    DF .text	00000000000001b8 _ZN5movie12HLSExtractorD1Ev
000000000024d064 g    DF .text	0000000000000034 _ZN7android13AwesomePlayer5resetEv
000000000059bf90  w   DO .data	0000000000000018 _ZTIN7android20MediaPlayerInterfaceE
0000000000155754 g    DF .text	00000000000000ac PV_VlcDecMCBPC_com_inter
0000000000211d28  w   DF .text	000000000000008c _ZNK7android6VectorINS_14SoftAVCEncoder15InputBufferInfoEE7do_copyEPvPKvm
0000000000285254 g    DF .text	000000000000006c _ZN7android9OggSourceD1Ev
0000000000145f00 g    DF .text	0000000000000024 cmnMemMove
000000000051c510  w   DO .rodata	0000000000000015 _ZTSN7android6VectorImEE
00000000002cb5b0 g    DF .text	0000000000000008 _ZN5movie8nnPlayer19GetOutputBufferSizeEiPi
0000000000183448 g    DF .text	00000000000000a0 _ZN7android15TimedAudioTrack16queueTimedBufferERKNS_2spINS_7IMemoryEEEl
0000000000592658  w   DO .data	0000000000000100 _ZTVN7android16BpMediaCodecListE
00000000000cc9a8 g    DF .text	0000000000000004 TVMRJPEGDecoderSetAttributes
0000000000197c60 g    DF .text	0000000000000070 _ZN7android9SoundPool16addToRestartListEPNS_12SoundChannelE
0000000000139df4 g    DF .text	0000000000000014 ResetBitBuf
000000000017d88c g    DF .text	0000000000000098 _ZN7android11AudioSystem14isStreamActiveE19audio_stream_type_tPbj
0000000000590d90 g    DO .data	0000000000000098 _ZTCN7android13IEffectClientE0_NS_10IInterfaceE
0000000000228858 g    DF .text	0000000000000144 _Z10DPBInitPicP12tagCommonObji
0000000000227064 g    DF .text	000000000000013c _Z26FmoGenerateType5MapUnitMapPiP12tagCommonObjij
00000000002cb5a0 g    DF .text	0000000000000008 _ZN5movie8nnPlayer13DeSelectTrackEi
00000000005a87f8  w   DO .data	0000000000000020 _ZTVN7android4ListIPNS_9PageCache4PageEEE
0000000000212744 g    DF .text	000000000000019c PVAVCCleanUpEncoder
00000000005a6248  w   DO .data	0000000000000010 _ZTIN7android15MediaBufferBaseE
0000000000292438 g    DF .text	000000000000026c _ZN7android8OMXCodec7onEventE13OMX_EVENTTYPEjj
000000000001457c g    DF .text	0000000000000004 NvMMSetUDPPort
00000000002470f8 g    DF .text	000000000000009c _ZN7android18AVCProfileToStringEh
00000000005a3f10 g    DO .data	0000000000000078 _ZTVN7android6ACodec13FlushingStateE
0000000000135f84 g    DF .text	0000000000000028 AacInitDefaultConfig
000000000021dd00 g    DF .text	0000000000000240 AVCEncodeSlice
00000000001c0570  w   DF .text	0000000000000008 _ZN7android8NuPlayer6Source13getFormatMetaEb
00000000002b89e8 g    DF .text	0000000000000010 _ZN8mkvmuxer4CuesC2Ev
0000000000013230 g    DF .text	0000000000000068 NvmmUlpKpiSetIdleEndTime
000000000017e404  w   DF .text	0000000000000008 _ZN7android11BnInterfaceINS_19IAudioFlingerClientEE10onAsBinderEv
00000000001cad4c g    DF .text	000000000000016c _ZN7android8NuPlayer21onClosedCaptionNotifyERKNS_2spINS_8AMessageEEE
0000000000207734 g    DF .text	000000000000008c _ZN7android3OMX18createInputSurfaceEjjPNS_2spINS_22IGraphicBufferProducerEEE
0000000000242c68 g    DF .text	0000000000000034 _ZN7android9CodecBaseC2Ev
000000000029a7e4 g    DF .text	0000000000000008 _ZN7android11SampleTable22setAvailableCacheBytesEj
0000000000521c10 g    DO .rodata	000000000000001a _ZTSN7android13SkipCutBufferE
000000000014d780 g    DF .text	00000000000006ac Deringing_Chroma
00000000002b1018 g    DF .text	0000000000000398 _ZN9mkvparser8Chapters4Atom5ParseEPNS_10IMkvReaderExx
00000000002549f0 g    DF .text	0000000000000008 _ZNK7android4ESDS9InitCheckEv
000000000017ed14  w   DF .text	0000000000000048 _ZTv0_n24_N7android26BnAudioPolicyServiceClientD1Ev
0000000000289898 g    DF .text	00000000000003ac _ZN7android8OMXCodec18findMatchingCodecsEPKcbS2_jPNS_6VectorINS_7String8EEE
000000000018ab78 g    DF .text	0000000000000038 _ZN7android25IAudioPolicyServiceClientD0Ev
00000000000ed68c  w   DF .text	0000000000000014 _ZNK7android6VectorIiE15do_move_forwardEPvPKvm
000000000026be08  w   DF .text	0000000000000018 _ZNK7android6VectorINS_2spINS_13MPEG2TSWriter10SourceInfoEEEE12do_constructEPvm
0000000000239708 g    DF .text	00000000000000e0 _ZN7android6ACodec21selectAudioPortFormatEj20OMX_AUDIO_CODINGTYPE
0000000000165eb0 g    DF .text	000000000000000c h264bsdPredModeIntra16x16
00000000001d445c g    DF .text	0000000000000088 _ZN7android8NuPlayer8Renderer14closeAudioSinkEv
000000000017adb0 g    DF .text	0000000000000070 _ZTv0_n24_N7android11AudioRecord17AudioRecordThreadD0Ev
000000000019506c g    DF .text	0000000000000090 _ZTv0_n32_N7android11MediaPlayerD1Ev
00000000005995e0  w   DO .data	00000000000000a8 _ZTCN7android14BpStreamSourceE8_NS_9BpRefBaseE
000000000029b080 g    DF .text	000000000000011c _ZN7android9SfNvnUtil24BlitToClientNativeBufferEP19ANativeWindowBufferii
00000000002e55e8 g    DF .text	00000000000002cc _ZN5movie11DecoderImplD2Ev
0000000000132458 g    DF .text	0000000000000018 FDKatof
00000000001d8a90 g    DF .text	0000000000000014 _ZNK7android14ColorConverter12BitmapParams10cropHeightEv
000000000022ba40 g    DF .text	0000000000000098 _ZN7android28SoftVideoDecoderOMXComponentC2EPKcS2_20OMX_VIDEO_CODINGTYPEPKNS_17CodecProfileLevelEmiiPK16OMX_CALLBACKTYPEPvPP17OMX_COMPONENTTYPE
00000000001bc5c8 g    DF .text	00000000000000b8 _ZN7android13AAVCAssemblerD2Ev
000000000024db3c g    DF .text	0000000000000170 _ZN7android13AwesomePlayer13setDataSourceEill
00000000002b7284 g    DF .text	00000000000004a0 _ZN9mkvparser7Cluster16CreateBlockGroupExxx
0000000000171120 g    DF .text	00000000000000d8 vorbis_dsp_init
0000000000132450 g    DF .text	0000000000000004 FDKatoi
0000000000256afc g    DF .text	0000000000000060 _ZN7android12MediaAdapter4stopEv
00000000002128f8 g    DF .text	0000000000000008 PVAVCEncIDRRequest
00000000000ed860 g    DF .text	000000000000002c _Z17FreeOverlapBufferPPi
00000000005a8368  w   DO .data	0000000000000050 _ZTVN7android6VectorINS_14MPEG4Extractor8PsshInfoEEE
0000000000132454 g    DF .text	0000000000000004 FDKatol
00000000001e3320 g    DF .text	0000000000000084 _ZN7android9AWakeLockD1Ev
00000000000eaed8 g    DF .text	0000000000000024 _ZN7android8SoftAAC2D0Ev
0000000000500648 g    DO .rodata	0000000000000038 aBookPsIidFreqDecode
00000000002af2d8 g    DF .text	0000000000000028 _ZNK9mkvparser7Segment7GetLastEv
00000000002bb1f0 g    DF .text	0000000000000018 _ZN8mkvmuxer7Cluster4InitEPNS_10IMkvWriterE
00000000001dd784  w   DF .text	0000000000000058 _ZNK7android12SortedVectorINS_16key_value_pair_tIiNS_13ALooperRoster11HandlerInfoEEEE10do_destroyEPvm
00000000005a7e98 g    DO .data	0000000000000090 _ZTVN7android15MPEG4DataSourceE
00000000002c49a8 g    DF .text	0000000000000264 _ZN7android10WebmWriter9addSourceERKNS_2spINS_11MediaSourceEEE
00000000000590e4 g    DF .text	0000000000000358 jpegTegraDecoderRender
00000000002c5c74 g    DF .text	0000000000000040 _ZN7android19WebmFrameSinkThreadC1ERKiRKmNS_2spINS_21WebmFrameSourceThreadEEES7_RNS_4ListINS5_INS_11WebmElementEEEEE
0000000000193190 g    DF .text	00000000000000b4 _ZN7android14MediaCodecInfoC2ENS_7AStringEbPKc
00000000002264d4 g    DF .text	000000000000008c SetEGBitstring
00000000002c5610 g    DF .text	0000000000000028 _ZN7android10WebmWriter10reachedEOSEv
0000000000014dec g    DF .text	0000000000000060 NvMMLiteCloseBlock
0000000000108314 g    DF .text	00000000000006b0 _Z8dit_ifftPiiPK8FIXP_DPKi
000000000018d28c  w   DF .text	0000000000000040 _ZN7android16BnMediaCodecListD1Ev
000000000015b8cc g    DF .text	0000000000000364 h264bsdConceal
0000000000520c20  w   DO .rodata	0000000000000013 _ZTSN7android4ListImEE
0000000000203100  w   DF .text	0000000000000018 _ZNK7android6VectorINS_2spINS_19AnotherPacketSourceEEEE12do_constructEPvm
000000000027eab4 g    DF .text	0000000000000088 _ZN7android11MPEG4Writer5Track12writeStcoBoxEb
0000000000240f3c g    DF .text	000000000000006c _ZN7android6ACodec20ExecutingToIdleStateC2EPS0_
000000000051c770  w   DO .rodata	000000000000002b _ZTSN7android6VectorINS_4ListINS_7AStringEEEEE
00000000001c0590 g    DF .text	0000000000000018 _ZN7android19VideoFrameScheduler3PLLC2Ev
00000000005a00e8 g    DO .data	0000000000000040 _ZTVN7android9M3UParserE
00000000001826e8 g    DF .text	000000000000007c _ZNK7android10AudioTrack17getMarkerPositionEPj
0000000000182414 g    DF .text	0000000000000044 _ZNK7android10AudioTrack19isOffloadedOrDirectEv
000000000018eec4 g    DF .text	0000000000000164 _ZN7android4IOMX11asInterfaceERKNS_2spINS_7IBinderEEE
00000000002cb5d0 g    DF .text	0000000000000058 _ZN11nnAudioSinkC1Ev
00000000001e0d78 g    DF .text	000000000000013c _ZNK7android8AMessage13writeToParcelEPNS_6ParcelE
0000000000268384 g    DF .text	0000000000000030 _ZTv0_n24_N7android9MP3SourceD0Ev
00000000002e3e18 g    DF .text	00000000000000e0 _ZN5movie20NnCodecInputReceiver6SeekToElPl
000000000059fff8  w   DO .data	0000000000000020 _ZTVN7android4ListINS_11LiveSession18BandwidthEstimator14BandwidthEntryEEE
000000000017db0c g    DF .text	0000000000000068 _ZN7android11AudioSystem15setLowRamDeviceEb
00000000002322c0 g    DF .text	000000000000002c _ZN7android9AACSourceD1Ev
0000000000592c80  w   DO .data	00000000000000c0 _ZTCN7android11BpInterfaceINS_15IMediaCodecListEEE0_NS_15IMediaCodecListE
0000000000262930 g    DF .text	000000000000009c _ZN7android16MediaCodecSource4initEv
00000000002495c4  w   DF .text	0000000000000034 _ZN7android6VectorINS_12AVIExtractor5TrackEED2Ev
0000000000198e80 g    DF .text	00000000000000a4 _ZN7android9SoundPool6resumeEi
0000000000205c58  w   DF .text	0000000000000080 _ZN7android4ListINS_11omx_messageEED2Ev
0000000000208c90 g    DF .text	0000000000000124 _ZN7android9OMXMaster9addPluginEPNS_13OMXPluginBaseE
00000000002e90e8 g    DF .text	0000000000000014 _ZN5movie7Decoder21GetOutputBufferFormatEiPNS_9MediaDataE
0000000000598640 g    DO .data	00000000000000c0 _ZTCN7android14BnStreamSourceE0_NS_13IStreamSourceE
0000000000521010  w   DO .rodata	000000000000004d _ZTSN7android12SortedVectorINS_16key_value_pair_tIjNS_8MetaData10typed_dataEEEEE
00000000005acc48 g    DO .data	0000000000000030 _ZTVN7android10WebmBinaryE
00000000001e4e94  w   DF .text	0000000000000008 _ZN7android10DataSource5flagsEv
0000000000176d88 g    DF .text	00000000000001b8 _ZN7android11AudioEffectD1Ev
00000000001789fc  w   DF .text	0000000000000058 _ZNK7android12SortedVectorINS_16key_value_pair_tINS_7String8ES2_EEE8do_splatEPvPKvm
000000000023c738 g    DF .text	00000000000001d8 _ZN7android6ACodec13setParametersERKNS_2spINS_8AMessageEEE
0000000000227854 g    DF .text	0000000000000164 _Z17ReorderRefPicListP12tagCommonObji
0000000000184f78 g    DF .text	00000000000000d4 _ZN7android11ClientProxy13releaseBufferEPNS_5Proxy6BufferE
00000000001e443c g    DF .text	00000000000000a4 _ZNK7android13ParsedMessage13getStatusCodeEPi
000000000018db70 g    DF .text	000000000000012c _ZN7android19IMediaDeathNotifier13DeathNotifier10binderDiedERKNS_2wpINS_7IBinderEEE
000000000019967c g    DF .text	0000000000000078 _ZN7android6SampleC1EiPKc
00000000002b6f38 g    DF .text	0000000000000064 _ZNK9mkvparser7Cluster8GetEntryElRPKNS_10BlockEntryE
00000000001440a0 g    DF .text	00000000000000f0 AutoCorrelation
00000000004ff45c g    DO .rodata	0000000000000012 FDK_sbrDecoder_sbr_whFactorsIndex
0000000000176600 g    DF .text	00000000000004a0 _ZN7android11AudioEffect3setEPK13effect_uuid_sS3_iPFviPvS4_ES4_ii
00000000005a5290 g    DO .data	0000000000000040 _ZTVN7android12AVIExtractor11MP3SplitterE
000000000025ecb8  w   DF .text	000000000000003c _ZN7android6VectorINS_10MediaCodec10BufferInfoEED0Ev
00000000002804f0 g    DF .text	0000000000000054 _ZN7android9PageCacheC2Em
0000000000297bc8  w   DF .text	0000000000000084 _ZN7android16OMXCodecObserverD1Ev
000000000026c94c g    DF .text	00000000000002e4 _ZN7android14MPEG4Extractor12readMetaDataEv
000000000010f1dc g    DF .text	0000000000001480 _Z25AudioSpecificConfig_ParseP21CSAudioSpecificConfigP13FDK_BITSTREAMiP13CSTpCallBacks
00000000002d4984 g    DF .text	0000000000000160 _ZN5movie13NnCodecPlayer25InitializeOutputReceiversEv
0000000000100c88 g    DF .text	0000000000000260 _Z20CJointStereo_ApplyISPP22CAacDecoderChannelInfoPKsPKhiij
0000000000598a90 g    DO .data	0000000000000018 _ZTIN7android15IStreamListenerE
00000000001edda8 g    DF .text	0000000000000008 _ZNK7android9M3UParser8isExtM3UEv
0000000000182810 g    DF .text	000000000000007c _ZNK7android10AudioTrack23getPositionUpdatePeriodEPj
0000000000205608  w   DF .text	000000000000005c _ZNK7android6VectorINS_19GraphicBufferSource11CodecBufferEE12do_constructEPvm
00000000002390ac g    DF .text	0000000000000208 _ZN7android6ACodec13setupAMRCodecEbbi
0000000000521c50  w   DO .rodata	0000000000000030 _ZTSN7android6VectorINS_2spINS_13GraphicBufferEEEEE
0000000000522fa0  w   DO .rodata	0000000000000018 _ZTSN2nn2sf13ISharedObjectE
00000000002b3670 g    DF .text	0000000000000020 _ZN9mkvparser5Track4InfoC2Ev
000000000015306c g    DF .text	0000000000000244 PostProcSemaphore
000000000029a344 g    DF .text	00000000000001ac _ZN7android11SampleTable18findSyncSampleNearEjPjj
00000000001cf034 g    DF .text	00000000000000ec _ZN7android8NuPlayer7Decoder7onFlushEb
00000000001e3440 g    DF .text	0000000000000004 _ZN7android9AWakeLock16PMDeathRecipient10binderDiedERKNS_2wpINS_7IBinderEEE
000000000027d1e4 g    DF .text	00000000000000dc _ZN7android11MPEG4Writer19trackProgressStatusEmli
000000000017d164 g    DF .text	0000000000000080 _ZN7android11AudioSystem10stopOutputEi19audio_stream_type_t15audio_session_t
000000000024f8ec g    DF .text	000000000000008c _ZN7android13AwesomePlayer11getPositionEPl
000000000025f3c4  w   DF .text	0000000000000024 _ZN7android2spINS_14MediaCodecList19BinderDeathObserverEED2Ev
00000000002a054c g    DF .text	0000000000000034 _ZN7android16SystemTimeSourceC2Ev
0000000000518230 g    DO .rodata	0000000000000018 _ZTSN7android11MediaPlayerE
00000000001ec764  w   DF .text	0000000000000088 _ZNK7android6VectorINS_11LiveSession13BandwidthItemEE8do_splatEPvPKvm
0000000000517be0  w   DO .rodata	0000000000000032 _ZTSN7android11BnInterfaceINS_18IMediaPlayerClientEEE
00000000002ab4b0 g    DF .text	00000000000000fc _ZN9mkvparser8Chapters5ParseEv
00000000002c5c74 g    DF .text	0000000000000040 _ZN7android19WebmFrameSinkThreadC2ERKiRKmNS_2spINS_21WebmFrameSourceThreadEEES7_RNS_4ListINS5_INS_11WebmElementEEEEE
000000000059e5d0 g    DO .data	00000000000000e0 _ZTVN7android8NuPlayer6SourceE
00000000001323ac g    DF .text	0000000000000008 FDKmemmove
00000000002095f0  w   DF .text	0000000000000054 _ZNK7android12SortedVectorINS_16key_value_pair_tINS_7String8EPNS_13OMXPluginBaseEEEE7do_copyEPvPKvm
000000000025fae0 g    DF .text	0000000000000030 _ZThn8_N7android14MediaCodecListD1Ev
0000000000145820 g    DF .text	0000000000000138 voAACEnc_Div_32
00000000002eba90 g    DF .text	0000000000000010 _ZNK5movie9MediaData10FindBufferEPKcPPNS_6BufferE
00000000002064d0 g    DF .text	0000000000000084 _ZN7android3OMX8isSecureEj
000000000018b6b8 g    DF .text	0000000000000008 _ZThn8_N7android8BnEffect10onTransactEjRKNS_6ParcelEPS1_j
0000000000244144 g    DF .text	00000000000004e8 _ZN7android11AudioPlayer5startEb
000000000020efa0 g    DF .text	0000000000000390 _ZN7android22SimpleSoftOMXComponent11onPortFlushEjb
0000000000190180  w   DF .text	0000000000000008 _ZN7android5BpOMX17getExtensionIndexEjPKcP13OMX_INDEXTYPE
00000000005a3408  w   DO .data	0000000000000050 _ZTVN7android6VectorINS_15TimedTextDriver14TextSourceTypeEEE
0000000000256974 g    DF .text	000000000000002c _ZN7android12MediaAdapterD1Ev
0000000000286f20  w   DF .text	000000000000008c _ZNK7android6VectorINS_17MyVorbisExtractor8TOCEntryEE7do_copyEPvPKvm
0000000000290558  w   DF .text	0000000000000034 _ZN7android6VectorINS_8OMXCodec10BufferInfoEED2Ev
000000000058d780 g    DO .data	0000000000000070 _ZTTN7android20BnAudioFlingerClientE
0000000000181fc8 g    DF .text	0000000000000034 _ZN7android10AudioTrack16AudioTrackThread5pauseEv
000000000059bc6c g    DO .data	0000000000000004 _ZN7android14kMaxSampleRateE
00000000002d7518  w   DF .text	000000000000013c _ZNSt3__16vectorIN5movie6BufferENS_9allocatorIS2_EEE21__push_back_slow_pathIRKS2_EEvOT_
00000000001961e4 g    DF .text	000000000000005c _ZN7android11MediaPlayer13getVideoWidthEPi
0000000000016358 g    DF .text	0000000000000028 _ZN2nv2mm23SetThreadStackAllocatorEPFPvmmS1_EPFvS1_S1_ES1_
0000000000145e30 g    DF .text	0000000000000040 cmnMemAlloc
00000000002852c0 g    DF .text	0000000000000074 _ZTv0_n24_N7android9OggSourceD1Ev
000000000018f028 g    DF .text	000000000000003c _ZN7android4IOMXC2Ev
000000000059e0b0 g    DO .data	0000000000000048 _ZTVN7android9SDPLoaderE
00000000005a81d0 g    DO .data	0000000000000018 _ZTIN7android14MPEG4ExtractorE
00000000002a48a0 g    DF .text	00000000000000b0 _ZN4webm22serializeCodedUnsignedEmPh
000000000059af50  w   DO .data	0000000000000028 _ZTIN7android6VectorINS_7AStringEEE
00000000000daf9c g    DF .text	0000000000000008 TVMRFlipQueueCreate
000000000050573c g    DO .rodata	0000000000000022 pow2tominusNover16
0000000000177424 g    DF .text	0000000000000064 _ZN7android11AudioEffect20controlStatusChangedEb
00000000001db950 g    DF .text	0000000000000004 _ZN7android10ABitReaderD2Ev
000000000024eaa8 g    DF .text	000000000000002c _ZN7android13AwesomePlayer19postVideoLagEvent_lEv
0000000000226560 g    DF .text	00000000000000a4 se_v
00000000002b325c g    DF .text	000000000000005c _ZN9mkvparser5TrackC1EPNS_7SegmentExx
00000000002de464 g    DF .text	0000000000000040 _ZN5movie16NnCodecAudioSink6ResumeEb
00000000000152b4 g    DF .text	0000000000000068 NvMMLiteUtilDeallocateBuffer
00000000001c0524 g    DF .text	0000000000000034 _ZNK7android8NuPlayer14HTTPLiveSource16getBufferedRangeEPlS2_
00000000002cc100 g    DF .text	0000000000000004 _ZN5movie15PlayerExtractorD0Ev
00000000002d4f74 g    DF .text	0000000000000034 _ZN5movie13NnCodecPlayer5ResetEv
000000000018cbf8  w   DF .text	0000000000000048 _ZTv0_n24_N7android14BpEffectClientD1Ev
000000000018fcfc  w   DF .text	0000000000000048 _ZTv0_n24_N7android13BnOMXObserverD1Ev
000000000059f010 g    DO .data	0000000000000018 _ZTIN7android8NuPlayer8RendererE
000000000023bc28 g    DF .text	00000000000002a0 _ZN7android6ACodec30pushBlankBuffersToNativeWindowEv
00000000002cb734 g    DF .text	0000000000000094 _ZNK11nnAudioSink11getPositionEPj
00000000001fb220 g    DF .text	00000000000000f4 _ZN7android9ATSParser6StreamD2Ev
00000000002bd8c0 g    DF .text	00000000000000ec _ZN8mkvmuxer7Segment13AddAudioTrackEiii
00000000002c2c08 g    DF .text	0000000000000020 _ZN9mkvparser9MkvReaderC1Ev
0000000000000160 g    DF .text	0000000000000034 .protected _fini
0000000000233390 g    DF .text	00000000000000c0 _ZN7android6ACodec16initiateShutdownEb
0000000000586a20 g    DO .data	00000000000000d8 _ZTCN7android10AACEncoderE0_NS_11MediaSourceE
00000000001b9e84 g    DF .text	0000000000000064 _ZN7android20AMPEG4AudioAssembler10packetLostEv
0000000000257384 g    DF .text	0000000000000018 _ZNK7android11MediaBuffer13graphicBufferEv
000000000027ff3c  w   DF .text	0000000000000008 _ZNK7android11MPEG4Writer20getStartTimeOffsetMsEv
0000000000597340  w   DO .data	00000000000000a8 _ZTCN7android11BpInterfaceINS_12IOMXObserverEEE8_NS_9BpRefBaseE
00000000001cb4ac g    DF .text	0000000000000120 _ZN7android8NuPlayer11selectTrackEmbl
00000000001f24f0 g    DF .text	0000000000000144 _ZN7android15PlaylistFetcher19checkDecryptPaddingERKNS_2spINS_7ABufferEEE
00000000001916d8  w   DF .text	0000000000000098 _ZThn8_N7android11BnInterfaceINS_15IStreamListenerEE19queryLocalInterfaceERKNS_8String16E
000000000058dd10 g    DO .data	0000000000000098 _ZTCN7android19IAudioFlingerClientE0_NS_10IInterfaceE
0000000000131f38 g    DF .text	000000000000015c hexString2CharBuf
0000000000154324 g    DF .text	000000000000000c PVGetVideoTimeStamp
0000000000160fc8 g    DF .text	0000000000000020 h264bsdAllocateDpbImage
0000000000179610 g    DF .text	0000000000000024 _ZN7android11AudioRecordD0Ev
00000000001cbf90  w   DF .text	0000000000000008 _ZNK7android8NuPlayer6Source12getTrackInfoEm
00000000005ac998  w   DO .data	0000000000000020 _ZTVN7android4ListINS_2spINS_11WebmElementEEEEE
00000000002e9098 g    DF .text	0000000000000014 _ZN5movie7Decoder23AcquireInputBufferIndexEPiS1_
0000000000190470  w   DF .text	0000000000000008 _ZN7android11BpInterfaceINS_12IOMXObserverEE10onAsBinderEv
0000000000590040  w   DO .data	0000000000000108 _ZTCN7android8BpEffectE0_NS_11BpInterfaceINS_7IEffectEEE
000000000019a0b8  w   DF .text	000000000000005c _ZNK7android12SortedVectorINS_16key_value_pair_tIiNS_2spINS_6SampleEEEEEE7do_copyEPvPKvm
000000000059e360 g    DO .data	0000000000000018 _ZTIN7android8NuPlayer14HTTPLiveSourceE
000000000051c870  w   DO .rodata	0000000000000028 _ZTSN7android6VectorINS_2spINS_6AStateEEEEE
0000000000254d2c g    DF .text	0000000000000094 _ZN7android10FileSourceC1EPKc
000000000024fad4 g    DF .text	00000000000002f0 _ZN7android13AwesomePlayer17notifyVideoSize_lEv
000000000051c530 g    DO .rodata	000000000000001c _ZTSN7android8NuPlayer7DecoderE
0000000000201f68  w   DF .text	0000000000000008 _ZN7android14MediaExtractor15getDrmTrackInfoEmPi
000000000022e6e0 g    DF .text	00000000000000dc _ZN7android15TimedTextDriverD1Ev
0000000000269c20 g    DF .text	0000000000000330 _ZN7android13MPEG2TSWriter10SourceInfo17onMessageReceivedERKNS_2spINS_8AMessageEEE
0000000000132470 g    DF .text	0000000000000004 FDKfopen
00000000005170a0 g    DO .rodata	000000000000002b _ZTSN7android11AudioRecord17AudioRecordThreadE
00000000001c55c8 g    DF .text	000000000000039c _ZN7android8NuPlayer13GenericSource20mediaBufferToABufferEPNS_11MediaBufferENS_16media_track_typeElPl
0000000000293c04 g    DF .text	000000000000018c _ZN7android8OMXCodec21onPortSettingsChangedEj
00000000002b8184 g    DF .text	000000000000000c _ZNK9mkvparser5Block9GetLacingEv
00000000000ec5bc g    DF .text	0000000000000180 _ZN7android8SoftAAC220onPortFlushCompletedEj
000000000059e040 g    DO .data	0000000000000018 _ZTIN7android13AAVCAssemblerE
0000000000256800 g    DF .text	000000000000009c _ZN7android12MediaAdapterC1ERKNS_2spINS_8MetaDataEEE
00000000005178d0  w   DO .rodata	0000000000000026 _ZTSN7android11BnInterfaceINS_7IEffectEEE
00000000002a29d4 g    DF .text	0000000000000058 _ZN7android10VBRISeekerC2Ev
00000000001401a4 g    DF .text	0000000000000500 QuantizeSpectrum
0000000000296620 g    DF .text	000000000000004c _ZN7android8OMXCodec9getFormatEv
00000000005a0018  w   DO .data	0000000000000010 _ZTIN7android4ListINS_11LiveSession18BandwidthEstimator14BandwidthEntryEEE
0000000000014090 g    DF .text	0000000000000070 NvMMUtilAddBufferProfilingEntry
000000000016e934 g    DF .text	0000000000000008 H264SwDecMemset
000000000017b7f0 g    DF .text	0000000000000064 _ZN7android11AudioSystem15getMasterVolumeEPf
00000000005d5860 g    DO .bss	0000000000000008 _ZN7android15IMediaCodecList10descriptorE
00000000001fbd3c g    DF .text	0000000000000080 _ZN7android9ATSParserD0Ev
00000000002eba40 g    DF .text	0000000000000010 _ZN5movie9MediaData9SetStringEPKcS2_
00000000000001fc g    DF .text	0000000000000008 NvAvpGetSyncPointID
0000000000180af8 g    DF .text	0000000000000128 _ZN7android10AudioTrackC2E19audio_stream_type_tj14audio_format_tjm20audio_output_flags_tPFviPvS4_ES4_jiNS0_13transfer_typeEPK20audio_offload_info_tiiPK18audio_attributes_t
00000000000ed918 g    DF .text	0000000000000010 _Z18GetWorkBufferCore1i
00000000001dc274 g    DF .text	0000000000000028 _ZN7android25AHierarchicalStateMachineD2Ev
00000000001cb2e8 g    DF .text	00000000000000b0 _ZNK7android8NuPlayer12getTrackInfoEPNS_6ParcelE
00000000002ed020  w   DF .text	0000000000000034 _ZThn8_N5movie22NULLGraphicBufferAllocD1Ev
0000000000201ec4 g    DF .text	0000000000000010 _ZN7android16MPEG2PSExtractor12WrappedTrack4readEPPNS_11MediaBufferEPKNS_11MediaSource11ReadOptionsE
0000000000587d80  w   DO .data	0000000000000038 _ZTIN7android11AudioEffect12EffectClientE
0000000000191af4  w   DF .text	0000000000000048 _ZThn8_N7android11BpInterfaceINS_13IStreamSourceEED1Ev
000000000029cbf0 g    DF .text	0000000000000014 _ZTv0_n88_NK7android12SfMemoryHeap9getOffsetEv
0000000000517438 g    DO .rodata	0000000000000010 _ZN7android11ClientProxy8kForeverE
00000000001323bc g    DF .text	000000000000000c FDKmemclear
000000000022ed00 g    DF .text	00000000000000a8 _ZN7android15TimedTextDriver22addOutOfBandTextSourceEmPKcS2_
0000000000241e1c g    DF .text	00000000000000ec _ZN7android6ACodec13FlushingState21onOutputBufferDrainedERKNS_2spINS_8AMessageEEE
0000000000191554  w   DF .text	0000000000000050 _ZTv0_n24_N7android14BnStreamSourceD0Ev
00000000001db218  w   DF .text	0000000000000090 _ZN7android4ListINS_7AStringEED0Ev
0000000000253c70 g    DF .text	000000000000007c _ZN7android10DataSource17CreateCacheConfigEPNS_7String8Ei
000000000029db04 g    DF .text	00000000000000a0 _ZN7android13SkipCutBuffer6submitERKNS_2spINS_7ABufferEEE
00000000005a8570 g    DO .data	0000000000000098 _ZTVN7android11MPEG4WriterE
0000000000181288 g    DF .text	0000000000000104 _ZN7android10AudioTrack4stopEv
00000000001902c0  w   DF .text	0000000000000098 _ZN7android4ListINS_7String8EED2Ev
000000000020fadc g    DF .text	0000000000000050 _ZN7android16SoftOMXComponent12setLibHandleEPv
000000000026a2fc g    DF .text	000000000000008c _ZN7android13MPEG2TSWriterC2EPKc
000000000029808c  w   DF .text	0000000000000014 _ZNK7android6VectorIPNS_8OMXCodec17CodecSpecificDataEE16do_move_backwardEPvPKvm
0000000000182c44 g    DF .text	0000000000000058 _ZNK7android10AudioTrack10streamTypeEv
0000000000294dc8 g    DF .text	0000000000000078 _ZN7android8OMXCodec17countBuffersWeOwnERKNS_6VectorINS0_10BufferInfoEEE
00000000001e4eac  w   DF .text	0000000000000004 _ZN7android10DataSource10getDrmInfoERNS_2spINS_13DecryptHandleEEEPPNS_16DrmManagerClientE
00000000002efe98 g    DF .text	00000000000000d0 _ZN2nn4mmnv19CreateRequestByHipcEv
00000000005928c0  w   DO .data	0000000000000038 _ZTIN7android11BpInterfaceINS_15IMediaCodecListEEE
00000000002aef10 g    DF .text	0000000000000014 _ZN9mkvparser8CuePointC1Elx
000000000025626c g    DF .text	0000000000000064 _ZN7android10JPEGSourceD2Ev
000000000019e23c g    DF .text	000000000000008c XML_SetBase
000000000059ec68  w   DO .data	0000000000000020 _ZTVN7android4ListINS_2spINS_8AMessageEEEEE
00000000001e30e8 g    DF .text	000000000000000c _ZN7android12AStringUtils7CompareEPKcS2_mb
000000000024b108  w   DF .text	000000000000008c _ZNK7android6VectorINS_12AVIExtractor5TrackEE8do_splatEPvPKvm
000000000051ccd0 g    DO .rodata	0000000000000018 _ZTSN7android11LiveSessionE
00000000000ed8d4 g    DF .text	0000000000000010 _Z18GetWorkBufferCore2i
00000000002b8e58 g    DF .text	000000000000001c _ZN8mkvmuxer15ContentEncodingC1Ev
00000000002eabac g    DF .text	0000000000000014 _ZN5movie7Encoder4StopEv
00000000000ed62c  w   DF .text	0000000000000060 _ZNK7android6VectorIiE8do_splatEPvPKvm
0000000000265e44 g    DF .text	0000000000000050 _ZN7android8MetaDataC2Ev
0000000000203b70 g    DF .text	000000000000002c _ZN7android19GraphicBufferSourceD1Ev
000000000021f3ec g    DF .text	00000000000001c8 EncodeIntra4x4Mode
0000000000520f00 g    DO .rodata	000000000000001b _ZTSN7android14MediaExtractorE
0000000000586438 g    DO .data	0000000000000100 aQuantTable
00000000005aba30 g    DO .data	0000000000000098 _ZTCN7android15TimedEventQueue16PMDeathRecipientE0_NS_7IBinder14DeathRecipientE
0000000000251194 g    DF .text	0000000000000034 _ZN7android13AwesomePlayer19onPrepareAsyncEventEv
0000000000185e48 g    DF .text	0000000000000008 _ZN7android13IAudioFlingerD2Ev
0000000000192650  w   DF .text	0000000000000064 _ZNK7android6VectorINS_2spINS_7IMemoryEEEE15do_move_forwardEPvPKvm
000000000027f798  w   DF .text	00000000000001e0 _ZN7android11MPEG4Writer5Track16ListTableEntriesIjE3setERKjj
0000000000202dfc  w   DF .text	0000000000000084 _ZN7android13MPEG2TSSourceD0Ev
0000000000214c00 g    DF .text	0000000000000d98 AVCMBMotionSearch
000000000029a980 g    DF .text	00000000000000b8 _ZN7android9SfNvnUtil12CloseGrallocEv
0000000000589770  w   DO .data	0000000000000038 _ZTIN7android11BnInterfaceINS_25IAudioPolicyServiceClientEEE
00000000002b1998 g    DF .text	0000000000000014 _ZN9mkvparser4TagsC2EPNS_7SegmentExxxx
0000000000213c3c g    DF .text	0000000000000034 CleanMotionSearchModule
00000000002d1650 g    DF .text	0000000000000044 _ZN5movie7NnCodec19ReleaseOutputBufferEi
0000000000196a50 g    DF .text	0000000000000028 _ZN7android11MediaPlayer21checkStateForKeySet_lEi
000000000022bca8 g    DF .text	000000000000001c _ZN7android28SoftVideoDecoderOMXComponent18outputBufferHeightEv
00000000002139b0 g    DF .text	000000000000028c InitMotionSearchModule
000000000017ef64  w   DF .text	000000000000004c _ZN7android11AudioSystem24AudioPolicyServiceClientD1Ev
00000000005911a0 g    DO .data	00000000000000b8 _ZTCN7android14BnEffectClientE0_NS_13IEffectClientE
00000000001e3ddc g    DF .text	00000000000002e8 _ZN7android13ParsedMessage5parseEPKcmb
00000000001f9cec g    DF .text	0000000000000048 _ZN7android9ATSParser7Program15parsePSISectionEjPNS_10ABitReaderEPi
00000000002081b0  w   DF .text	0000000000000030 _ZN7android3OMX24CallbackDispatcherThreadD1Ev
00000000002b37e0 g    DF .text	0000000000000008 _ZNK9mkvparser5Track18GetDefaultDurationEv
00000000001822b8 g    DF .text	0000000000000080 _ZN7android10AudioTrack21setAuxEffectSendLevelEf
00000000001c6868 g    DF .text	0000000000000054 _ZN7android8NuPlayer10resetAsyncEv
000000000018a2b4 g    DF .text	000000000000003c _ZTv0_n24_N7android19IAudioFlingerClientD1Ev
000000000051c9a0  w   DO .rodata	0000000000000054 _ZTSN7android12SortedVectorINS_16key_value_pair_tIiNS_13ALooperRoster11HandlerInfoEEEEE
00000000001dc240 g    DF .text	0000000000000018 _ZN7android6AState11parentStateEv
00000000005a9260 g    DO .data	0000000000000018 _ZTIN7android6MuxOMXE
00000000002e12c8 g    DF .text	0000000000000188 _ZN5movie16NnCodecVideoSink24AcquireOutputBufferIndexEiPiPlS1_
00000000002578b8 g    DF .text	00000000000000e4 _ZN7android16MediaBufferGroup14acquire_bufferEPPNS_11MediaBufferEb
00000000002d6308 g    DF .text	000000000000004c _ZN5movie13NnCodecPlayer13GetTrackCountEPi
0000000000000204 g    DF .text	0000000000000008 NvAvpGetClockRate
000000000001f074 g    DF .text	0000000000000050 NVOMX_AddExtensionIndex
000000000017c0bc g    DF .text	0000000000000104 _ZN7android11AudioSystem13getFrameCountEiPm
00000000002d32fc g    DF .text	00000000000001d0 _ZN5movie13NnCodecPlayer12ResetPrivateEb
0000000000113564 g    DF .text	0000000000000080 resetLimiter
0000000000100910 g    DF .text	00000000000001a0 _Z17CJointStereo_ReadP13FDK_BITSTREAMP16CJointStereoDataiij
00000000005a0150 g    DO .data	0000000000000018 _ZTIN7android9M3UParserE
000000000059bcc0 g    DO .data	0000000000000018 _ZTIN7android6SampleE
00000000001602d0 g    DF .text	0000000000000a18 h264bsdMarkDecRefPic
00000000002c5bac g    DF .text	0000000000000020 _ZN7android15WebmFrameThread4wrapEPv
0000000000107c80 g    DF .text	0000000000000694 _Z7dit_fftPiiPK8FIXP_DPKi
000000000059ec88  w   DO .data	0000000000000010 _ZTIN7android4ListINS_2spINS_8AMessageEEEEE
00000000002315ec  w   DF .text	0000000000000004 _ZNK7android12SortedVectorINS_16key_value_pair_tIlNS_18TimedTextSRTSource8TextInfoEEEE10do_destroyEPvm
0000000000109414 g    DF .text	0000000000000050 _Z5f2Powii
000000000059fbb0 g    DO .data	0000000000000020 _ZTTN7android9AWakeLock16PMDeathRecipientE
000000000014b758 g    DF .text	0000000000000074 ConcealPacket
00000000001d7f08 g    DF .text	00000000000000cc _ZN7android8NuPlayer15StreamingSourceD2Ev
0000000000196c34 g    DF .text	000000000000025c _ZN7android11MediaPlayer6notifyEiiiPKNS_6ParcelE
00000000001ddf7c  w   DF .text	0000000000000034 _ZN7android6VectorINS_2spINS_7ALooperEEEED2Ev
0000000000216c60 g    DF .text	00000000000000d4 EncodeHRD
0000000000109744 g    DF .text	000000000000008c _Z10imdct_gainPiS_i
000000000051cf00 g    DO .rodata	0000000000000015 _ZTSN7android9M3UParserE
0000000000209ca8 g    DF .text	0000000000000058 _ZN7android15OMXNodeInstance9setHandleEjPv
000000000025f308 g    DF .text	00000000000000b4 _ZN7android14MediaCodecListC1Ev
00000000002c9d08  w   DF .text	0000000000000028 _ZN7android10WebmBinaryD2Ev
00000000001db818 g    DF .text	000000000000008c _ZNK7android12NALBitReader18atLeastNumBitsLeftEm
000000000058f768 g    DO .data	0000000000000188 _ZTVN7android8BnEffectE
000000000059f1b0  w   DO .data	0000000000000028 _ZTIN7android6VectorINS_4ListINS_7AStringEEEEE
00000000002c30fc g    DF .text	0000000000000010 _ZNK8mkvmuxer9MkvWriter8PositionEv
000000000026c254 g    DF .text	00000000000000bc _ZN7android15MPEG4DataSource6readAtElPvm
0000000000522530 g    DO .rodata	0000000000000027 _ZTSN7android26WebmFrameMediaSourceThreadE
00000000000db164 g    DF .text	0000000000000014 TVMRJPEGEncoderBitsAvailable
0000000000014560 g    DF .text	0000000000000004 NvMMDestroySock
000000000018b750  w   DF .text	000000000000000c _ZNK7android11BnInterfaceINS_7IEffectEE22getInterfaceDescriptorEv
00000000001f1be0 g    DF .text	0000000000000114 _ZN7android15PlaylistFetcherD1Ev
0000000000236f3c g    DF .text	0000000000000048 _ZN7android6ACodec16initNativeWindowEv
0000000000265ce0  w   DF .text	0000000000000030 _ZZN7android14ReferenceMover15move_referencesINS_12MediaAdapterEEEvPNS_2spIT_EEPKS5_mENK7RenamerclEm
0000000000139dbc g    DF .text	0000000000000024 CreateBitBuffer
000000000027f978  w   DF .text	00000000000001f4 _ZNK7android11MPEG4Writer5Track16ListTableEntriesIjE5writeEPS0_
000000000059da00  w   DO .data	0000000000000018 _ZTIN7android18RefBaseStageFrightINS_7RefBaseEEE
00000000002c58c4  w   DF .text	0000000000000008 _ZNK7android10WebmWriter20getStartTimeOffsetMsEv
00000000002eac10 g    DF .text	0000000000000014 _ZN5movie7Encoder15GetOutputFormatEPNS_9MediaDataE
0000000000179f98 g    DF .text	0000000000000054 _ZNK7android11AudioRecord17getMarkerPositionEPj
000000000019bf6c g    DF .text	0000000000000008 _ZNK7android10JitterTool9initCheckEv
00000000005a3630 g    DO .data	0000000000000018 _ZTIN7android18TimedTextSRTSourceE
00000000001cc710 g    DF .text	0000000000000020 _ZNK7android8NuPlayer9CCDecoder10isSelectedEv
000000000059e888  w   DO .data	0000000000000048 _ZTVN7android8NuPlayer12SimpleActionE
00000000001ebd18  w   DF .text	000000000000009c _ZN7android11LiveSession18BandwidthEstimatorD0Ev
00000000002eb970 g    DF .text	0000000000000010 _ZN5movie9MediaData5ClearEv
00000000001f6a5c  w   DF .text	0000000000000060 _ZNK7android12SortedVectorINS_16key_value_pair_tINS_7AStringENS_2spINS_7ABufferEEEEEE7do_copyEPvPKvm
000000000026c1b0 g    DF .text	0000000000000030 _ZN7android15MPEG4DataSource10clearCacheEv
000000000019a9d8 g    DF .text	0000000000000074 _ZN7android11StringArrayD1Ev
00000000002409ec g    DF .text	0000000000000068 _ZN7android6ACodec30OutputPortSettingsChangedStateC2EPS0_
000000000019ec4c g    DF .text	000000000000000c XML_MemMalloc
00000000002d621c g    DF .text	0000000000000060 _ZN5movie13NnCodecPlayer26GetCurrentPlaybackPositionEPl
0000000000013a90 g    DF .text	0000000000000014 NvmmGetOffsetListStatus
000000000059bde0  w   DO .data	0000000000000028 _ZTIN7android6VectorINS_12SoundPoolMsgEEE
00000000002a2b64 g    DF .text	0000000000000064 _ZN7android12WAVExtractorC1ERKNS_2spINS_10DataSourceEEE
000000000017825c g    DF .text	0000000000000070 _ZN7android14AudioParameterD0Ev
000000000019ba78 g    DF .text	0000000000000188 _ZN7android10JitterTool7GetAvgsEPdS1_S1_
000000000025250c  w   DF .text	0000000000000074 _ZNK7android6VectorINS_13AwesomePlayer9TrackStatEE15do_move_forwardEPvPKvm
000000000019b0a8 g    DF .text	0000000000000008 _ZN7android17StagefrightPlayer10playerTypeEv
0000000000588348 g    DO .data	0000000000000008 _ZN7android14AudioParameter14keyScreenStateE
0000000000280364  w   DF .text	000000000000007c _ZN7android4ListINS_11MPEG4Writer5Track11AVCParamSetEED0Ev
0000000000517d00 g    DO .rodata	0000000000000019 _ZTSN7android12IOMXObserverE
00000000002397e8 g    DF .text	0000000000000224 _ZN7android6ACodec22setVideoPortFormatTypeEj20OMX_VIDEO_CODINGTYPE20OMX_COLOR_FORMATTYPEb
0000000000177fdc g    DF .text	0000000000000218 _ZN7android14AudioParameterC1ERKNS_7String8E
000000000025db58 g    DF .text	000000000000020c _ZN7android10MediaCodec19queueCSDInputBufferEm
00000000002dbf34 g    DF .text	0000000000000010 _ZN5movie26NnCodecAudioOutputReceiver24SetOutputBufferAlignmentEPNS_9MediaDataE
0000000000192834 g    DF .text	0000000000000018 _ZNK7android14MediaCodecInfo12Capabilities10getDetailsEv
00000000002b23e4 g    DF .text	0000000000000008 _ZNK9mkvparser11SegmentInfo18GetMuxingAppAsUTF8Ev
00000000005a9e18  w   DO .data	0000000000000050 _ZTVN7android6VectorINS_8OMXCodec10BufferInfoEEE
00000000002e54d0 g    DF .text	0000000000000010 _ZN5movie11DecoderImpl22IsDecoderTypeSupportedENS_11DecoderTypeE
000000000058ea60 g    DO .data	0000000000000098 _ZTCN7android26BnAudioPolicyServiceClientE0_NS_10IInterfaceE
0000000000521d00 g    DO .rodata	000000000000002e _ZTSN7android15TimedEventQueue16PMDeathRecipientE
00000000005a7120 g    DO .data	0000000000000018 _ZTIN7android16MediaCodecSource6PullerE
0000000000518190 g    DO .rodata	0000000000000032 _ZTSN7android22MediaMetadataRetriever13DeathNotifierE
000000000059e100 g    DO .data	0000000000000018 _ZTIN7android9SDPLoaderE
00000000002a5330 g    DF .text	0000000000000028 _ZN7android14MatroskaSource9getFormatEv
0000000000281320 g    DF .text	0000000000000010 _ZNK7android15NuCachedSource29initCheckEv
0000000000151630 g    DF .text	0000000000000728 MBMotionComp
000000000000e628 g    DF .text	00000000000000f0 NvMMBufMgrInit
0000000000132cb0 g    DF .text	0000000000000040 WAV_InputClose
00000000005acdf0 g    DO .data	0000000000000018 _ZTIN7android10WebmStringE
000000000059b960 g    DO .data	0000000000000108 _ZTCN7android11MediaPlayerE8_NS_7IBinderE
000000000020c698 g    DF .text	0000000000000108 _ZN7android15OMXNodeInstance13emptyBuffer_lEP20OMX_BUFFERHEADERTYPEjxl
000000000021016c g    DF .text	0000000000000024 _ZN7android11NVOMXPlugin24destroyComponentInstanceEP17OMX_COMPONENTTYPE
0000000000254898 g    DF .text	0000000000000014 _ZN7android13DataURISource7getSizeEPl
00000000001090fc g    DF .text	0000000000000004 _Z8CalcLog2iiPi
00000000002db160 g    DF .text	0000000000000054 _ZN5movie13NnMediaCommon10InitializeEv
0000000000276c78 g    DF .text	000000000000010c _ZN7android11MPEG4WriterC1EPNS_17MPEG4WriterStreamE
00000000002ada34 g    DF .text	0000000000000018 _ZNK9mkvparser4Cues8GetCountEv
00000000002bba9c g    DF .text	0000000000000018 _ZN8mkvmuxer8SeekHeadC1Ev
000000000051cd60  w   DO .rodata	0000000000000072 _ZTSN7android12SortedVectorINS_16key_value_pair_tINS_11LiveSession10StreamTypeENS_2spINS_19AnotherPacketSourceEEEEEEE
0000000000185c70  w   DF .text	0000000000000008 _ZNK7android27StaticAudioTrackServerProxy17getUnderrunFramesEv
0000000000185834 g    DF .text	00000000000000a8 _ZN7android27StaticAudioTrackServerProxyC1EPNS_18audio_track_cblk_tEPvmm
0000000000199120 g    DF .text	00000000000000ac _ZN7android9SoundPool9setVolumeEiff
00000000005857b0 g    DO .data	00000000000000e0 _ZTVN7android8SoftAAC2E
00000000001460a0 g    DF .text	00000000000000d0 _ZN7android9SoftMPEG4D2Ev
000000000051c010 g    DO .rodata	0000000000000015 _ZTSN7android9SDPLoaderE
00000000002a83fc g    DF .text	0000000000000004 _ZN9mkvparser10IMkvReaderD2Ev
00000000002acf3c g    DF .text	000000000000001c _ZN9mkvparser8SeekHeadC1EPNS_7SegmentExxxx
00000000005ad910 g    DO .data	00000000000000d8 _ZTVN5movie5CodecE
000000000026bcb8  w   DF .text	0000000000000008 _ZN7android11MediaWriter18setMaxFileDurationEl
00000000002837fc g    DF .text	00000000000000d0 _ZNK7android16NuMediaExtractor14getTrackFormatEmPNS_2spINS_8AMessageEEE
0000000000197fa0 g    DF .text	000000000000010c _ZN7android12SoundChannel9nextEventEv
00000000002766fc  w   DF .text	00000000000000dc _ZNK7android6VectorINS_4TrexEE15do_move_forwardEPvPKvm
0000000000265d70 g    DF .text	0000000000000030 _ZTv0_n24_N7android11MediaSourceD0Ev
0000000000242980  w   DF .text	0000000000000078 _ZNK7android6VectorINS_6ACodec10BufferInfoEE7do_copyEPvPKvm
00000000002dec0c g    DF .text	000000000000012c _ZN5movie16NnCodecAudioSink48GetOutputBufferFromCodecAndConvertToClientFormatEiPNS_6BufferEPm
00000000005a7428 g    DO .data	0000000000000008 _ZN7android28MEDIA_MIMETYPE_CONTAINER_OGGE
00000000002ad9bc g    DF .text	0000000000000078 _ZN9mkvparser4CuesD1Ev
00000000002db97c  w   DF .text	000000000000004c _ZN7android17AHandlerReflectorIN5movie26NnCodecVideoOutputReceiverEED0Ev
00000000000f8358 g    DF .text	00000000000005fc aacDecoder_DecodeFrame
000000000023b798 g    DF .text	000000000000008c _ZN7android6ACodec19describeColorFormatERKNS_2spINS_4IOMXEEEjRNS_25DescribeColorFormatParamsE
000000000028545c g    DF .text	0000000000000024 _ZN7android9OggSource5startEPNS_8MetaDataE
00000000004f34a8 g    DO .rodata	0000000000000020 FDKaacDec_tnsCoeff3
00000000004f34c8 g    DO .rodata	0000000000000040 FDKaacDec_tnsCoeff4
0000000000100fe4 g    DF .text	00000000000001c8 FDK_get32
00000000002bb208 g    DF .text	00000000000000cc _ZN8mkvmuxer7Cluster8AddFrameEPKhyyyb
00000000005172b0  w   DO .rodata	0000000000000031 _ZTSN7android6VectorINS_23AttributeMatchCriterionEEE
000000000019116c  w   DF .text	0000000000000008 _ZN7android11BnInterfaceINS_13IStreamSourceEE10onAsBinderEv
00000000001fca54 g    DF .text	0000000000000148 _ZN7android9ATSParser10PSISection6appendEPKvm
00000000002cae74 g    DF .text	000000000000000c _ZN5movie8nnPlayer11SetObserverEPNS_14PlayerObserverE
000000000023e2f0 g    DF .text	0000000000000194 _ZN7android6ACodec18UninitializedState17onMessageReceivedERKNS_2spINS_8AMessageEEE
0000000000255844  w   DF .text	000000000000009c _ZN7android8HTTPBaseD0Ev
000000000058e640 g    DO .data	0000000000000170 _ZTVN7android26BnAudioPolicyServiceClientE
0000000000217e24 g    DF .text	0000000000000008 GetAvgFrameQP
0000000000193678 g    DF .text	0000000000000050 _ZN7android14MediaCodecInfo9addDetailERKNS_7AStringES3_
000000000019afa8 g    DF .text	0000000000000008 _ZN7android17StagefrightPlayer9isPlayingEv
000000000018cb60  w   DF .text	0000000000000048 _ZThn8_N7android14BpEffectClientD1Ev
000000000026c4fc g    DF .text	0000000000000280 _ZN7android14MPEG4ExtractorD1Ev
00000000005222d9 g    DO .rodata	0000000000000006 _ZN8mkvmuxer6Tracks11kVp8CodecIdE
0000000000194124  w   DF .text	000000000000009c _ZNK7android12SortedVectorINS_16key_value_pair_tINS_7AStringENS_2spINS_14MediaCodecInfo12CapabilitiesEEEEEE15do_move_forwardEPvPKvm
0000000000193df4  w   DF .text	0000000000000038 _ZNK7android6VectorINS_7AStringEE10do_destroyEPvm
00000000002ed788 g    DF .text	0000000000000078 _ZN5movie15NnCodecConsumer12setParameterEiiii
00000000004ec7a0  w   DO .rodata	000000000000003b _ZTSN7android4ListIPNS_22SimpleSoftOMXComponent10BufferInfoEEE
000000000013930c g    DF .text	0000000000000058 codeScalefactorDelta
0000000000135f2c g    DF .text	0000000000000058 voGetAACEncAPI
00000000002e4670  w   DF .text	0000000000000100 _ZNSt3__16vectorIN5movie20NnCodecInputReceiver15InputBufferDataENS_9allocatorIS3_EEE21__push_back_slow_pathIRKS3_EEvOT_
00000000002efda4 g    DF .text	00000000000000d0 _ZN2nn4mmnv7RequestD1Ev
00000000001813b0 g    DF .text	0000000000000094 _ZN7android10AudioTrack16AudioTrackThreadC1ERS0_b
0000000000101508 g    DF .text	0000000000000038 FDK_pushBack
000000000019aabc g    DF .text	00000000000000e8 _ZN7android11StringArray9push_backEPKc
000000000059fe78  w   DO .data	0000000000000058 _ZTVN7android12SortedVectorINS_16key_value_pair_tImlEEEE
000000000025fbf8 g    DF .text	0000000000000004 _ZN7android14MediaCodecList26StartElementHandlerWrapperEPvPKcPS3_
0000000000058cc4 g    DF .text	0000000000000038 jpegTegraDecoderComplianceCheck
000000000017e0ac g    DF .text	0000000000000060 _ZN7android11AudioSystem13getPhoneStateEv
00000000002cc0ac g    DF .text	0000000000000028 _ZN5movie15PlayerExtractor7DestroyEPS0_
0000000000262d28 g    DF .text	00000000000000c4 _ZN7android16MediaCodecSource4readEPPNS_11MediaBufferEPKNS_11MediaSource11ReadOptionsE
00000000001cbe08 g    DF .text	000000000000006c _ZN7android8NuPlayer6Source22notifyVideoSizeChangedERKNS_2spINS_8AMessageEEE
00000000005017b8 g    DO .rodata	0000000000000004 FDKSEEK_END
00000000001fcf08 g    DF .text	000000000000007c _ZN7android9ATSParser9getSourceENS0_10SourceTypeE
0000000000203118  w   DF .text	000000000000004c _ZNK7android6VectorINS_2spINS_19AnotherPacketSourceEEEE10do_destroyEPvm
00000000001fb428 g    DF .text	00000000000004c0 _ZN7android9ATSParser6Stream8parsePESEPNS_10ABitReaderE
000000000022b2cc g    DF .text	00000000000000b0 _Z18predict_nnz_chromaP12tagCommonObjii
00000000002435ec g    DF .text	0000000000000074 _ZN7android9AMRSourceD2Ev
0000000000279940 g    DF .text	00000000000000d8 _ZN7android11MPEG4Writer14writeLongitudeEi
000000000018e5fc  w   DF .text	0000000000000098 _ZN7android11BnInterfaceINS_18IMediaPlayerClientEE19queryLocalInterfaceERKNS_8String16E
00000000001d33a4 g    DF .text	0000000000000190 _ZN7android8NuPlayer8RendererC1ERKNS_2spINS_15MediaPlayerBase9AudioSinkEEERKNS2_INS_8AMessageEEEj
0000000000249560 g    DF .text	0000000000000064 _ZN7android12AVIExtractorD1Ev
00000000001b5598 g    DF .text	0000000000000088 _ZN7android14ARTPConnection8parseBYEEPNS0_10StreamInfoEPKhm
000000000059dc70 g    DO .data	0000000000000018 _ZTIN7android13APacketSourceE
00000000005d6278 g    DO .bss	0000000000000008 _ZN7android9WebmFrame3EOSE
0000000000202f04  w   DF .text	000000000000008c _ZTv0_n24_N7android13MPEG2TSSourceD0Ev
000000000029d614 g    DF .text	0000000000000080 _ZN7android13SkipCutBufferC2Eii
00000000002d841c g    DF .text	00000000000000c8 _ZNK5movie11NnMediaData10FindBufferEPKcPPNS_6BufferE
0000000000010630 g    DF .text	00000000000000b8 NvMMSetReference
000000000018d6b8  w   DF .text	0000000000000048 _ZThn8_N7android16BpMediaCodecListD1Ev
00000000001cb5e4 g    DF .text	00000000000000b4 _ZN7android8NuPlayer19performDecoderFlushENS0_12FlushCommandES1_
0000000000201c84 g    DF .text	000000000000007c _ZN7android16MPEG2PSExtractor12WrappedTrackD1Ev
000000000001135c g    DF .text	00000000000000a0 NvMMQueuePeekEntry
000000000015ab40 g    DF .text	0000000000000024 _ZN7android7SoftAVC7onResetEv
0000000000194838 g    DF .text	0000000000000054 _ZN7android22MediaMetadataRetriever13DeathNotifier10binderDiedERKNS_2wpINS_7IBinderEEE
00000000002448f0 g    DF .text	000000000000001c _ZN7android11AudioPlayer23setPlaybackRatePermilleEi
00000000001b3e44  w   DF .text	0000000000000034 _ZN7android8NuPlayer22NuPlayerStreamListenerD0Ev
00000000001c2da4 g    DF .text	0000000000000008 _ZN7android8NuPlayer13GenericSource14feedMoreTSDataEv
00000000002b4d48 g    DF .text	000000000000030c _ZN9mkvparser10AudioTrack5ParseEPNS_7SegmentERKNS_5Track4InfoExxRPS0_
00000000002a7154 g    DF .text	00000000000000bc _ZN7android17MatroskaExtractorD2Ev
0000000000178ac4 g    DF .text	0000000000000018 _ZN7android23AttributeMatchCriterionC1E13audio_usage_t14audio_source_tj
00000000005971f0  w   DO .data	00000000000000a8 _ZTCN7android11BpInterfaceINS_12IOMXObserverEEE0_NS_12IOMXObserverE
0000000000258784 g    DF .text	0000000000000088 _ZN7android10MediaCodec18PostReplyWithErrorEii
00000000001ef7b8 g    DF .text	0000000000000008 _ZN7android9M3UParser24getOrigPlaylistSizeBytesEv
00000000002ae9f0 g    DF .text	0000000000000064 _ZNK9mkvparser4Cues7GetNextEPKNS_8CuePointE
00000000001cf120 g    DF .text	00000000000001e0 _ZN7android8NuPlayer7Decoder10onShutdownEb
00000000002a41e0 g    DF .text	0000000000000018 _ZN7android12WVMExtractor8setErrorEi
0000000000175b20 g    DF .text	000000000000001c vorbis_info_blocksize
000000000024d4e8 g    DF .text	0000000000000054 _ZN7android13AwesomePlayer13setDataSourceERKNS_2spINS_17IMediaHTTPServiceEEEPKcPKNS_11KeyedVectorINS_7String8ES9_EE
00000000001312b0 g    DF .text	00000000000000c0 sbrDecoder_Close
00000000001556a8 g    DF .text	00000000000000ac PV_VlcDecMCBPC_com_intra
0000000000167950 g    DF .text	0000000000000270 h264bsdInterpolateVerHalf
00000000005a9400 g    DO .data	0000000000000020 _ZTTN7android8OMXCodecE
00000000002a5170 g    DF .text	0000000000000034 _ZN7android14MatroskaSourceD0Ev
0000000000248198 g    DF .text	0000000000000088 _ZN7android12AVIExtractor9AVISourceC2ERKNS_2spIS0_EEm
0000000000262124 g    DF .text	0000000000000050 _ZN7android16MediaCodecSource6Puller4stopEv
000000000013d6a4 g    DF .text	0000000000000238 InitPsyConfigurationLong
0000000000195520 g    DF .text	0000000000000198 _ZN7android11MediaPlayer13setDataSourceERKNS_2spINS_17IMediaHTTPServiceEEEPKcPKNS_11KeyedVectorINS_7String8ES9_EE
00000000001bdcd8 g    DF .text	0000000000000074 _ZN7android19ASessionDescriptionC1Ev
000000000025522c g    DF .text	0000000000000070 _ZN7android18InMemoryFileSourceC1EPKvm
0000000000146cb0  w   DF .text	000000000000003c _ZN7android12SortedVectorINS_16key_value_pair_tIixEEED0Ev
0000000000175b78 g    DF .text	000000000000016c vorbis_info_clear
0000000000101794 g    DF .text	0000000000000250 FDK_Copy
0000000000208b44  w   DF .text	0000000000000048 _ZNK7android6VectorINS_7String8EE8do_splatEPvPKvm
000000000023efb8 g    DF .text	0000000000000164 _ZN7android6ACodec11LoadedState10onShutdownEb
000000000029d424  w   DF .text	0000000000000068 _ZNK7android6VectorINS_11SfMemDealer7MemInfoEE7do_copyEPvPKvm
000000000024e618 g    DF .text	0000000000000210 _ZN7android13AwesomePlayer20finishAsyncPrepare_lEv
0000000000199354 g    DF .text	0000000000000074 _ZN7android12SoundChannel7setLoopEi
00000000002c678c g    DF .text	0000000000000354 _ZN7android19WebmFrameSinkThread3runEv
00000000005935b0  w   DO .data	0000000000000028 _ZTIN7android12SortedVectorINS_2wpINS_19IMediaDeathNotifierEEEEE
000000000029e540 g    DF .text	000000000000003c _ZThn16_N7android18SurfaceMediaSourceD0Ev
00000000002ee1d8  w   DF .text	0000000000000050 _ZTv0_n24_N7android20BnGraphicBufferAllocD0Ev
0000000000235438 g    DF .text	00000000000015d4 _ZN7android6ACodec14configureCodecEPKcRKNS_2spINS_8AMessageEEE
0000000000298138  w   DF .text	000000000000004c _ZNK7android6VectorINS_8OMXCodec10BufferInfoEE10do_destroyEPvm
00000000002c9ddc g    DF .text	0000000000000004 _ZN7android11WebmElementD1Ev
00000000002b5c1c g    DF .text	0000000000000024 _ZNK9mkvparser6Tracks15GetTrackByIndexEm
000000000027f638  w   DF .text	0000000000000160 _ZNK7android11MPEG4Writer5Track16ListTableEntriesIjE3getERjj
0000000000144190 g    DF .text	0000000000000074 ApplyTnsMultTableToRatios
00000000005872c0  w   DO .data	0000000000000028 _ZTIN7android12SortedVectorINS_16key_value_pair_tIiP20OMX_BUFFERHEADERTYPEEEEE
000000000017fd7c g    DF .text	0000000000000078 memcpy_to_float_from_q4_27
00000000002e4824 g    DF .text	0000000000000038 _ZN5movie23BrowserPlayerDataSourceC2EPNS_10DataSourceE
00000000001334b0 g    DF .text	0000000000000210 _ZN7android10AACEncoder26setAudioSpecificConfigDataEv
000000000017bae0 g    DF .text	0000000000000078 _ZN7android11AudioSystem7setModeE12audio_mode_t
000000000028c2fc g    DF .text	0000000000000c04 _ZN7android8OMXCodec19setVideoInputFormatEPKcRKNS_2spINS_8MetaDataEEE
000000000017f134  w   DF .text	0000000000000054 _ZTv0_n24_N7android11AudioSystem24AudioPolicyServiceClientD1Ev
00000000002730bc  w   DF .text	0000000000000034 _ZN7android6VectorINS_11MPEG4Source6SampleEED2Ev
00000000001de5a0  w   DF .text	0000000000000040 _ZNK7android6VectorINS_2spINS_7ALooperEEEE10do_destroyEPvm
0000000000261898  w   DF .text	0000000000000064 _ZNK7android6VectorINS_14MediaCodecList7SectionEE7do_copyEPvPKvm
0000000000105020 g    DF .text	0000000000000330 _Z6dst_IVPiiS_
00000000002e90ac g    DF .text	0000000000000014 _ZN5movie7Decoder14GetInputBufferEiPNS_6BufferE
00000000000eaefc g    DF .text	0000000000000150 _ZN7android8SoftAAC220internalGetParameterE13OMX_INDEXTYPEPv
0000000000013034 g    DF .text	000000000000012c NvmmUlpKpiSetReadEndTime
000000000022f7bc g    DF .text	0000000000000040 _ZN7android15TimedTextPlayer6resumeEv
0000000000266bc4 g    DF .text	0000000000000040 _ZN7android8MetaData10typed_dataD2Ev
00000000000ea6f8 g    DF .text	000000000000021c _ZN19CDrcPresModeWrapper6updateEv
0000000000139e24 g    DF .text	0000000000000088 WriteBits
0000000000593798 g    DO .data	0000000000000168 _ZTVN7android19BnMediaPlayerClientE
00000000002d8028 g    DF .text	00000000000000cc _ZNK5movie11NnMediaData10FindDoubleEPKcPd
000000000018990c  w   DF .text	0000000000000074 _ZN7android14BpAudioFlinger28getPrimaryOutputSamplingRateEv
00000000001e44e0 g    DF .text	0000000000000158 _ZNK7android13ParsedMessage11debugStringEv
00000000001ebe28  w   DF .text	0000000000000004 _ZNK7android12SortedVectorINS_16key_value_pair_tImlEEE10do_destroyEPvm
000000000025a730 g    DF .text	0000000000000354 _ZN7android10MediaCodec25handleDequeueOutputBufferEjb
000000000017e748  w   DF .text	0000000000000050 _ZThn8_N7android11BnInterfaceINS_19IAudioFlingerClientEED0Ev
0000000000197324 g    DF .text	0000000000000014 _ZN7android18MediaScannerClientD2Ev
00000000002b9e50 g    DF .text	000000000000006c _ZN8mkvmuxer10AudioTrackC2EPj
000000000059a520  w   DO .data	0000000000000118 _ZTCN7android11BnInterfaceINS_13IStreamSourceEEE8_NS_7BBinderE
00000000001e4848 g    DF .text	00000000000000c8 _ZN7android14LiveDataSourceD1Ev
0000000000209694  w   DF .text	0000000000000014 _ZNK7android12SortedVectorINS_16key_value_pair_tINS_7String8EPNS_13OMXPluginBaseEEEE15do_move_forwardEPvPKvm
000000000051e2a0 g    DO .rodata	000000000000001b _ZTSN7android14SoftAVCEncoderE
00000000005a7890 g    DO .data	00000000000000d8 _ZTVN7android9MP3SourceE
00000000002b4ad4 g    DF .text	00000000000001bc _ZNK9mkvparser10VideoTrack4SeekExRPKNS_10BlockEntryE
0000000000256354 g    DF .text	000000000000008c _ZTv0_n24_N7android10JPEGSourceD1Ev
000000000020e28c g    DF .text	0000000000000204 _ZN7android22SimpleSoftOMXComponent10freeBufferEjP20OMX_BUFFERHEADERTYPE
00000000001fdbb0  w   DF .text	0000000000000054 _ZNK7android6VectorINS_2spINS_9ATSParser7ProgramEEEE7do_copyEPvPKvm
00000000002bd454 g    DF .text	00000000000000c4 _ZNK8mkvmuxer7Segment15UpdateChunkNameEPKcPPc
00000000001d1d34 g    DF .text	0000000000000024 _ZN7android14NuPlayerDriverD0Ev
0000000000261e78 g    DF .text	0000000000000084 _ZN7android16MediaCodecSource6PullerD2Ev
00000000001c3118 g    DF .text	0000000000000084 _ZN7android8NuPlayer13GenericSource25startBufferingIfNecessaryEv
00000000002b32b8 g    DF .text	0000000000000070 _ZN9mkvparser5Track4Info5ClearEv
00000000002d5598 g    DF .text	000000000000008c _ZN5movie18VideoCodecCallback7OnErrorEPNS_5CodecENS_6StatusE
0000000000217a88 g    DF .text	0000000000000100 AVCBitstreamSaveWord
00000000002dbd9c g    DF .text	0000000000000030 _ZN5movie26NnCodecAudioOutputReceiver5StartEv
00000000000dafcc g    DF .text	0000000000000004 TVMRCaptureDestroy
0000000000139e1c g    DF .text	0000000000000008 GetBitsAvail
00000000001903e8  w   DF .text	0000000000000040 _ZN7android11BpInterfaceINS_12IOMXObserverEED1Ev
000000000028a3a4 g    DF .text	00000000000002a4 _ZN7android8OMXCodecC1ERKNS_2spINS_4IOMXEEEjjjbPKcS7_RKNS1_INS_11MediaSourceEEERKNS1_I13ANativeWindowEE
000000000023f560 g    DF .text	00000000000000c0 _ZN7android6ACodec17LoadedToIdleState12stateEnteredEv
0000000000231878  w   DF .text	0000000000000020 _ZNK7android12SortedVectorINS_16key_value_pair_tIlNS_18TimedTextSRTSource8TextInfoEEEE10do_compareEPKvS7_
00000000002b13f0 g    DF .text	0000000000000004 _ZN9mkvparser8Chapters4AtomD1Ev
00000000002af240 g    DF .text	0000000000000074 _ZNK9mkvparser7Segment11DoneParsingEv
0000000000176aa0 g    DF .text	000000000000020c _ZN7android11AudioEffectC1EPKcS2_iPFviPvS3_ES3_ii
0000000000211ce0  w   DF .text	0000000000000004 _ZN7android19MediaBufferObserverD0Ev
000000000059bfc8  w   DO .data	0000000000000130 _ZTVN7android20MediaPlayerInterfaceE
00000000001fd6b0  w   DF .text	000000000000005c _ZNK7android12SortedVectorINS_16key_value_pair_tIjNS_2spINS_9ATSParser6StreamEEEEEE12do_constructEPvm
00000000001fffc4 g    DF .text	0000000000000080 _ZN7android21ElementaryStreamQueue14fetchTimestampEm
0000000000151024 g    DF .text	0000000000000004 idctrow0_intra
000000000018b0a4  w   DF .text	0000000000000048 _ZTv0_n24_N7android26BpAudioPolicyServiceClientD1Ev
000000000018eaf8  w   DF .text	0000000000000050 _ZThn8_N7android11BpInterfaceINS_18IMediaPlayerClientEED0Ev
000000000059e250  w   DO .data	0000000000000028 _ZTIN7android6VectorINS_11KeyedVectorINS_7AStringES2_EEEE
000000000029f6bc  w   DF .text	0000000000000010 _ZN7android15ThrottledSource10getDrmInfoERNS_2spINS_13DecryptHandleEEEPPNS_16DrmManagerClientE
0000000000521b50 g    DO .rodata	0000000000000014 _ZTSN7android8SfThreadE
0000000000185bb4  w   DF .text	0000000000000024 _ZN7android27StaticAudioTrackClientProxyD0Ev
000000000024d3b0 g    DF .text	0000000000000004 _ZN7android13AwesomePlayer17onMessageReceivedERKNS_2spINS_8AMessageEEE
00000000002e2718 g    DF .text	0000000000000304 _ZN5movie20NnCodecInputReceiverC1Ev
00000000005006b8 g    DO .rodata	0000000000000078 aBookPsIidFineTimeDecode
00000000002720b8 g    DF .text	00000000000001b4 _ZN7android14MPEG4Extractor8getTrackEm
000000000029ce08 g    DF .text	00000000000000b0 _ZN7android11SfMemDealerD0Ev
00000000001ca348 g    DF .text	0000000000000170 _ZN7android8NuPlayer12performResetEv
000000000018f62c  w   DF .text	0000000000000050 _ZThn8_N7android11BnInterfaceINS_4IOMXEED0Ev
00000000002cb7e8 g    DF .text	0000000000000078 _ZN11nnAudioSink4openEjij14audio_format_tiPFmPN7android15MediaPlayerBase9AudioSinkEPvmS5_NS3_10cb_event_tEES5_20audio_output_flags_tPK20audio_offload_info_t
00000000000cddb8 g    DF .text	0000000000000020 TVMROutputSurfaceCreate
000000000059b590 g    DO .data	0000000000000160 _ZTCN7android11MediaPlayerE0_NS_11BnInterfaceINS_18IMediaPlayerClientEEE
000000000011d018 g    DF .text	00000000000005f0 _Z17calcNrgPerSubbandPPiS0_iiiiaS_Pa
0000000000132474 g    DF .text	0000000000000004 FDKfclose
00000000001d8a7c g    DF .text	0000000000000014 _ZNK7android14ColorConverter12BitmapParams9cropWidthEv
00000000001d75ec g    DF .text	00000000000000b4 _ZN7android8NuPlayer8Renderer9notifyEOSEbil
0000000000190160  w   DF .text	0000000000000008 _ZN7android5BpOMX24allocateBufferWithBackupEjjRKNS_2spINS_7IMemoryEEEPj
00000000002ca388 g    DF .text	0000000000000014 _ZN5movie6PlayerC2Ev
0000000000189064  w   DF .text	000000000000008c _ZN7android14BpAudioFlinger14setVoiceVolumeEf
0000000000261d48 g    DF .text	0000000000000130 _ZN7android16MediaCodecSource6PullerC2ERKNS_2spINS_11MediaSourceEEE
00000000002875ac g    DF .text	0000000000000010 _ZNK7android10SoftVorbis12isConfiguredEv
00000000000eb05c g    DF .text	0000000000000220 _ZN7android8SoftAAC220internalSetParameterE13OMX_INDEXTYPEPv
00000000000faa38 g    DF .text	000000000000041c _Z7IcsReadP13FDK_BITSTREAMP8CIcsInfoPK16SamplingRateInfoj
000000000022c458 g    DF .text	0000000000000144 _ZN7android28SoftVideoDecoderOMXComponent21onPortEnableCompletedEjb
00000000005af1f0  w   DO .data	0000000000000098 _ZTCN7android11BnInterfaceINS_19IGraphicBufferAllocEEE0_NS_10IInterfaceE
00000000002573b4 g    DF .text	000000000000002c _ZN7android11MediaBuffer5resetEv
000000000014e7f8 g    DF .text	00000000000000f8 FindMaxMin
000000000019b1f0 g    DF .text	0000000000000008 _ZNK7android17StagefrightPlayer4dumpEiRKNS_6VectorINS_8String16EEE
00000000001b4318 g    DF .text	0000000000000140 _ZN7android14ARTPConnection9addStreamEiiRKNS_2spINS_19ASessionDescriptionEEEmRKNS1_INS_8AMessageEEEb
0000000000208744  w   DF .text	000000000000004c _ZNK7android12SortedVectorINS_16key_value_pair_tINS_2wpINS_7IBinderEEEPNS_15OMXNodeInstanceEEEE12do_constructEPvm
00000000002e87c4  w   DF .text	00000000000002e0 _ZNK5movie6detail16TelemetryTrackerINS0_9SetAlwaysENS0_11ErrReporterEE20ConvertToErrorReportEv
00000000000db1bc g    DF .text	0000000000000008 TVMRVideoMEGetDataAvailable
0000000000594520  w   DO .data	0000000000000098 _ZTCN7android11BpInterfaceINS_18IMediaPlayerClientEEE0_NS_10IInterfaceE
0000000000266280 g    DF .text	0000000000000038 _ZN7android8MetaData7setRectEjiiii
00000000002cb588 g    DF .text	0000000000000008 _ZN5movie8nnPlayer12GetTrackInfoEiPNS_9TrackInfoE
00000000001df178 g    DF .text	000000000000002c _ZN7android8AMessage10setPointerEPKcPv
0000000000202174  w   DF .text	000000000000004c _ZNK7android12SortedVectorINS_16key_value_pair_tIjNS_2spINS_16MPEG2PSExtractor5TrackEEEEEE10do_destroyEPvm
000000000025fed0 g    DF .text	000000000000018c _ZN7android14MediaCodecList17endElementHandlerEPKc
00000000001021b8 g    DF .text	0000000000000014 _Z21FDKhybridAnalysisOpenP18FDK_ANA_HYB_FILTERPijS1_j
00000000005171a0  w   DO .rodata	0000000000000039 _ZTSN7android11BnInterfaceINS_25IAudioPolicyServiceClientEEE
00000000002e60a4 g    DF .text	0000000000000058 _ZN5movie11DecoderImpl4StopEv
00000000002086d4  w   DF .text	0000000000000034 _ZN7android12SortedVectorINS_16key_value_pair_tINS_2wpINS_7IBinderEEEPNS_15OMXNodeInstanceEEEED2Ev
0000000000231f7c g    DF .text	0000000000000010 _ZN7android12AACExtractor11countTracksEv
00000000001cbcd4 g    DF .text	00000000000000c8 _ZN7android8NuPlayer6Source9getFormatEb
0000000000505be8 g    DO .rodata	0000000000000030 sfBandTabLongOffset
000000000029c6bc g    DF .text	0000000000000070 _ZN7android12SfMemoryHeapC2Em
000000000018dc9c g    DF .text	00000000000000ec _ZN7android19IMediaDeathNotifier13DeathNotifierD2Ev
00000000001f1420  w   DF .text	000000000000005c _ZNK7android12SortedVectorINS_16key_value_pair_tINS_7AStringENS_2spINS_9M3UParser10MediaGroupEEEEEE8do_splatEPvPKvm
000000000051bea0 g    DO .rodata	000000000000001b _ZTSN7android14AH263AssemblerE
0000000000249430 g    DF .text	00000000000000d0 _ZN7android12AVIExtractorC1ERKNS_2spINS_10DataSourceEEE
00000000002122c8 g    DF .text	0000000000000024 PVAVCEncGetMaxOutputBufferSize
00000000001bde78 g    DF .text	0000000000000048 _ZN7android19ASessionDescription5setToEPKvm
000000000059f208 g    DO .data	0000000000000028 _ZTVN7android10ABitReaderE
0000000000103cd0 g    DF .text	000000000000018c _Z10fixp_atan2ii
000000000019c574 g    DF .text	0000000000000028 XML_ParserCreateNS
00000000005a8340  w   DO .data	0000000000000028 _ZTIN7android6VectorINS_9SidxEntryEEE
000000000058f6b0 g    DO .data	0000000000000098 _ZTCN7android7IEffectE0_NS_10IInterfaceE
00000000005ab898  w   DO .data	0000000000000018 _ZTVZN7android14ReferenceMover15move_referencesINS_13GraphicBufferEEEvPNS_2spIT_EEPKS5_mE7Renamer
000000000029e29c g    DF .text	000000000000013c _ZN7android18SurfaceMediaSourceD2Ev
0000000000242278  w   DF .text	0000000000000054 _ZN7android6ACodec13DeathNotifierD0Ev
00000000000db0d0 g    DF .text	0000000000000008 TVMRVideoEncoderBitsAvailable
00000000002ce0c4 g    DF .text	00000000000000c8 _ZN5movie12HLSExtractorC1EPNS_15ExtractorConfigE
00000000001d2b78 g    DF .text	0000000000000008 _ZN7android14NuPlayerDriver10playerTypeEv
0000000000206290 g    DF .text	000000000000003c _ZThn8_N7android3OMXD0Ev
000000000027a880  w   DF .text	0000000000000168 _ZN7android11MPEG4Writer5Track16ListTableEntriesIlE3addERKl
000000000051fff0 g    DO .rodata	000000000000001f _ZTSN7android6ACodec11LoadedStateE
00000000002a2b64 g    DF .text	0000000000000064 _ZN7android12WAVExtractorC2ERKNS_2spINS_10DataSourceEEE
00000000001de7b0 g    DF .text	00000000000000b0 _ZN7android8AMessageD2Ev
0000000000590690  w   DO .data	00000000000000a8 _ZTCN7android11BpInterfaceINS_7IEffectEEE8_NS_9BpRefBaseE
00000000002651d8 g    DF .text	0000000000000160 _ZN7android10MediaMuxerC2EPKcNS0_12OutputFormatE
00000000005ac428 g    DO .data	0000000000000030 _ZTVN9mkvparser10VideoTrackE
00000000001d41c0 g    DF .text	000000000000004c _ZN7android8NuPlayer8Renderer11setHasMediaEb
000000000018493c g    DF .text	0000000000000088 _ZN7android5ProxyC1EPNS_18audio_track_cblk_tEPvmmbb
0000000000244e64 g    DF .text	000000000000005c _ZNK7android11AudioPlayer26getNumFramesPendingPlayoutEv
000000000017d5dc g    DF .text	0000000000000068 _ZN7android11AudioSystem20getStrategyForStreamE19audio_stream_type_t
00000000002ca848 g    DF .text	0000000000000024 _ZN5movie13BrowserPlayerD0Ev
0000000000248220 g    DF .text	000000000000009c _ZN7android12AVIExtractor9AVISourceC1ERKNS_2spIS0_EEm
00000000001e16ec g    DF .text	0000000000000008 _ZNK7android7AString5c_strEv
000000000018f3bc g    DF .text	0000000000000044 _ZTv0_n24_N7android12IOMXObserverD0Ev
00000000002507d4 g    DF .text	0000000000000090 _ZN7android13AwesomePlayer10setLoopingEb
0000000000296da4 g    DF .text	00000000000007dc _ZN7android8OMXCodec14dumpPortStatusEj
000000000027ef90 g    DF .text	0000000000000070 _ZN7android11MPEG4Writer5Track12writePaspBoxEv
00000000001fdd94 g    DF .text	000000000000000c _ZN7android21ElementaryStreamQueue11resetFormatEv
00000000002b3f3c g    DF .text	0000000000000024 _ZNK9mkvparser10BlockEntry3EOSEv
000000000014bb38 g    DF .text	00000000000001b8 DecodeFrameDataPartMode
00000000001ddd6c g    DF .text	00000000000000f8 _ZN7android13ALooperRoster17unregisterHandlerEi
00000000002e8fbc g    DF .text	0000000000000014 _ZN5movie7Decoder20RegisterClientEventsEPNS_13DecoderEventsE
00000000004fdec0 g    DO .rodata	0000000000000200 sin_twiddle_L64
000000000059b0f0 g    DO .data	0000000000000098 _ZTCN7android22MediaMetadataRetriever13DeathNotifierE0_NS_7IBinder14DeathRecipientE
00000000005214e0  w   DO .rodata	000000000000002a _ZTSN7android4ListIPNS_11MPEG4Writer5TrackEEE
000000000017cf3c g    DF .text	0000000000000078 _ZN7android11AudioSystem11setForceUseE24audio_policy_force_use_t25audio_policy_forced_cfg_t
00000000005ab2b0  w   DO .data	0000000000000108 _ZTCN7android11BnInterfaceINS_11IMemoryHeapEEE8_NS_7IBinderE
000000000010cb58 g    DF .text	0000000000000008 _Z20CProgramConfig_ResetP14CProgramConfig
000000000018beb0  w   DF .text	0000000000000144 _ZN7android8BpEffect7commandEjjPvPjS1_
00000000001bb018  w   DF .text	0000000000000010 _ZNK7android6VectorIhE16do_move_backwardEPvPKvm
000000000020af30 g    DF .text	00000000000000b0 _ZN7android15OMXNodeInstance12makeBufferIDEP20OMX_BUFFERHEADERTYPE
00000000005225b0 g    DO .rodata	0000000000000019 _ZTSN7android12WebmUnsignedE
0000000000517380 g    DO .rodata	0000000000000029 _ZTSN7android10AudioTrack16AudioTrackThreadE
00000000002980dc  w   DF .text	000000000000005c _ZNK7android6VectorINS_8OMXCodec10BufferInfoEE12do_constructEPvm
00000000002cd094 g    DF .text	0000000000000064 _ZNK5movie14NnMSEExtractor11CountTracksEPi
00000000001f2768 g    DF .text	000000000000017c _ZN7android15PlaylistFetcher10startAsyncERKNS_2spINS_19AnotherPacketSourceEEES5_S5_llibl
00000000002c5c50 g    DF .text	0000000000000024 _ZN7android21WebmFrameSourceThreadC2EiRNS_19LinkedBlockingQueueIKNS_2spINS_9WebmFrameEEEEE
000000000059f778  w   DO .data	0000000000000050 _ZTVN7android6VectorINS_2spINS_7ALooperEEEEE
000000000019ace0 g    DF .text	0000000000000174 _ZN7android17StagefrightPlayerC1Ev
000000000025eb50 g    DF .text	0000000000000004 _ZN7android10MediaCodec17updateBatteryStatEv
00000000005adfe8  w   DO .data	0000000000000048 _ZTVN7android17AHandlerReflectorIN5movie20NnCodecInputReceiverEEE
00000000000f31a0 g    DF .text	00000000000001a8 _Z35Hcr_State_BODY_SIGN_ESC__ESC_PREFIXP13FDK_BITSTREAMPv
0000000000185834 g    DF .text	00000000000000a8 _ZN7android27StaticAudioTrackServerProxyC2EPNS_18audio_track_cblk_tEPvmm
000000000018d1f4  w   DF .text	0000000000000048 _ZTv0_n24_N7android11BnInterfaceINS_15IMediaCodecListEED1Ev
0000000000245bfc g    DF .text	0000000000000008 _ZNK7android11AudioSource9initCheckEv
00000000005a7448 g    DO .data	0000000000000008 _ZN7android32MEDIA_MIMETYPE_CONTAINER_MPEG2PSE
0000000000521a50  w   DO .rodata	000000000000001d _ZTSN7android16OMXCodecObserverE
00000000002b1004 g    DF .text	0000000000000014 _ZN9mkvparser8Chapters4Atom4InitEv
0000000000505900 g    DO .rodata	0000000000000020 quantBorders
0000000000266c44 g    DF .text	0000000000000078 _ZN7android8MetaData10typed_dataC2ERKS1_
00000000002bff7c g    DF .text	00000000000000ac _ZN8mkvmuxer12SerializeIntEPNS_10IMkvWriterExi
000000000027b000 g    DF .text	00000000000001d8 _ZN7android11MPEG4Writer11bufferChunkERKNS0_5ChunkE
00000000002b0c6c g    DF .text	0000000000000104 _ZN9mkvparser8Chapters7Edition5ParseEPNS_10IMkvReaderExx
0000000000195d78 g    DF .text	0000000000000084 _ZN7android11MediaPlayer14prepareAsync_lEv
00000000002cae88 g    DF .text	0000000000000008 _ZN5movie8nnPlayer9SetVolumeEf
0000000000193cc4  w   DF .text	0000000000000060 _ZNK7android6VectorIjE8do_splatEPvPKvm
00000000002807e4 g    DF .text	0000000000000048 _ZN7android9PageCache11releasePageEPNS0_4PageE
000000000017e1c0  w   DF .text	0000000000000034 _ZN7android6VectorINS_8AudioMixEED2Ev
000000000026a038 g    DF .text	0000000000000054 _ZN7android13MPEG2TSWriter10SourceInfo14setEOSReceivedEv
0000000000197200  w   DF .text	0000000000000084 _ZTv0_n24_N7android19IMediaDeathNotifierD1Ev
00000000002ed2bc g    DF .text	0000000000000024 _ZNK5movie20NnCodecVideoConsumer11getProducerEv
00000000001512f0 g    DF .text	0000000000000184 idctrow3_intra
00000000002e8f60 g    DF .text	0000000000000048 _ZN5movie7DecoderD0Ev
0000000000270bc4 g    DF .text	0000000000000274 _ZN7android14MPEG4Extractor16parseTrackHeaderEll
000000000051c7c0 g    DO .rodata	0000000000000017 _ZTSN7android10ABitReaderE
0000000000016380 g    DF .text	0000000000000020 _ZN2nv2mm23GetThreadStackAllocatorEv
00000000005d5870 g    DO .bss	0000000000000020 _ZN7android19IMediaDeathNotifier12sServiceLockE
000000000019b018 g    DF .text	0000000000000064 _ZN7android17StagefrightPlayer11getDurationEPi
0000000000255088 g    DF .text	0000000000000080 _ZN7android10FileSource7getSizeEPl
00000000002bb98c g    DF .text	0000000000000034 _ZNK8mkvmuxer7Cluster4SizeEv
00000000005222d0 g    DO .rodata	0000000000000009 _ZN8mkvmuxer6Tracks14kVorbisCodecIdE
000000000018bdc8  w   DF .text	0000000000000074 _ZN7android8BpEffect6enableEv
0000000000517130  w   DO .rodata	0000000000000033 _ZTSN7android11BnInterfaceINS_19IAudioFlingerClientEEE
00000000001c1504 g    DF .text	0000000000000038 _ZN7android8NuPlayer13GenericSource13setDataSourceEill
00000000001dc2dc g    DF .text	0000000000000178 _ZN7android25AHierarchicalStateMachine13handleMessageERKNS_2spINS_8AMessageEEE
000000000017f6e4  w   DF .text	0000000000000034 _ZN7android6VectorINS_23AttributeMatchCriterionEED2Ev
0000000000299f40 g    DF .text	0000000000000010 _ZN7android14abs_differenceEjj
000000000022e524 g    DF .text	0000000000000010 _ZN7android19TimedText3GPPSource9getFormatEv
000000000022eb84 g    DF .text	00000000000000c8 _ZN7android15TimedTextDriver11seekToAsyncEl
00000000005a98a0  w   DO .data	0000000000000160 _ZTCN7android16OMXCodecObserverE0_NS_11BnInterfaceINS_12IOMXObserverEEE
00000000002a8824 g    DF .text	00000000000000dc _ZN9mkvparser14UnserializeIntEPNS_10IMkvReaderExxRx
00000000002b2408 g    DF .text	0000000000000010 _ZN9mkvparser15ContentEncoding18ContentCompressionD2Ev
00000000002d84e4 g    DF .text	00000000000000fc _ZNK5movie11NnMediaData8FindRectEPKcPiS3_S3_S3_
000000000026bd24  w   DF .text	000000000000004c _ZN7android11MediaWriterD2Ev
00000000002ad554 g    DF .text	000000000000002c _ZNK9mkvparser8SeekHead14GetVoidElementEi
00000000001f6c74 g    DF .text	000000000000006c _ZN7android3ID3C2ERKNS_2spINS_10DataSourceEEEbl
00000000002827dc  w   DF .text	00000000000000fc _ZN7android17AHandlerReflectorINS_15NuCachedSource2EE17onMessageReceivedERKNS_2spINS_8AMessageEEE
00000000001473a4 g    DF .text	0000000000000058 BitstreamShowBits32
00000000001ec9dc  w   DF .text	0000000000000034 _ZN7android6VectorINS_9M3UParser10MediaGroup5MediaEED2Ev
0000000000178b54 g    DF .text	00000000000000e0 _ZN7android8AudioMix14readFromParcelEPNS_6ParcelE
0000000000279cf0 g    DF .text	000000000000026c _ZN7android11MPEG4Writer5TrackC1EPS0_RKNS_2spINS_11MediaSourceEEEm
0000000000132478 g    DF .text	0000000000000008 FDKfseek
00000000005a5b30 g    DO .data	0000000000000018 _ZTIN7android10FileSourceE
0000000000265bbc  w   DF .text	000000000000005c _ZNK7android6VectorINS_2spINS_12MediaAdapterEEEE8do_splatEPvPKvm
00000000000139e0 g    DF .text	0000000000000014 NvmmGetBaseAddress
0000000000217544 g    DF .text	0000000000000494 InitPOC
00000000005a6f90  w   DO .data	0000000000000018 _ZTIZN7android14ReferenceMover15move_referencesINS_14MediaCodecInfoEEEvPNS_2spIT_EEPKS5_mE7Renamer
00000000000dafa8 g    DF .text	0000000000000004 TVMRFlipQueueDisplayYUV
00000000001baf54  w   DF .text	000000000000003c _ZN7android6VectorIhED0Ev
000000000017ce4c g    DF .text	0000000000000078 _ZN7android11AudioSystem24getDeviceConnectionStateEjPKc
0000000000012d80 g    DF .text	0000000000000094 NvMMSetUAProfAgentString
00000000001cdff8 g    DF .text	000000000000057c _ZN7android8NuPlayer7Decoder20handleAnOutputBufferEv
00000000001f1230 g    DF .text	000000000000009c _ZN7android9M3UParser13unquoteStringERKNS_7AStringE
00000000002318bc g    DF .text	0000000000000280 _ZN7android12AACExtractorC1ERKNS_2spINS_10DataSourceEEERKNS1_INS_8AMessageEEE
00000000001e5e60 g    DF .text	0000000000000c50 _ZN7android11LiveSession17dequeueAccessUnitENS0_10StreamTypeEPNS_2spINS_7ABufferEEE
00000000002ccba4 g    DF .text	00000000000000c8 _ZN5movie14NnMSEExtractorD2Ev
000000000022c6c4 g    DF .text	00000000000001ac _ZN7android28SoftVideoEncoderOMXComponent9initPortsEjjjPKcj
0000000000521060 g    DO .rodata	0000000000000008 _ZN7android9MP3Source13kMaxFrameSizeE
00000000001bb028 g    DF .text	0000000000000760 _ZN7android25AMPEG4ElementaryAssemblerC2ERKNS_2spINS_8AMessageEEERKNS_7AStringES8_
00000000002731c8 g    DF .text	0000000000000174 _ZN7android11MPEG4Source5startEPNS_8MetaDataE
00000000002eaa8c g    DF .text	0000000000000054 _ZN5movie7EncoderC1ENS_11EncoderTypeE
000000000015a0f4 g    DF .text	00000000000001ac _ZN7android7SoftAVCD2Ev
00000000001850cc g    DF .text	0000000000000030 _ZN7android11ClientProxy15getMisalignmentEv
000000000020b678 g    DF .text	00000000000000f4 _ZN7android15OMXNodeInstance25updateGraphicBufferInMetaEjRKNS_2spINS_13GraphicBufferEEEj
00000000005a6df8  w   DO .data	0000000000000050 _ZTVN7android6VectorINS_17CodecProfileLevelEEE
0000000000176f7c g    DF .text	0000000000000008 _ZNK7android11AudioEffect10getEnabledEv
000000000018e8f0  w   DF .text	0000000000000048 _ZThn8_N7android19BnMediaPlayerClientD1Ev
00000000002ea260 g    DF .text	00000000000000c8 _ZN5movie11EncoderImpl30RemoveBufferIndexFromInputListEPiS1_
0000000000177928  w   DF .text	0000000000000048 _ZThn8_N7android14BnEffectClientD1Ev
000000000058a440  w   DO .data	0000000000000118 _ZTCN7android11BnInterfaceINS_25IAudioPolicyServiceClientEEE8_NS_7BBinderE
000000000021aeb8 g    DF .text	00000000000001a0 eFullPelMC
000000000017e798  w   DF .text	0000000000000048 _ZTv0_n24_N7android11BnInterfaceINS_19IAudioFlingerClientEED1Ev
000000000025026c g    DF .text	00000000000000e8 _ZN7android13AwesomePlayer17setNativeWindow_lERKNS_2spI13ANativeWindowEE
00000000001c25ec g    DF .text	0000000000000160 _ZN7android8NuPlayer13GenericSource24notifyPreparedAndCleanupEi
0000000000154ba4 g    DF .text	0000000000000014 IsIntraFrame
00000000001ecfac g    DF .text	0000000000000ce0 _ZN7android9M3UParser5parseEPKvmm
00000000002d46f0 g    DF .text	0000000000000024 _ZN5movie13NnCodecPlayer24InitializeInputReceiversEv
000000000022bcc4 g    DF .text	00000000000001bc _ZN7android28SoftVideoDecoderOMXComponent24handlePortSettingsChangeEPbjjNS0_16CropSettingsModeEb
00000000002836a4 g    DF .text	0000000000000104 _ZN7android16NuMediaExtractor13setDataSourceERKNS_2spINS_10DataSourceEEE
00000000005af650  w   DO .data	0000000000000050 _ZTCNSt3__118basic_stringstreamIcNS_11char_traitsIcEENS_9allocatorIcEEEE16_NS_13basic_ostreamIcS2_EE
00000000002c6bc0 g    DF .text	00000000000000e0 _ZN7android26WebmFrameMediaSourceThread5startEv
0000000000103f50 g    DF .text	00000000000000d4 _Z8fixp_cosii
0000000000176554 g    DF .text	00000000000000ac _ZN7android11AudioEffectC2EPK13effect_uuid_sS3_iPFviPvS4_ES4_ii
00000000002b4ac4 g    DF .text	0000000000000010 _ZNK9mkvparser5Block5IsKeyEv
00000000002b2398 g    DF .text	000000000000004c _ZN9mkvparser11SegmentInfoD2Ev
000000000027cab0 g    DF .text	0000000000000144 _ZN7android11MPEG4Writer5Track25parseAVCCodecSpecificDataEPKhm
00000000001b999c g    DF .text	00000000000000b8 _ZN7android20AMPEG4AudioAssemblerD2Ev
000000000051440c g    DO .rodata	0000000000000400 FLOOR_fromdB_LOOKUP
000000000058ab88 g    DO .data	0000000000000048 _ZTVN7android11ClientProxyE
00000000001c0604 g    DF .text	0000000000000194 _ZN7android19VideoFrameScheduler3PLL3fitEllmPlS2_S2_
0000000000256ba8 g    DF .text	0000000000000088 _ZN7android12MediaAdapter20signalBufferReturnedEPNS_11MediaBufferE
00000000001c9d44 g    DF .text	0000000000000094 _ZN7android8NuPlayer14notifyListenerEiiiPKNS_6ParcelE
00000000002bc058 g    DF .text	0000000000000020 _ZN8mkvmuxer11SegmentInfoC1Ev
00000000001b5ae0 g    DF .text	0000000000000040 _ZN7android18ARawAudioAssemblerD2Ev
0000000000587550  w   DO .data	00000000000000a0 _ZTTN7android11AudioEffect12EffectClientE
00000000001bec74 g    DF .text	000000000000018c _ZNK7android19ASessionDescription13getDurationUsEPl
00000000002cbcd8 g    DF .text	00000000000000a4 _ZN11nnAudioSink14CallbackThread10threadLoopEv
0000000000013304 g    DF .text	0000000000000050 NvmmUlpKpiGetAverageTimeBwReadRequests
00000000001d0bd0 g    DF .text	000000000000007c _ZN7android8NuPlayer11DecoderBase11handleErrorEi
0000000000299874 g    DF .text	000000000000019c _ZN7android11SampleTable19setSampleSizeParamsEjlm
00000000000fb508 g    DF .text	000000000000000c _Z21CConcealment_GetStateP16CConcealmentInfo
00000000002a0418  w   DF .text	0000000000000028 _ZN7android15TimedEventQueue16PMDeathRecipientD0Ev
00000000005a7ba0 g    DO .data	0000000000000018 _ZTIN7android9MP3SourceE
00000000002618fc  w   DF .text	0000000000000060 _ZNK7android6VectorINS_14MediaCodecList7SectionEE8do_splatEPvPKvm
000000000015fe94 g    DF .text	0000000000000124 h264bsdSampleAspectRatio
00000000001efa00 g    DF .text	00000000000005e4 _ZNK7android9M3UParser14parseStreamInfERKNS_7AStringEPNS_2spINS_8AMessageEEE
00000000002b8630 g    DF .text	000000000000003c _ZN8mkvmuxer5FrameD2Ev
00000000001e6e70 g    DF .text	0000000000000c0c _ZN7android11LiveSession17onMessageReceivedERKNS_2spINS_8AMessageEEE
000000000029f5d4  w   DF .text	0000000000000048 _ZN7android15ThrottledSourceD2Ev
00000000002cc278 g    DF .text	0000000000000040 _ZN5movie11NnExtractorD0Ev
0000000000145edc g    DF .text	0000000000000024 cmnMemCompare
00000000002e8e98 g    DF .text	0000000000000080 _ZN5movie7DecoderC2ENS_11DecoderTypeENS_19DecoderOutputFormatENS_11DecoderModeEi
00000000001d5330 g    DF .text	0000000000000058 _ZN7android8NuPlayer8Renderer16onCloseAudioSinkEv
0000000000505920 g    DO .rodata	0000000000000018 quantRecon
00000000005ac3c8 g    DO .data	0000000000000030 _ZTVN9mkvparser5TrackE
000000000018e0a8  w   DF .text	0000000000000030 _ZNK7android12SortedVectorINS_2wpINS_19IMediaDeathNotifierEEEE10do_compareEPKvS6_
00000000001f85e8 g    DF .text	0000000000000158 _ZN7android19AnotherPacketSource9setFormatERKNS_2spINS_8MetaDataEEE
00000000005a7460 g    DO .data	0000000000000008 _ZN7android28MEDIA_MIMETYPE_CONTAINER_WVME
0000000000222354 g    DF .text	0000000000000790 GenerateHalfPelPred
000000000023bec8 g    DF .text	0000000000000074 _ZN7android6ACodec15PortDescriptionC1Ev
00000000002eead4 g    DF .text	000000000000008c _ZNK5movie6detail16AudioSampleTable14time_at_sampleEl
000000000018b748  w   DF .text	0000000000000008 _ZN7android11BnInterfaceINS_7IEffectEE10onAsBinderEv
0000000000200510  w   DF .text	000000000000008c _ZNK7android6VectorINS_11NALPositionEE16do_move_backwardEPvPKvm
0000000000521c30 g    DO .rodata	000000000000001f _ZTSN7android18SurfaceMediaSourceE
00000000005875f0  w   DO .data	0000000000000178 _ZTCN7android11AudioEffect12EffectClientE0_NS_14BnEffectClientE
000000000017d9bc g    DF .text	0000000000000090 _ZN7android11AudioSystem14isSourceActiveE14audio_source_tPb
000000000058aa60 g    DO .data	00000000000000b0 _ZTCN7android10AudioTrack16AudioTrackThreadE0_NS_6ThreadE
00000000001df528 g    DF .text	00000000000000c8 _ZNK7android8AMessage10findStringEPKcPNS_7AStringE
000000000029867c g    DF .text	0000000000000014 _ZN7android14SampleIterator5resetEv
000000000019240c  w   DF .text	0000000000000050 _ZThn8_N7android16BpStreamListenerD0Ev
0000000000521090 g    DO .rodata	0000000000000015 _ZTSN7android9MP3SourceE
00000000005a7400 g    DO .data	0000000000000008 _ZN7android24MEDIA_MIMETYPE_AUDIO_MP4E
0000000000146ae0 g    DF .text	0000000000000044 _ZN7android9SoftMPEG47onResetEv
00000000001cd9c0  w   DF .text	0000000000000034 _ZN7android6VectorIbED2Ev
00000000005a19a0 g    DO .data	00000000000000b0 _ZTVN7android3OMX24CallbackDispatcherThreadE
00000000001392f8 g    DF .text	0000000000000014 bitCountScalefactorDelta
00000000002eb8b0 g    DF .text	0000000000000040 _ZN5movie9MediaDataD1Ev
000000000019197c  w   DF .text	0000000000000050 _ZThn8_N7android16BnStreamListenerD0Ev
000000000029f69c  w   DF .text	0000000000000010 _ZN7android15ThrottledSource17reconnectAtOffsetEl
0000000000284bdc g    DF .text	0000000000000120 _ZNK7android16NuMediaExtractor16getBufferedRangeEPlS1_
0000000000588350 g    DO .data	0000000000000020 _ZTVN7android14AudioParameterE
00000000002b6fd4 g    DF .text	0000000000000078 _ZN9mkvparser7ClusterD1Ev
00000000005a09c8  w   DO .data	0000000000000050 _ZTVN7android6VectorINS_11NALPositionEEE
0000000000219c2c g    DF .text	0000000000000010 AVCSAD_Macroblock_C
00000000002b4c98 g    DF .text	0000000000000008 _ZNK9mkvparser10VideoTrack9GetHeightEv
00000000002b2354 g    DF .text	0000000000000014 _ZNK9mkvparser4Tags9SimpleTag11ShallowCopyERS1_
00000000001d3d48 g    DF .text	0000000000000040 _ZN7android8NuPlayer8Renderer6resumeEv
00000000002d1198 g    DF .text	0000000000000008 _ZN5movie7NnCodec17setNativeBufParamEii
00000000002db718 g    DF .text	0000000000000010 _ZN5movie26NnCodecVideoOutputReceiver11SetObserverEPNS_14PlayerObserverE
000000000058e9b0 g    DO .data	00000000000000b0 _ZTCN7android26BnAudioPolicyServiceClientE0_NS_25IAudioPolicyServiceClientE
00000000002904f4 g    DF .text	0000000000000064 _ZN7android8OMXCodec22clearCodecSpecificDataEv
00000000001ec09c  w   DF .text	0000000000000064 _ZNK7android12SortedVectorINS_16key_value_pair_tINS_11LiveSession10StreamTypeENS_2spINS_19AnotherPacketSourceEEEEEE8do_splatEPvPKvm
0000000000244ec0 g    DF .text	0000000000000080 _ZN7android11AudioPlayer25getOutputPlayPositionUs_lEv
00000000001899f4  w   DF .text	0000000000000084 _ZN7android14BpAudioFlinger15setLowRamDeviceEb
0000000000298cd8 g    DF .text	0000000000000194 _ZN7android14SampleIterator14getChunkOffsetEjPl
0000000000521b1c g    DO .rodata	0000000000000004 _ZN7android11SampleTable18kChunkOffsetType32E
0000000000149998 g    DF .text	000000000000061c CombinedHorzVertFilter
000000000019e37c g    DF .text	0000000000000008 XML_SetEndNamespaceDeclHandler
00000000001ddb08 g    DF .text	0000000000000078 _ZN7android13ALooperRosterC1Ev
0000000000590190  w   DO .data	00000000000000c8 _ZTCN7android8BpEffectE0_NS_7IEffectE
0000000000588210  w   DO .data	0000000000000108 _ZTCN7android11BnInterfaceINS_13IEffectClientEEE8_NS_7IBinderE
00000000001cd32c  w   DF .text	0000000000000020 _ZNK7android12SortedVectorINS_16key_value_pair_tIlNS_2spINS_7ABufferEEEEEE10do_compareEPKvS8_
00000000002db5b4 g    DF .text	0000000000000030 _ZN5movie26NnCodecVideoOutputReceiver5StartEv
0000000000232bc4 g    DF .text	0000000000000254 _ZN7android6ACodecD1Ev
000000000017e8d0  w   DF .text	0000000000000040 _ZThn8_N7android11AudioSystem18AudioFlingerClientD1Ev
000000000020c570 g    DF .text	0000000000000128 _ZN7android15OMXNodeInstance11emptyBufferEjjjjx
000000000024c52c g    DF .text	00000000000005f4 _ZN7android13AwesomePlayer17onBufferingUpdateEv
0000000000266da0 g    DF .text	000000000000003c _ZN7android8MetaData10typed_data11freeStorageEv
000000000020f6ec  w   DF .text	0000000000000044 _ZN7android17AHandlerReflectorINS_22SimpleSoftOMXComponentEED2Ev
00000000002d23a4 g    DF .text	0000000000000028 _ZN5movie7NnMuxerD2Ev
0000000000205598  w   DF .text	0000000000000014 _ZNK7android12SortedVectorINS_16key_value_pair_tIllEEE16do_move_backwardEPvPKvm
00000000005a4c48 g    DO .data	0000000000000078 _ZTVN7android12AMRExtractorE
000000000024e93c g    DF .text	0000000000000084 _ZN7android13AwesomePlayer10getBitrateEPl
00000000004eccfc g    DO .rodata	0000000000000038 ExponentTable
000000000020cf14  w   DF .text	000000000000003c _ZN7android12SortedVectorINS_16key_value_pair_tIP20OMX_BUFFERHEADERTYPEjEEED0Ev
0000000000256500 g    DF .text	0000000000000078 _ZN7android10JPEGSource5startEPNS_8MetaDataE
00000000005965c0  w   DO .data	0000000000000098 _ZTCN7android5BpOMXE0_NS_10IInterfaceE
00000000002a4158 g    DF .text	000000000000001c _ZN7android12WVMExtractor25getEstimatedBandwidthKbpsEPi
00000000001de524 g    DF .text	0000000000000028 _ZN7android13ALooperRoster8shutdownEv
00000000002a80d4  w   DF .text	000000000000008c _ZNK7android6VectorINS_17MatroskaExtractor9TrackInfoEE8do_splatEPvPKvm
000000000058ba70 g    DO .data	0000000000000098 _ZTCN7android14BnAudioFlingerE0_NS_10IInterfaceE
00000000002060a8 g    DF .text	00000000000000f0 _ZN7android3OMXD2Ev
0000000000201ab0 g    DF .text	000000000000001c _ZN7android16MPEG2PSExtractor5Track4stopEv
00000000002eeb60 g    DF .text	0000000000000088 _ZNK5movie6detail16AudioSampleTable13total_samplesEv
0000000000109928 g    DF .text	0000000000000090 _Z22imdct_adapt_parametersP6mdct_tPiS1_iPK8FIXP_DPKi
00000000001d2c9c g    DF .text	0000000000000008 _ZN7android14NuPlayerDriver8getStatsEv
00000000002128e8 g    DF .text	0000000000000008 PVAVCEncUpdateFrameRate
00000000005a57c8 g    DO .data	0000000000000090 _ZTVN7android18CallbackDataSourceE
00000000005abb48  w   DO .data	0000000000000020 _ZTVN7android4ListINS_15TimedEventQueue9QueueItemEEE
00000000005932e0  w   DO .data	0000000000000108 _ZTCN7android11BnInterfaceINS_15IMediaCodecListEEE8_NS_7IBinderE
0000000000520970  w   DO .rodata	000000000000001b _ZTSN7android14ClockEstimatorE
000000000019766c  w   DF .text	0000000000000004 _ZN7android16SingleStateQueueINS_21StaticAudioTrackStateEE7MutatorD1Ev
000000000027cddc g    DF .text	0000000000000084 _ZN7android11MPEG4Writer5Track15updateDriftTimeERKNS_2spINS_8MetaDataEEE
00000000000eb538 g    DF .text	0000000000001084 _ZN7android8SoftAAC213onQueueFilledEj
0000000000197684  w   DF .text	0000000000000004 _ZN7android16SingleStateQueueINS_14AudioTimestampEE8ObserverD1Ev
00000000002c740c  w   DF .text	0000000000000008 _ZN7android26WebmFrameMediaSourceThread13getDurationUsEv
0000000000190558  w   DF .text	0000000000000050 _ZTv0_n24_N7android11BpInterfaceINS_12IOMXObserverEED0Ev
000000000017779c  w   DF .text	0000000000000048 _ZN7android14BnEffectClientD0Ev
000000000018acfc  w   DF .text	0000000000000040 _ZN7android11BpInterfaceINS_25IAudioPolicyServiceClientEED1Ev
00000000000ed990 g    DF .text	0000000000000024 _Z29aacDecoder_drcInitChannelDataP15CDrcChannelData
00000000001e3444  w   DF .text	0000000000000008 _ZN7android9AWakeLock16PMDeathRecipientD1Ev
00000000000dafa4 g    DF .text	0000000000000004 TVMRFlipQueueDisplayRGB
000000000018c524 g    DF .text	0000000000000038 _ZN7android13IEffectClientD0Ev
00000000002cb5a8 g    DF .text	0000000000000008 _ZN5movie8nnPlayer20GetOutputBufferIndexEiPiS1_
000000000019edc4 g    DF .text	0000000000000028 XML_ErrorString
00000000001c0cb0 g    DF .text	0000000000000094 _ZN7android19VideoFrameScheduler11updateVsyncEv
00000000001f26f4 g    DF .text	0000000000000074 _ZN7android15PlaylistFetcher19postBufferingUpdateEv
0000000000224340 g    DF .text	0000000000000a40 chroma_intra_search
00000000001118f0 g    DF .text	0000000000000010 _Z25transportDec_GetBitstreamP12TRANSPORTDECj
000000000059bfb0 g    DO .data	0000000000000018 _ZTIN7android17StagefrightPlayerE
00000000005d5ca0 g    DO .bss	0000000000000008 _ZN7android14MediaCodecList20sBinderDeathObserverE
0000000000209874 g    DF .text	00000000000000d8 _ZN7android15OMXNodeInstance16OnFillBufferDoneEPvS1_P20OMX_BUFFERHEADERTYPE
00000000001346e4 g    DF .text	00000000000000b4 _ZN7android14SoftAACEncoder11initEncoderEv
0000000000108ba8 g    DF .text	0000000000000004 _Z9InitLdIntv
000000000020854c  w   DF .text	0000000000000020 _ZNK7android12SortedVectorINS_16key_value_pair_tIjNS_2spINS_3OMX18CallbackDispatcherEEEEEE10do_compareEPKvS9_
0000000000185be0  w   DF .text	0000000000000008 _ZNK7android27StaticAudioTrackClientProxy17getUnderrunFramesEv
0000000000216d34 g    DF .text	0000000000000220 EncodePPS
00000000002552e0 g    DF .text	0000000000000048 _ZN7android18InMemoryFileSourceD1Ev
0000000000108a14 g    DF .text	000000000000004c _Z5fLog2ii
000000000019982c g    DF .text	0000000000000088 _ZN7android6SampleD0Ev
0000000000270e38 g    DF .text	00000000000005a4 _ZN7android14MPEG4Extractor39updateAudioTrackInfoFromESDS_MPEG4AudioEPKvm
00000000001dd6d8  w   DF .text	000000000000003c _ZN7android12SortedVectorINS_16key_value_pair_tIiNS_13ALooperRoster11HandlerInfoEEEED0Ev
0000000000101540 g    DF .text	0000000000000038 FDK_pushForward
00000000002477ec g    DF .text	0000000000000208 _ZN7android24MakeAACCodecSpecificDataEjjj
00000000002569a0 g    DF .text	0000000000000030 _ZThn8_N7android12MediaAdapterD1Ev
00000000001f7664 g    DF .text	0000000000000040 _ZN7android3ID38IteratorC1ERKS0_PKc
0000000000599440  w   DO .data	0000000000000038 _ZTIN7android11BpInterfaceINS_13IStreamSourceEEE
000000000051ddf0  w   DO .rodata	000000000000005e _ZTSN7android12SortedVectorINS_16key_value_pair_tINS_2wpINS_7IBinderEEEPNS_15OMXNodeInstanceEEEEE
000000000051ff70 g    DO .rodata	0000000000000023 _ZTSN7android6ACodec15PortDescriptionE
00000000001c13ac g    DF .text	00000000000000a0 _ZN7android8NuPlayer13GenericSource15resetDataSourceEv
00000000000ed024  w   DF .text	0000000000000088 _ZNK7android6VectorINS_22SimpleSoftOMXComponent10BufferInfoEE8do_splatEPvPKvm
00000000001ccf60  w   DF .text	0000000000000088 _ZN7android8NuPlayer9CCDecoderD2Ev
000000000020d498  w   DF .text	0000000000000020 _ZNK7android12SortedVectorIP20OMX_BUFFERHEADERTYPEE10do_compareEPKvS5_
00000000002a373c g    DF .text	000000000000009c _ZTv0_n24_N7android9WAVSourceD1Ev
00000000000eb530 g    DF .text	0000000000000008 _ZN7android8SoftAAC237outputDelayRingBufferSamplesAvailableEv
00000000002ea59c g    DF .text	0000000000000004 _ZN5movie22EncoderMessageReceiverD1Ev
00000000001f97ac g    DF .text	0000000000000050 _ZN7android19AnotherPacketSource21getBufferedDurationUsEPi
0000000000249430 g    DF .text	00000000000000d0 _ZN7android12AVIExtractorC2ERKNS_2spINS_10DataSourceEEE
0000000000199010 g    DF .text	0000000000000054 _ZN7android12SoundChannel10autoResumeEv
0000000000207054 g    DF .text	0000000000000094 _ZN7android3OMX12setParameterEj13OMX_INDEXTYPEPKvm
00000000001bb888 g    DF .text	00000000000000c0 _ZN7android25AMPEG4ElementaryAssemblerD1Ev
00000000002d08a0 g    DF .text	0000000000000130 _ZN5movie7NnCodecD1Ev
00000000002bc878 g    DF .text	00000000000001b4 _ZN8mkvmuxer7Segment22MoveCuesBeforeClustersEv
00000000002c48e8  w   DF .text	00000000000000c0 _ZN7android4ListINS_2spINS_11WebmElementEEEED2Ev
0000000000113d00 g    DF .text	00000000000000b8 setLimiterRelease
0000000000522210 g    DO .rodata	0000000000000019 _ZTSN9mkvparser10BlockEntryE
0000000000263698 g    DF .text	0000000000000038 _ZTv0_n24_N7android16MediaCodecSourceD1Ev
00000000002afad0 g    DF .text	00000000000003dc _ZN9mkvparser7Segment9ParseNextEPKNS_7ClusterERS3_RxRl
00000000002ed73c g    DF .text	000000000000004c _ZN5movie15NnCodecConsumer7setNameERKN7android7String8E
000000000017b728 g    DF .text	0000000000000064 _ZN7android11AudioSystem15setMasterVolumeEf
000000000017ea54  w   DF .text	000000000000005c _ZTv0_n24_N7android11AudioSystem18AudioFlingerClientD0Ev
00000000005961e0  w   DO .data	0000000000000060 _ZTTN7android5BpOMXE
00000000001c1d00 g    DF .text	00000000000000cc _ZN7android8NuPlayer13GenericSource14checkDrmStatusERKNS_2spINS_10DataSourceEEE
000000000029d0f8  w   DF .text	0000000000000098 _ZThn8_N7android11BnInterfaceINS_11IMemoryHeapEE19queryLocalInterfaceERKNS_8String16E
00000000002cd580 g    DF .text	000000000000009c _ZN5movie14NnMSEExtractor6SeekToEl
000000000021003c g    DF .text	0000000000000050 _ZN7android11NVOMXPluginC2Ev
000000000025de0c g    DF .text	00000000000001d8 _ZN7android10MediaCodec38amendOutputFormatWithCodecSpecificDataERKNS_2spINS_7ABufferEEE
00000000005a7380 g    DO .data	0000000000000008 _ZN7android25MEDIA_MIMETYPE_AUDIO_MPEGE
0000000000522410  w   DO .rodata	0000000000000027 _ZTSN7android26WebmFrameEmptySourceThreadE
00000000001809bc g    DF .text	00000000000000bc _ZN7android10AudioTrack16getMinFrameCountEPm19audio_stream_type_tj
00000000001d76a0 g    DF .text	0000000000000040 _ZN7android8NuPlayer8Renderer26notifyAudioOffloadTearDownEv
0000000000201670 g    DF .text	0000000000000198 _ZN7android16MPEG2PSExtractor5Track13appendPESDataEjmmPKhm
0000000000176cac g    DF .text	00000000000000dc _ZN7android11AudioEffect12stringToGuidEPKcP13effect_uuid_s
0000000000179f40 g    DF .text	0000000000000058 _ZN7android11AudioRecord17setMarkerPositionEj
0000000000193c38  w   DF .text	0000000000000034 _ZN7android6VectorIjED2Ev
00000000002eb7e4 g    DF .text	0000000000000008 _ZNK5movie6Buffer8CapacityEv
00000000004ff554 g    DO .rodata	0000000000000008 FDK_sbrDecoder_sbr_limiterBandsPerOctaveDiv4
000000000022c870 g    DF .text	00000000000000a4 _ZN7android28SoftVideoEncoderOMXComponent16updatePortParamsEv
00000000001942a4 g    DF .text	0000000000000058 _ZN7android22MediaMetadataRetriever10getServiceEv
00000000001fdc04  w   DF .text	0000000000000050 _ZNK7android6VectorINS_2spINS_9ATSParser7ProgramEEEE8do_splatEPvPKvm
00000000002d7e38 g    DF .text	00000000000000cc _ZNK5movie11NnMediaData8FindSizeEPKcPm
0000000000245cdc g    DF .text	000000000000005c _ZN7android11AudioSource21releaseQueuedFrames_lEv
000000000059d280 g    DO .data	0000000000000088 _ZTTN7android8NuPlayer22NuPlayerStreamListenerE
00000000005d5c78 g    DO .bss	0000000000000008 _ZN7android9SingletonINS_10MediaCodec15BatteryNotifierEE9sInstanceE
00000000002eb6e0 g    DF .text	0000000000000048 _ZN5movie6BufferaSERKS0_
00000000002e4884 g    DF .text	000000000000002c _ZNK5movie23BrowserPlayerDataSource9initCheckEv
000000000001729c g    DF .text	0000000000000104 OMX_GetRolesOfComponent
00000000002eb778 g    DF .text	0000000000000018 _ZN5movie6BufferC2EPvm
000000000058e370  w   DO .data	00000000000000a8 _ZTCN7android11BpInterfaceINS_19IAudioFlingerClientEEE0_NS_19IAudioFlingerClientE
000000000013e488 g    DF .text	0000000000000008 PsyOutDelete
00000000001b68a0  w   DF .text	0000000000000024 _ZN7android10ARTPSourceD0Ev
00000000002e1b94 g    DF .text	0000000000000068 _ZN5movie16NnCodecVideoSink6ResumeEb
00000000001db3a0 g    DF .text	00000000000000bc _ZN7android10ABitReader7getBitsEm
00000000002d6060 g    DF .text	0000000000000028 _ZN5movie13NnCodecPlayer6SeekToEl
00000000005a56e8  w   DO .data	0000000000000048 _ZTVN7android27AwesomeNativeWindowRendererE
0000000000178adc g    DF .text	000000000000003c _ZN7android23AttributeMatchCriterion14readFromParcelEPNS_6ParcelE
00000000001be380 g    DF .text	0000000000000008 _ZNK7android19ASessionDescription7isValidEv
000000000010a15c g    DF .text	0000000000000750 _Z24qmfAnalysisFilteringSlotP15QMF_FILTER_BANKPiS1_PKsiS1_
0000000000586338 g    DO .data	0000000000000100 aHuffTable
0000000000272c58 g    DF .text	0000000000000034 _ZN7android11MPEG4Source4initEv
0000000000286ccc g    DF .text	0000000000000060 _ZN7android12OggExtractorD0Ev
00000000002eadc4 g    DF .text	000000000000007c _ZN5movie9ExtractorC2ENS_13ContainerTypeE
00000000004fe1c0 g    DO .rodata	0000000000000080 SineWindow32
0000000000154c38 g    DF .text	0000000000000094 PVDecSetReference
0000000000196408 g    DF .text	0000000000000094 _ZN7android11MediaPlayer8seekTo_lEi
00000000002cbbc4 g    DF .text	0000000000000040 _ZN11nnAudioSink4stopEv
000000000017d644 g    DF .text	0000000000000068 _ZN7android11AudioSystem19getDevicesForStreamE19audio_stream_type_t
0000000000185198 g    DF .text	0000000000000024 _ZN7android21AudioTrackClientProxy18clearStreamEndDoneEv
00000000002ba958 g    DF .text	0000000000000030 _ZN8mkvmuxer7Chapter4InitEPj
000000000058f8f0 g    DO .data	0000000000000070 _ZTTN7android8BnEffectE
000000000023ff88 g    DF .text	000000000000006c _ZN7android6ACodec14ExecutingStateC2EPS0_
00000000002c0b90 g    DF .text	00000000000002a0 _ZN8mkvmuxer16WriteEbmlElementEPNS_10IMkvWriterEyPKc
00000000002a4190 g    DF .text	000000000000001c _ZN7android12WVMExtractor19setCryptoPluginModeEb
00000000002a04a8  w   DF .text	000000000000000c _ZN7android15TimedEventQueue9StopEvent4fireEPS0_l
00000000002d4b30 g    DF .text	00000000000000a0 _ZN5movie13NnCodecPlayer4StopEv
000000000029e73c g    DF .text	0000000000000058 _ZN7android18SurfaceMediaSource12setFrameRateEi
00000000001cb5cc g    DF .text	0000000000000008 _ZN7android8NuPlayer8getStatsEv
000000000059e730  w   DO .data	0000000000000018 _ZTIN7android19NativeWindowWrapperE
00000000005ab020  w   DO .data	00000000000000c8 _ZTCN7android11BnInterfaceINS_11IMemoryHeapEEE0_NS_11IMemoryHeapE
00000000001ec89c  w   DF .text	000000000000008c _ZNK7android6VectorINS_11LiveSession13BandwidthItemEE16do_move_backwardEPvPKvm
0000000000054058 g    DF .text	0000000000000128 NvDdk2dSurfaceDump
00000000002e1cec g    DF .text	0000000000000008 _ZN5movie16NnCodecVideoSink17GetRenderIntervalEv
000000000020a514 g    DF .text	000000000000007c _ZN7android15OMXNodeInstance9getConfigE13OMX_INDEXTYPEPvm
000000000021b058 g    DF .text	00000000000006fc eHorzInterp1MC
00000000002bc568 g    DF .text	0000000000000230 _ZN8mkvmuxer7SegmentD2Ev
00000000002dbeb0 g    DF .text	0000000000000010 _ZN5movie26NnCodecAudioOutputReceiver29UpdateCurrentPlaybackPositionEl
0000000000287170 g    DF .text	000000000000014c _ZN7android10SoftVorbisC2EPKcPK16OMX_CALLBACKTYPEPvPP17OMX_COMPONENTTYPE
00000000002d7758 g    DF .text	000000000000005c _ZN5movie11NnMediaData13FreeItemValueEPNS0_4ItemE
000000000018e72c  w   DF .text	000000000000000c _ZThn8_NK7android11BnInterfaceINS_18IMediaPlayerClientEE22getInterfaceDescriptorEv
00000000002b9314 g    DF .text	00000000000000bc _ZN8mkvmuxer10VideoTrackD1Ev
00000000002e4564  w   DF .text	0000000000000044 _ZN7android17AHandlerReflectorIN5movie20NnCodecInputReceiverEED2Ev
0000000000190120  w   DF .text	0000000000000008 _ZN7android5BpOMX20enableGraphicBuffersEjj8OMX_BOOL
000000000051c360  w   DO .rodata	0000000000000026 _ZTSN7android8NuPlayer16SetSurfaceActionE
00000000005a5750  w   DO .data	0000000000000018 _ZTIN7android27AwesomeNativeWindowRendererE
000000000021da60 g    DF .text	0000000000000064 eChromaHorizontalMC2_SIMD
000000000016d5dc g    DF .text	0000000000000010 h264bsdIsByteAligned
0000000000276b90  w   DF .text	00000000000000c0 _ZNK7android6VectorINS_11MPEG4Source6SampleEE16do_move_backwardEPvPKvm
00000000001542f4 g    DF .text	0000000000000018 PVGetVideoDimensions
00000000001d3af0 g    DF .text	0000000000000080 _ZN7android8NuPlayer8Renderer23signalTimeDiscontinuityEv
00000000001de684  w   DF .text	0000000000000064 _ZNK7android6VectorINS_2spINS_7ALooperEEEE15do_move_forwardEPvPKvm
0000000000517e60  w   DO .rodata	000000000000002d _ZTSN7android11BnInterfaceINS_13IStreamSourceEEE
00000000001dbab4 g    DF .text	0000000000000094 _ZN7android7ABufferD1Ev
00000000005988c0 g    DO .data	0000000000000108 _ZTCN7android14BnStreamSourceE8_NS_7IBinderE
0000000000227630 g    DF .text	00000000000000e4 _Z15SortPicByPicNumPP14tagPictureDatai
000000000020f9b4 g    DF .text	0000000000000010 _ZN7android16SoftOMXComponent16GetConfigWrapperEPv13OMX_INDEXTYPES1_
00000000000dafac g    DF .text	0000000000000004 TVMRFlipQueueSetAttributes
000000000018ff94  w   DF .text	0000000000000048 _ZN7android5BpOMXD0Ev
000000000000e754 g    DF .text	000000000000027c NvMMBufMgrAlloc
00000000000f0210 g    DF .text	00000000000001c0 _Z9CHcr_ReadP13FDK_BITSTREAMP22CAacDecoderChannelInfo
0000000000589860 g    DO .data	0000000000000098 _ZTCN7android11AudioSystem24AudioPolicyServiceClientE8_NS_10IInterfaceE
00000000002cae80 g    DF .text	0000000000000008 _ZN5movie8nnPlayer9GetVolumeEPf
00000000001b68c4  w   DF .text	00000000000000a0 _ZN7android4ListINS_2spINS_7ABufferEEEED2Ev
00000000002a7210  w   DF .text	0000000000000034 _ZN7android6VectorINS_17MatroskaExtractor9TrackInfoEED2Ev
000000000026a094 g    DF .text	0000000000000090 _ZN7android13MPEG2TSWriterC1Ei
0000000000287440 g    DF .text	0000000000000024 _ZN7android10SoftVorbisD0Ev
000000000058ad48 g    DO .data	0000000000000058 _ZTVN7android27StaticAudioTrackClientProxyE
000000000022e080 g    DF .text	000000000000004c _ZN7android19TimedText3GPPSourceD1Ev
00000000005a5ec0 g    DO .data	0000000000000020 _ZTTN7android10JPEGSourceE
000000000029f0c8 g    DF .text	00000000000000b0 _ZN7android18SurfaceMediaSource16onFrameAvailableERKNS_10BufferItemE
00000000002c7dd8 g    DF .text	0000000000000104 _ZN7android10WebmMaster16serializePayloadEPh
0000000000587168 g    DO .data	00000000000000e8 _ZTVN7android7SoftAVCE
0000000000255ab0 g    DF .text	00000000000000b0 _ZN7android18CurlHttpConnectionC2EjPv
0000000000596b50  w   DO .data	00000000000000a8 _ZTCN7android11BpInterfaceINS_4IOMXEEE8_NS_9BpRefBaseE
00000000002741ac g    DF .text	0000000000000c20 _ZN7android11MPEG4Source4readEPPNS_11MediaBufferEPKNS_11MediaSource11ReadOptionsE
0000000000146b24 g    DF .text	000000000000005c _ZN7android9SoftMPEG421updatePortDefinitionsEbb
0000000000189520  w   DF .text	00000000000000bc _ZNK7android14BpAudioFlinger19getEffectDescriptorEPK13effect_uuid_sP19effect_descriptor_s
0000000000518290  w   DO .rodata	0000000000000048 _ZTSN7android12SortedVectorINS_16key_value_pair_tIiNS_2spINS_6SampleEEEEEEE
000000000024fdc4 g    DF .text	0000000000000300 _ZN7android13AwesomePlayer14initRenderer_lEv
00000000001bfc30 g    DF .text	0000000000000004 _ZN7android8NuPlayer14HTTPLiveSource5startEv
00000000001ea838 g    DF .text	0000000000000254 _ZN7android11LiveSession10addFetcherEPKc
00000000001df25c g    DF .text	0000000000000068 _ZN7android8AMessage9setStringEPKcS2_l
0000000000212414 g    DF .text	0000000000000294 PVAVCEncodeNAL
00000000005a1900 g    DO .data	00000000000000a0 _ZTTN7android3OMXE
00000000001f8e04 g    DF .text	000000000000030c _ZN7android19AnotherPacketSource4readEPPNS_11MediaBufferEPKNS_11MediaSource11ReadOptionsE
00000000002c0108 g    DF .text	0000000000000154 _ZN8mkvmuxer9WriteUIntEPNS_10IMkvWriterEy
00000000002e90d4 g    DF .text	0000000000000014 _ZN5movie7Decoder15GetOutputBufferEiPNS_6BufferEPNS_9MediaDataE
000000000024216c  w   DF .text	0000000000000024 _ZN7android6ACodec14ExecutingStateD0Ev
0000000000263ca4 g    DF .text	00000000000000c4 _ZN7android16MediaCodecSource7suspendEv
00000000001dfb1c g    DF .text	0000000000000160 _ZNK7android8AMessage3dupEv
00000000002431d0 g    DF .text	0000000000000058 _ZN7android12AMRExtractorD0Ev
00000000002db6d8 g    DF .text	0000000000000010 _ZN5movie26NnCodecVideoOutputReceiver24AcquireOutputBufferIndexEiPiPlS1_
00000000002e16bc g    DF .text	0000000000000160 _ZN5movie16NnCodecVideoSink30ReleaseOutputBufferIndexNativeEii
00000000002c9d74  w   DF .text	0000000000000028 _ZN7android15WebmSimpleBlockD2Ev
0000000000204d24 g    DF .text	0000000000000068 _ZN7android19GraphicBufferSource22signalEndOfInputStreamEv
00000000002e342c g    DF .text	0000000000000038 _ZN5movie20NnCodecInputReceiver8GetStateEv
000000000018cf80 g    DF .text	0000000000000004 _ZThn8_N7android16BnMediaCodecList10onTransactEjRKNS_6ParcelEPS1_j
00000000005a0730 g    DO .data	0000000000000018 _ZTIN7android9ATSParser10PSISectionE
0000000000226ce8 g    DF .text	0000000000000074 _Z26FmoGenerateType0MapUnitMapPiPjjj
00000000002cbc08 g    DF .text	0000000000000088 _ZN11nnAudioSink5pauseEv
0000000000242060  w   DF .text	000000000000004c _ZN7android6ACodec18UninitializedStateD2Ev
00000000002b1c30 g    DF .text	000000000000002c _ZNK9mkvparser4Tags6GetTagEi
0000000000520ce0 g    DO .rodata	000000000000001b _ZTSN7android14MediaCodecListE
00000000002c9940 g    DF .text	00000000000003c0 _ZN7android11WebmElement15VideoTrackEntryEmmmbPKc
00000000002d64ec g    DF .text	0000000000000178 _ZN5movie13NnCodecPlayer12GetTrackTypeEiPNS_9TrackTypeE
00000000002d5b48 g    DF .text	0000000000000058 _ZN5movie13NnCodecPlayer18ValidateTrackIndexEi
000000000029aa4c g    DF .text	0000000000000024 _ZN7android9SfNvnUtil7setRectEiiii
00000000002ce76c g    DF .text	0000000000000008 _ZN5movie12HLSExtractor13SetDataSourceEPKvi
0000000000295910 g    DF .text	0000000000000380 _ZN7android8OMXCodec20setImageOutputFormatE20OMX_COLOR_FORMATTYPEjj
00000000005acfa8 g    DO .data	0000000000000008 _ZN5movie7codecID42MEDIA_CODEC_ID_H264_MAIN_PROFILE_LEVEL_3_0E
00000000002a7310 g    DF .text	000000000000008c _ZN7android17MatroskaExtractor16getTrackMetaDataEmj
000000000025ef1c  w   DF .text	0000000000000010 _ZNK7android6VectorINS_10MediaCodec10BufferInfoEE16do_move_backwardEPvPKvm
00000000002b9f58 g    DF .text	0000000000000108 _ZNK8mkvmuxer10AudioTrack5WriteEPNS_10IMkvWriterE
0000000000211e3c  w   DF .text	00000000000000b0 _ZNK7android6VectorINS_14SoftAVCEncoder15InputBufferInfoEE15do_move_forwardEPvPKvm
000000000018c55c g    DF .text	0000000000000044 _ZTv0_n24_N7android13IEffectClientD0Ev
0000000000204c10 g    DF .text	0000000000000114 _ZN7android19GraphicBufferSource26setLatestSubmittedBuffer_lERKNS_22IGraphicBufferConsumer10BufferItemE
0000000000188684  w   DF .text	0000000000000084 _ZN7android14BpAudioFlinger7setModeE12audio_mode_t
0000000000599d40  w   DO .data	0000000000000098 _ZTCN7android16BpStreamListenerE0_NS_10IInterfaceE
000000000059dce0  w   DO .data	0000000000000028 _ZTIN7android6VectorINS_2spINS_7ABufferEEEEE
000000000059e8d0  w   DO .data	0000000000000018 _ZTIN7android8NuPlayer12SimpleActionE
000000000051c550  w   DO .rodata	0000000000000028 _ZTSN7android4ListINS_2spINS_8AMessageEEEEE
00000000002165ac g    DF .text	0000000000000080 AVCFindMin
000000000058ada0 g    DO .data	0000000000000018 _ZTIN7android27StaticAudioTrackClientProxyE
0000000000256df8 g    DF .text	000000000000006c _ZN7android11MediaBufferC2EPvm
0000000000520b20 g    DO .rodata	0000000000000019 _ZTSN7android12MediaAdapterE
00000000002a858c g    DF .text	00000000000000f4 _ZN9mkvparser13GetUIntLengthEPNS_10IMkvReaderExRl
0000000000521b24 g    DO .rodata	0000000000000004 _ZN7android11SampleTable17kSampleSizeType32E
000000000029bbb8 g    DF .text	000000000000011c _ZN7android9SfNvnUtil20ConvertRGB32ToPlanarEPhmmPKhmmmb
000000000023c910 g    DF .text	0000000000000220 _ZN7android6ACodec9BaseState20onOMXEmptyBufferDoneEj
0000000000517da0  w   DO .rodata	0000000000000011 _ZTSN7android5BpOMXE
00000000002cea48 g    DF .text	0000000000000044 _ZNK5movie12HLSExtractor13GetFileFormatEPNS_9MediaDataE
0000000000111480 g    DF .text	0000000000000008 _Z29CLatmDemux_GetOtherDataLengthP10CLatmDemux
000000000058cfe0  w   DO .data	0000000000000058 _ZTTN7android11BnInterfaceINS_13IAudioFlingerEEE
00000000002b7914 g    DF .text	0000000000000798 _ZN9mkvparser5Block5ParseEPKNS_7ClusterE
00000000004fe0c0 g    DO .rodata	0000000000000100 SineWindow64
0000000000262ad8 g    DF .text	0000000000000080 _ZN7android16MediaCodecSource31postSynchronouslyAndReturnErrorERKNS_2spINS_8AMessageEEE
0000000000108bac g    DF .text	0000000000000024 _Z9CalcLdInti
0000000000134288  w   DF .text	0000000000000008 _ZN7android11MediaSource21getNextSyncSampleTimeElPlNS0_11ReadOptions8SeekModeES1_Pm
0000000000179ecc g    DF .text	0000000000000034 _ZN7android11AudioRecord17AudioRecordThread5pauseEv
00000000002b8168 g    DF .text	0000000000000010 _ZN9mkvparser5BlockD1Ev
000000000020fa44 g    DF .text	0000000000000048 _ZN7android16SoftOMXComponentD1Ev
0000000000266034 g    DF .text	000000000000004c _ZN7android8MetaData10setCStringEjPKc
00000000001984b0 g    DF .text	0000000000000074 _ZN7android9SoundPool6unloadEi
00000000001a7e20 g    DF .text	0000000000000008 XmlSizeOfUnknownEncoding
0000000000596f50  w   DO .data	0000000000000098 _ZTCN7android13BpOMXObserverE0_NS_10IInterfaceE
00000000002df460  w   DF .text	0000000000000174 _ZNSt3__16vectorIcNS_9allocatorIcEEE8__appendEm
0000000000234e7c g    DF .text	00000000000000f0 _ZN7android6ACodec36freeOutputBuffersNotOwnedByComponentEv
00000000005207f0 g    DO .rodata	000000000000001a _ZTSN7android13AwesomePlayerE
000000000019185c  w   DF .text	0000000000000050 _ZTv0_n24_N7android11BnInterfaceINS_15IStreamListenerEED0Ev
0000000000588990 g    DO .data	00000000000000a0 _ZTTN7android11AudioSystem18AudioFlingerClientE
0000000000517c80  w   DO .rodata	0000000000000020 _ZTSN7android19BpMediaPlayerClientE
000000000059d310 g    DO .data	0000000000000170 _ZTCN7android8NuPlayer22NuPlayerStreamListenerE0_NS_16BnStreamListenerE
000000000028259c g    DF .text	00000000000000b8 _ZN7android15NuCachedSource218releaseCachedBytesEv
00000000002576ac g    DF .text	0000000000000048 _ZN7android16MediaBufferGroupC2Ev
0000000000276378  w   DF .text	0000000000000100 _ZNK7android6VectorINS_14MPEG4Extractor8PsshInfoEE15do_move_forwardEPvPKvm
0000000000147fb4 g    DF .text	00000000000001a0 quickSearchGOBHeader
000000000012d4c4 g    DF .text	000000000000002c _Z18FreeRam_SbrDecoderPP20SBR_DECODER_INSTANCE
000000000017f630  w   DF .text	00000000000000b4 _ZNK7android6VectorINS_8AudioMixEE16do_move_backwardEPvPKvm
00000000000ecd20  w   DF .text	00000000000000f0 _ZNK7android6VectorINS_22SimpleSoftOMXComponent8PortInfoEE7do_copyEPvPKvm
00000000001de860 g    DF .text	000000000000009c _ZN7android8AMessage5clearEv
00000000002b0c48 g    DF .text	000000000000001c _ZNK9mkvparser8Chapters7Edition11ShallowCopyERS1_
000000000019b2d8  w   DF .text	0000000000000008 _ZN7android15MediaPlayerBase6setUIDEj
00000000001db45c g    DF .text	00000000000000b8 _ZN7android10ABitReader15getBitsGracefulEmPj
000000000017aff4  w   DF .text	000000000000004c _ZN7android11AudioRecord13DeathNotifierD1Ev
00000000002d24bc g    DF .text	0000000000000040 _ZN5movie7NnMuxer11SetLocationEii
00000000001e11ec g    DF .text	000000000000001c _ZN7android7AStringC1Ev
00000000001d0e74 g    DF .text	0000000000000038 _ZNK7android8NuPlayer18DecoderPassThrough14isDoneFetchingEv
0000000000520d00  w   DO .rodata	000000000000002b _ZTSN7android6VectorINS_17CodecProfileLevelEEE
000000000016af60 g    DF .text	000000000000021c h264bsdCompareSeqParamSets
00000000001dbe14 g    DF .text	0000000000000194 _ZN7android6ADebug23GetDebugLevelFromStringEPKcS2_NS0_5LevelE
0000000000113db8 g    DF .text	000000000000001c setLimiterThreshold
0000000000154560 g    DF .text	0000000000000054 PVLocateH263FrameHeader
00000000002b8558 g    DF .text	00000000000000bc _ZN8mkvmuxer11ChunkedCopyEPN9mkvparser10IMkvReaderEPNS_10IMkvWriterExx
0000000000014564 g    DF .text	0000000000000004 NvMMSetNonBlocking
00000000001f87e8 g    DF .text	00000000000000f4 _ZN7android19AnotherPacketSourceD2Ev
00000000005ac458  w   DO .data	0000000000000030 _ZTVN9mkvparser10AudioTrackE
00000000002d7068 g    DF .text	000000000000003c _ZN5movie13NnCodecPlayer16FillOutputBufferEiiPNS_6BufferEPlPj
0000000000012cbc g    DF .text	0000000000000094 NvMMSetUserAgentString
00000000000ed1e8  w   DF .text	0000000000000080 _ZN7android4ListIPNS_22SimpleSoftOMXComponent10BufferInfoEED2Ev
00000000002e7ee8 g    DF .text	0000000000000008 _ZN5movie11DecoderImpl12GetLastErrorEv
00000000002514d8 g    DF .text	0000000000000010 _ZN7android13AwesomePlayer19ContinuePreparationEPv
00000000002d2c88 g    DF .text	000000000000002c _ZN5movie13NnCodecPlayer10IsHlsVideoEPKc
00000000002674a8 g    DF .text	0000000000000524 _ZN7android12MP3ExtractorC1ERKNS_2spINS_10DataSourceEEERKNS1_INS_8AMessageEEE
00000000000cc940 g    DF .text	0000000000000008 TVMRVideoGetHeader
00000000001be930 g    DF .text	0000000000000344 _ZNK7android19ASessionDescription13getDimensionsEmmPiS1_
00000000002770a0 g    DF .text	000000000000049c _ZN7android11MPEG4Writer5resetEv
00000000000ec97c g    DF .text	0000000000000060 _ZN7android8SoftAAC27onResetEv
00000000002edef4 g    DF .text	0000000000000038 _ZN5movie15NnCodecConsumer14clearSetBufferEv
000000000020c374 g    DF .text	00000000000000c0 _ZN7android15OMXNodeInstance18invalidateBufferIDEj
000000000021d8ec g    DF .text	00000000000000c0 eChromaVerticalMC_SIMD
00000000002d1434 g    DF .text	0000000000000044 _ZN5movie7NnCodec28RenderOutputBufferAndReleaseEil
00000000000f2f2c g    DF .text	0000000000000274 _Z29Hcr_State_BODY_SIGN_ESC__SIGNP13FDK_BITSTREAMPv
00000000001fd478  w   DF .text	000000000000005c _ZNK7android12SortedVectorINS_16key_value_pair_tIjNS_2spINS_9ATSParser10PSISectionEEEEEE7do_copyEPvPKvm
00000000005a2150 g    DO .data	0000000000000098 _ZTCN7android3OMXE0_NS_10IInterfaceE
0000000000246334 g    DF .text	00000000000002ec _ZN7android11AudioSource12dataCallbackERKNS_11AudioRecord6BufferE
00000000002bb604 g    DF .text	00000000000000f8 _ZN8mkvmuxer7Cluster26AddFrameWithDiscardPaddingEPKhyxyyb
00000000000db0a0 g    DF .text	000000000000000c TVMRCaptureReleaseFrameRAW
0000000000242ca0 g    DF .text	0000000000000024 _ZN7android9CodecBaseD0Ev
000000000028fcb8 g    DF .text	0000000000000018 _ZN7android8OMXCodec16setComponentRoleEv
000000000029c67c g    DF .text	0000000000000008 sysconf
00000000004f03ba g    DO .rodata	0000000000000020 aDimCb
000000000059eb10  w   DO .data	0000000000000028 _ZTIN7android12SortedVectorINS_16key_value_pair_tIlNS_2spINS_7ABufferEEEEEEE
00000000001d8950 g    DF .text	0000000000000024 _ZNK7android8NuPlayer15StreamingSource10isRealTimeEv
000000000023b290 g    DF .text	000000000000008c _ZN7android6ACodec54waitUntilAllPossibleNativeWindowBuffersAreReturnedToUsEv
0000000000520f70  w   DO .rodata	000000000000005d _ZTSZN7android14ReferenceMover15move_referencesINS_12MediaAdapterEEEvPNS_2spIT_EEPKS5_mE7Renamer
0000000000521510  w   DO .rodata	000000000000002d _ZTSN7android4ListINS_11MPEG4Writer9ChunkInfoEEE
00000000000cc76c g    DF .text	0000000000000004 TVMRVideoDecrypterDestroy
00000000002b0d70 g    DF .text	0000000000000004 _ZN9mkvparser8Chapters7EditionC2Ev
00000000005ad140 g    DO .data	0000000000000198 _ZTVN5movie8nnPlayerE
0000000000154510 g    DF .text	0000000000000050 PVLocateFrameHeader
00000000002ba950 g    DF .text	0000000000000004 _ZN8mkvmuxer7ChapterC2Ev
000000000014607c g    DF .text	0000000000000024 _ZN7android9SoftMPEG411initDecoderEv
0000000000264b44  w   DF .text	000000000000007c _ZN7android4ListIjED0Ev
0000000000517280  w   DO .rodata	0000000000000021 _ZTSN7android6VectorINS_8AudioMixEEE
000000000017a148 g    DF .text	0000000000000038 _ZNK7android11AudioRecord8getInputEv
0000000000254fb4 g    DF .text	00000000000000d4 _ZN7android10FileSource6readAtElPvm
000000000024462c g    DF .text	0000000000000058 _ZN7android11AudioPlayer17AudioSinkCallbackEPNS_15MediaPlayerBase9AudioSinkEPvmS4_NS2_10cb_event_tE
00000000002b195c g    DF .text	000000000000001c _ZNK9mkvparser8Chapters7Display11ShallowCopyERS1_
00000000000001b4 g    DF .text	0000000000000008 NvAvpAudioOpen
0000000000205118 g    DF .text	000000000000005c _ZN7android19GraphicBufferSource20setMaxTimestampGapUsEl
00000000002065ec g    DF .text	00000000000002b4 _ZN7android3OMX9listNodesEPNS_4ListINS_4IOMX13ComponentInfoEEE
000000000016ddd0 g    DF .text	0000000000000064 h264bsdMoreRbspData
00000000002b1e44 g    DF .text	000000000000002c _ZNK9mkvparser4Tags3Tag12GetSimpleTagEi
0000000000147ad8 g    DF .text	0000000000000104 quickSearchVideoPacketHeader
000000000059fad0 g    DO .data	0000000000000040 _ZTVN7android9AWakeLockE
0000000000200964 g    DF .text	0000000000000024 _ZN7android16MPEG2PSExtractorD0Ev
000000000059ac88  w   DO .data	0000000000000050 _ZTVN7android6VectorINS_2spINS_7IMemoryEEEEE
000000000021f5e8 g    DF .text	00000000000000fc InterpretSubMBTypeB
00000000005a73b8 g    DO .data	0000000000000008 _ZN7android30MEDIA_MIMETYPE_AUDIO_G711_ALAWE
00000000002c6cdc g    DF .text	0000000000000058 _ZN7android26WebmFrameMediaSourceThread4stopEv
00000000002ea328 g    DF .text	00000000000000c8 _ZN5movie11EncoderImpl14GetInputBufferEiPNS_6BufferE
00000000002ebaa0 g    DF .text	0000000000000010 _ZNK5movie9MediaData8FindRectEPKcPiS3_S3_S3_
00000000001f69d8  w   DF .text	000000000000003c _ZNK7android12SortedVectorINS_16key_value_pair_tINS_7AStringENS_2spINS_7ABufferEEEEEE12do_constructEPvm
00000000001f6b18  w   DF .text	000000000000009c _ZNK7android12SortedVectorINS_16key_value_pair_tINS_7AStringENS_2spINS_7ABufferEEEEEE15do_move_forwardEPvPKvm
000000000020a678 g    DF .text	00000000000000cc _ZN7android15OMXNodeInstance20enableGraphicBuffersEj8OMX_BOOL
0000000000207834 g    DF .text	00000000000000a4 _ZN7android3OMX14allocateBufferEjjmPjPPv
000000000018504c g    DF .text	0000000000000040 _ZN7android11ClientProxy10binderDiedEv
00000000002cc8b8 g    DF .text	0000000000000044 _ZN5movie11NnExtractor13GetSampleTimeEPl
0000000000140028 g    DF .text	0000000000000120 FinalizeBitConsumption
000000000020a3f4 g    DF .text	0000000000000028 _ZN7android15OMXNodeInstance16bumpDebugLevel_lEmm
0000000000159264 g    DF .text	0000000000000370 DecodeVOPHeader
00000000002133d4 g    DF .text	0000000000000158 VerifyProfile
0000000000187918  w   DF .text	0000000000000040 _ZN7android14BpAudioFlingerD1Ev
00000000001fd9bc  w   DF .text	0000000000000060 _ZNK7android6VectorINS_10StreamInfoEE8do_splatEPvPKvm
000000000059ff50  w   DO .data	0000000000000028 _ZTIN7android12SortedVectorINS_16key_value_pair_tINS_11LiveSession10StreamTypeENS_2spINS_19AnotherPacketSourceEEEEEEE
0000000000522470  w   DO .rodata	000000000000002c _ZTSN7android4ListINS_2spINS_11WebmElementEEEEE
00000000001c0558 g    DF .text	0000000000000008 _ZN7android8NuPlayer14HTTPLiveSource17setPlayerObserverEPN5movie14PlayerObserverE
00000000005a7278  w   DO .data	0000000000000010 _ZTIN7android4ListIjEE
0000000000058498 g    DF .text	0000000000000168 jpegTegraMgrDestroy
000000000014f0dc g    DF .text	0000000000000460 GetPredAdvancedBy1x0
00000000001bfa38 g    DF .text	0000000000000038 _ZN7android8NuPlayer14HTTPLiveSource26terminateNetworkConnectionEv
00000000005a29e8  w   DO .data	0000000000000050 _ZTVN7android6VectorINS_15OMXNodeInstance12ActiveBufferEEE
000000000021f5b4 g    DF .text	0000000000000034 InterpretSubMBTypeP
000000000026227c g    DF .text	0000000000000064 _ZN7android16MediaCodecSource6Puller9handleEOSEv
0000000000266fe8 g    DF .text	0000000000000068 _ZNK7android8MetaData9dumpToLogEv
000000000014f53c g    DF .text	00000000000003b4 GetPredAdvancedBy1x1
0000000000286e2c g    DF .text	000000000000001c _ZN7android12OggExtractor11getMetaDataEv
00000000001cd668 g    DF .text	000000000000020c _ZN7android8NuPlayer7DecoderD2Ev
00000000001019e4 g    DF .text	00000000000000b0 FDK_Fetch
00000000005a73c8 g    DO .data	0000000000000008 _ZN7android24MEDIA_MIMETYPE_AUDIO_RAWE
000000000018eb48  w   DF .text	0000000000000048 _ZTv0_n24_N7android11BpInterfaceINS_18IMediaPlayerClientEED1Ev
00000000001b8b38 g    DF .text	0000000000000d64 _ZN7android20AMPEG4AudioAssemblerC1ERKNS_2spINS_8AMessageEEERKNS_7AStringE
00000000002483ec g    DF .text	0000000000000024 _ZN7android12AVIExtractor9AVISourceD0Ev
0000000000208254  w   DF .text	0000000000000044 _ZTv0_n24_N7android3OMX24CallbackDispatcherThreadD0Ev
00000000002483dc g    DF .text	0000000000000010 _ZTv0_n24_N7android12AVIExtractor9AVISourceD1Ev
000000000019edf8 g    DF .text	0000000000000010 XML_ExpatVersionInfo
000000000059d970 g    DO .data	0000000000000018 _ZTIN7android8NuPlayer22NuPlayerStreamListenerE
00000000005a5be0 g    DO .data	0000000000000018 _ZTIN7android18InMemoryFileSourceE
0000000000272fdc g    DF .text	00000000000000e0 _ZN7android11MPEG4SourceD2Ev
00000000002cd61c g    DF .text	00000000000001bc _ZN5movie14NnMSEExtractor7AdvanceEv
00000000002603e4 g    DF .text	0000000000000c58 _ZN7android14MediaCodecList8addLimitEPPKc
00000000001325d0 g    DF .text	0000000000000468 WAV_InputOpen
000000000013aac0 g    DF .text	0000000000000090 InitBlockSwitching
00000000001ea118 g    DF .text	0000000000000018 _ZN7android11LiveSession15SortByBandwidthEPKNS0_13BandwidthItemES3_
000000000024e558 g    DF .text	00000000000000c0 _ZN7android13AwesomePlayer16notifyListener_lEiii
00000000005aa5f0 g    DO .data	0000000000000050 _ZTVN7android11SfMemDealerE
00000000002eab70 g    DF .text	0000000000000014 _ZN5movie7Encoder9ConfigureEPNS_9MediaDataEPN2nn2vi5LayerE
000000000017c9ac g    DF .text	0000000000000004 _ZThn8_N7android11AudioSystem18AudioFlingerClient15ioConfigChangedEiiPKv
000000000019b3d8 g    DF .text	00000000000000ec _ZN7android13MediaProfilerD1Ev
0000000000520d30  w   DO .rodata	0000000000000030 _ZTSN7android6VectorINS_14MediaCodecList7SectionEEE
000000000022f6c0 g    DF .text	000000000000007c _ZN7android15TimedTextPlayerD0Ev
00000000001cb698 g    DF .text	00000000000000bc _ZN7android8NuPlayer21performResumeDecodersEb
0000000000276590  w   DF .text	0000000000000004 _ZNK7android6VectorINS_4TrexEE12do_constructEPvm
0000000000231578  w   DF .text	0000000000000034 _ZN7android12SortedVectorINS_16key_value_pair_tIlNS_18TimedTextSRTSource8TextInfoEEEED2Ev
000000000025a1bc g    DF .text	000000000000001c _ZNK7android10MediaCodec11isExecutingEv
00000000005ac0e0 g    DO .data	0000000000000078 _ZTVN7android17MatroskaExtractorE
00000000002cf194 g    DF .text	00000000000000a8 _ZNK5movie12HLSExtractor16GetBufferedRangeEPlS1_
000000000010cb60 g    DF .text	000000000000002c _Z19CProgramConfig_InitP14CProgramConfig
00000000002500c4 g    DF .text	0000000000000024 _ZN7android13AwesomePlayer21setVideoScalingMode_lEi
0000000000589198 g    DO .data	00000000000001b0 _ZTVN7android11AudioSystem24AudioPolicyServiceClientE
00000000001eddb0 g    DF .text	0000000000000008 _ZNK7android9M3UParser17isVariantPlaylistEv
0000000000238bd8 g    DF .text	000000000000014c _ZN7android6ACodec19setupRawAudioFormatEjii
0000000000593ad0  w   DO .data	0000000000000038 _ZTIN7android11BnInterfaceINS_18IMediaPlayerClientEEE
00000000002badd8 g    DF .text	0000000000000008 _ZN8mkvmuxer8ChaptersC2Ev
00000000002400c0 g    DF .text	000000000000021c _ZN7android6ACodec14ExecutingState26submitRegularOutputBuffersEv
000000000029bcd4 g    DF .text	0000000000000010 _Z27SetAACEncoderThreadPriorityi
00000000002b2448 g    DF .text	0000000000000048 _ZN9mkvparser15ContentEncoding17ContentEncryptionD2Ev
00000000002ccae8 g    DF .text	0000000000000014 _ZN5movie14ignoreEOSErrorEPi
00000000000cccb0 g    DF .text	0000000000000048 TVMRDeviceGetVicClock
0000000000231e84 g    DF .text	000000000000007c _ZN7android12AACExtractorD0Ev
00000000002e8780  w   DF .text	0000000000000044 _ZNSt3__117__call_once_proxyINS_5tupleIJOZNK5movie6detail16TelemetryTrackerINS3_9SetAlwaysENS3_11ErrReporterEE9TryReportEvEUlvE_EEEEEvPv
0000000000190110  w   DF .text	0000000000000008 _ZN7android5BpOMX26prepareForAdaptivePlaybackEjj8OMX_BOOLjj
00000000001fda1c  w   DF .text	000000000000009c _ZNK7android6VectorINS_10StreamInfoEE15do_move_forwardEPvPKvm
00000000000db088 g    DF .text	000000000000000c TVMRCaptureReleaseFrameYUV
0000000000177a98  w   DF .text	0000000000000048 _ZN7android11BnInterfaceINS_13IEffectClientEED0Ev
00000000002015a4 g    DF .text	00000000000000cc _ZN7android16MPEG2PSExtractor5TrackC1EPS0_jj
000000000017f004  w   DF .text	0000000000000040 _ZThn8_N7android11AudioSystem24AudioPolicyServiceClientD1Ev
0000000000180684 g    DF .text	0000000000000248 memcpy_by_index_array
0000000000189e28  w   DF .text	00000000000000a0 _ZN7android14BpAudioFlinger18setAudioPortConfigEPK17audio_port_config
000000000051bfa0 g    DO .rodata	0000000000000026 _ZTSN7android25AMPEG4ElementaryAssemblerE
0000000000268b78  w   DF .text	0000000000000068 _ZN7android12MP3ExtractorD0Ev
000000000019af54 g    DF .text	0000000000000008 _ZN7android17StagefrightPlayer13setDataSourceERKNS_2spINS_17IMediaHTTPServiceEEEPKcPKNS_11KeyedVectorINS_7String8ES9_EE
0000000000217d60 g    DF .text	00000000000000b4 BitstreamTrailingBits
0000000000289260 g    DF .text	00000000000000b4 _ZN7android6MuxOMX11emptyBufferEjjjjjx
00000000002db474 g    DF .text	00000000000000bc _ZN5movie26NnCodecVideoOutputReceiverD2Ev
0000000000591420 g    DO .data	0000000000000108 _ZTCN7android14BnEffectClientE8_NS_7IBinderE
00000000001960e0 g    DF .text	0000000000000084 _ZN7android11MediaPlayer5pauseEv
00000000002b506c g    DF .text	0000000000000014 _ZN9mkvparser6TracksC2EPNS_7SegmentExxxx
00000000001b9a78 g    DF .text	000000000000002c _ZN7android20AMPEG4AudioAssembler12assembleMoreERKNS_2spINS_10ARTPSourceEEE
00000000001b5794  w   DF .text	0000000000000040 _ZNK7android12SortedVectorINS_16key_value_pair_tIjNS_2spINS_10ARTPSourceEEEEEE10do_destroyEPvm
00000000002db248 g    DF .text	000000000000022c _ZN5movie26NnCodecVideoOutputReceiverC1EN7android2spINS_26NnCodecAudioOutputReceiverEEENS2_INS_12NnMediaClockEEEPNS_14PlayerObserverEPNS_12PlayerConfigE
000000000010b304 g    DF .text	00000000000000e4 _Z21qmfSynthesisFilteringP15QMF_FILTER_BANKPPiS2_PK16QMF_SCALE_FACTORiPsiS1_
00000000001cc6a4 g    DF .text	0000000000000010 _ZNK7android8NuPlayer9CCDecoder12isTrackValidEm
0000000000589e60  w   DO .data	0000000000000098 _ZTCN7android11BnInterfaceINS_19IAudioFlingerClientEEE0_NS_10IInterfaceE
00000000001de6e8  w   DF .text	0000000000000064 _ZNK7android6VectorINS_2spINS_7ALooperEEEE16do_move_backwardEPvPKvm
00000000005ae520 g    DO .data	00000000000000e0 _ZTVN5movie15NnCodecConsumerE
00000000004fd9c0 g    DO .rodata	0000000000000500 qmf_cldfb_320
0000000000194be0 g    DF .text	000000000000013c _ZN7android11MediaPlayerC1Ev
00000000001cb5d4 g    DF .text	0000000000000010 _ZN7android8NuPlayer18cancelPollDurationEv
00000000005a68d0 g    DO .data	0000000000000178 _ZTCN7android14MediaCodecListE0_NS_11BnInterfaceINS_15IMediaCodecListEEE
00000000001d3c0c g    DF .text	000000000000003c _ZN7android8NuPlayer8Renderer16setVideoLateByUsEl
00000000002029a0 g    DF .text	0000000000000008 _ZN7android16MPEG2TSExtractor11countTracksEv
0000000000257aec  w   DF .text	0000000000000004 _ZN7android9SingletonINS_10MediaCodec15BatteryNotifierEED1Ev
00000000005919f0  w   DO .data	0000000000000018 _ZTIN7android14BpEffectClientE
00000000001c5964  w   DF .text	000000000000003c _ZN7android6VectorINS_2spINS_11MediaSourceEEEED0Ev
00000000001dd684  w   DF .text	0000000000000020 _ZNK7android12SortedVectorINS_16key_value_pair_tIjNS_2spINS_8AMessageEEEEEE10do_compareEPKvS8_
00000000002b37c0 g    DF .text	0000000000000008 _ZNK9mkvparser5Track10GetCodecIdEv
00000000001331cc g    DF .text	00000000000000a8 _ZN7android10AACEncoderC1ERKNS_2spINS_11MediaSourceEEERKNS1_INS_8MetaDataEEE
000000000019e3ac g    DF .text	000000000000000c XML_SetUnknownEncodingHandler
00000000005aa290 g    DO .data	0000000000000028 _ZTIN7android8SfThreadE
00000000002ed108  w   DF .text	0000000000000044 _ZTv0_n24_N5movie22NULLGraphicBufferAllocD0Ev
0000000000252c48 g    DF .text	0000000000000014 _ZNK7android18CallbackDataSource9initCheckEv
00000000002c796c g    DF .text	0000000000000050 _ZN7android10WebmStringC1EmPKc
00000000005a3388  w   DO .data	0000000000000058 _ZTVN7android12SortedVectorINS_16key_value_pair_tImNS_2spINS_15TimedTextSourceEEEEEEE
00000000002a05ac  w   DF .text	0000000000000004 _ZN7android16SystemTimeSourceD0Ev
000000000024a22c g    DF .text	0000000000000660 _ZN7android12AVIExtractor10parseIndexElm
000000000029f0c0 g    DF .text	0000000000000008 _ZThn8_N7android18SurfaceMediaSource20signalBufferReturnedEPNS_11MediaBufferE
00000000002ade0c g    DF .text	00000000000002b8 _ZNK9mkvparser4Cues12LoadCuePointEv
00000000002c9d00  w   DF .text	0000000000000004 _ZN7android12WebmUnsignedD0Ev
0000000000205020 g    DF .text	0000000000000098 _ZN7android19GraphicBufferSource17onBuffersReleasedEv
0000000000219244 g    DF .text	00000000000000cc _Z8Qstep2QPd
00000000001540bc g    DF .text	00000000000001c8 PVCleanUpVideoDecoder
00000000005a0788  w   DO .data	0000000000000010 _ZTIN7android4ListINS_21ElementaryStreamQueue9RangeInfoEEE
00000000001c6598 g    DF .text	0000000000000040 _ZN7android8NuPlayer12prepareAsyncEv
00000000002b7084 g    DF .text	00000000000000cc _ZNK9mkvparser7Cluster12GetFirstTimeEv
0000000000154380 g    DF .text	000000000000000c PVGetDecFramerate
0000000000240bd8 g    DF .text	0000000000000004 _ZN7android6ACodec30OutputPortSettingsChangedState12stateEnteredEv
00000000002a91ec g    DF .text	0000000000000020 _ZN9mkvparser10EBMLHeaderC2Ev
000000000010cb8c g    DF .text	0000000000000010 _Z22CProgramConfig_IsValidPK14CProgramConfig
00000000002b8760 g    DF .text	0000000000000014 _ZN8mkvmuxer8CuePointC2Ev
0000000000165ebc g    DF .text	0000000000000580 h264bsdDecodeMacroblock
000000000029f958 g    DF .text	000000000000013c _ZN7android15TimedEventQueue4stopEb
0000000000276ab8  w   DF .text	00000000000000d8 _ZNK7android6VectorINS_11MPEG4Source6SampleEE15do_move_forwardEPvPKvm
0000000000589490 g    DO .data	0000000000000170 _ZTCN7android11AudioSystem24AudioPolicyServiceClientE8_NS_26BnAudioPolicyServiceClientE
0000000000591ee0 g    DO .data	0000000000000018 _ZTIN7android15IMediaCodecListE
00000000002b78d8 g    DF .text	0000000000000004 _ZN9mkvparser10BlockEntryD0Ev
00000000001888a0  w   DF .text	000000000000009c _ZNK7android14BpAudioFlinger13getParametersEiRKNS_7String8E
00000000005a3f90 g    DO .data	0000000000000038 _ZTIN7android6ACodecE
0000000000254a38 g    DF .text	0000000000000078 _ZNK7android4ESDS20skipDescriptorHeaderEmmPhPmS2_
000000000029bde8 g    DF .text	0000000000000084 _ZN7android8SfThreadD1Ev
00000000005a7560 g    DO .data	0000000000000018 _ZTIN7android10MediaMuxerE
0000000000146194 g    DF .text	00000000000005ec _ZN7android9SoftMPEG413onQueueFilledEj
00000000002b8fb8 g    DF .text	0000000000000070 _ZNK8mkvmuxer15ContentEncoding14EncryptionSizeEv
00000000001cefbc g    DF .text	0000000000000064 _ZN7android8NuPlayer7Decoder17onGetInputBuffersEPNS_6VectorINS_2spINS_7ABufferEEEEE
00000000002d76ac g    DF .text	0000000000000008 _ZN5movie11NnMediaDataC2Ev
000000000018f0d8 g    DF .text	0000000000000038 _ZN7android4IOMXD0Ev
000000000025271c  w   DF .text	0000000000000040 _ZN7android27AwesomeNativeWindowRendererD2Ev
00000000005880f0  w   DO .data	0000000000000118 _ZTCN7android11BnInterfaceINS_13IEffectClientEEE8_NS_7BBinderE
00000000005a06f0 g    DO .data	0000000000000018 _ZTIN7android9ATSParser6StreamE
00000000002b1978 g    DF .text	0000000000000004 _ZN9mkvparser8Chapters7DisplayC1Ev
000000000018415c g    DF .text	000000000000004c _ZN7android10AudioTrack16AudioTrackThreadD2Ev
000000000051d460  w   DO .rodata	0000000000000057 _ZTSN7android12SortedVectorINS_16key_value_pair_tIjNS_2spINS_9ATSParser10PSISectionEEEEEEE
00000000005ab720 g    DO .data	00000000000000b0 _ZTCN7android18SurfaceMediaSourceE16_NS_16ConsumerListenerE
00000000002c1528 g    DF .text	0000000000000760 _ZN8mkvmuxer18WriteMetadataBlockEPNS_10IMkvWriterEPKhyyxy
00000000002c65b0 g    DF .text	0000000000000060 _ZN7android19WebmFrameSinkThread5startEv
0000000000145958 g    DF .text	0000000000000114 voAACEnc_iLog4
0000000000245a38  w   DF .text	0000000000000080 _ZN7android4ListIPNS_11MediaBufferEED2Ev
00000000002149bc g    DF .text	0000000000000244 AVCPrepareCurMB
00000000001c5e98 g    DF .text	0000000000000054 _ZN7android8NuPlayer9setDriverERKNS_2wpINS_14NuPlayerDriverEEE
0000000000109100 g    DF .text	00000000000001c0 _Z5fLog2iiPi
000000000059fe60  w   DO .data	0000000000000018 _ZTIN7android11LiveSession18BandwidthEstimatorE
00000000005abbb8 g    DO .data	0000000000000050 _ZTVN7android10VBRISeekerE
00000000002bafc0 g    DF .text	00000000000000f4 _ZNK8mkvmuxer8Chapters5WriteEPNS_10IMkvWriterE
0000000000252d5c g    DF .text	0000000000000040 _ZN7android18CallbackDataSource7getSizeEPl
00000000002615e8  w   DF .text	0000000000000030 _ZNK7android14MediaCodecList12getCodecInfoEm
00000000001de9cc g    DF .text	0000000000000008 _ZNK7android8AMessage6targetEv
000000000018ba50  w   DF .text	0000000000000048 _ZThn8_N7android8BnEffectD1Ev
000000000016dc48 g    DF .text	00000000000000f8 h264bsdProcessChromaDc
000000000018bcf0  w   DF .text	0000000000000050 _ZTv0_n24_N7android11BpInterfaceINS_7IEffectEED0Ev
000000000025113c g    DF .text	0000000000000058 _ZN7android13AwesomePlayer12prepareAsyncEv
0000000000250edc g    DF .text	0000000000000028 _ZN7android13AwesomePlayer21postStreamDoneEvent_lEi
00000000001b57d4  w   DF .text	000000000000005c _ZNK7android12SortedVectorINS_16key_value_pair_tIjNS_2spINS_10ARTPSourceEEEEEE7do_copyEPvPKvm
00000000002ce18c g    DF .text	00000000000001b8 _ZN5movie12HLSExtractorD2Ev
00000000005a40f0 g    DO .data	0000000000000018 _ZTIN7android6ACodec17IdleToLoadedStateE
0000000000586dc8  w   DO .data	0000000000000058 _ZTVN7android12SortedVectorINS_16key_value_pair_tIixEEEE
0000000000596010 g    DO .data	0000000000000018 _ZTIN7android13BnOMXObserverE
00000000001cb240 g    DF .text	00000000000000a8 _ZN7android8NuPlayer19setVideoScalingModeEi
00000000005d5820 g    DO .bss	0000000000000008 _ZN7android19IAudioFlingerClient10descriptorE
0000000000194068  w   DF .text	0000000000000060 _ZNK7android12SortedVectorINS_16key_value_pair_tINS_7AStringENS_2spINS_14MediaCodecInfo12CapabilitiesEEEEEE7do_copyEPvPKvm
00000000002851f0 g    DF .text	0000000000000064 _ZN7android9OggSourceD2Ev
00000000005aebc0  w   DO .data	0000000000000118 _ZTCN5movie22NULLGraphicBufferAllocE8_N7android7BBinderE
000000000022b11c g    DF .text	00000000000000d0 _Z24InitNeighborAvailabilityP12tagCommonObji
0000000000210640  w   DF .text	0000000000000034 _ZN7android6VectorINS_14SoftAVCEncoder15InputBufferInfoEED2Ev
000000000059f2d0 g    DO .data	0000000000000018 _ZTIN7android7ABufferE
0000000000593780 g    DO .data	0000000000000018 _ZTIN7android18IMediaPlayerClientE
000000000059e118 g    DO .data	0000000000000040 _ZTVN7android19ASessionDescriptionE
00000000001c0568  w   DF .text	0000000000000004 _ZN7android8NuPlayer6Source6resumeEv
00000000005a81f0 g    DO .data	00000000000000d8 _ZTCN7android11MPEG4SourceE0_NS_11MediaSourceE
000000000029cb24 g    DF .text	0000000000000084 _ZTv0_n24_N7android12SfMemoryHeapD0Ev
0000000000591d58 g    DO .data	00000000000000c0 _ZTVN7android15IMediaCodecListE
00000000001ccd5c g    DF .text	0000000000000060 _ZN7android8NuPlayer9CCDecoder6decodeERKNS_2spINS_7ABufferEEE
00000000001d0c4c g    DF .text	0000000000000098 _ZN7android8NuPlayer18DecoderPassThroughC2ERKNS_2spINS_8AMessageEEERKNS2_INS0_6SourceEEERKNS2_INS0_8RendererEEE
0000000000279b38 g    DF .text	0000000000000030 _ZN7android11MPEG4Writer10reachedEOSEv
0000000000101be0 g    DF .text	000000000000001c _Z11FDKcrcResetP11FDK_CRCINFO
00000000002500e8 g    DF .text	0000000000000050 _ZN7android13AwesomePlayer5pauseEv
000000000026353c  w   DF .text	0000000000000080 _ZN7android4ListIlED2Ev
00000000002cdc14  w   DF .text	000000000000014c _ZNSt3__16vectorIN7android2spIN5movie23BrowserPlayerDataSourceEEENS_9allocatorIS5_EEE21__push_back_slow_pathIRKS5_EEvOT_
0000000000217e14 g    DF .text	0000000000000010 byte_aligned
00000000001fae3c g    DF .text	000000000000008c _ZN7android9ATSParser6Stream9getSourceENS0_10SourceTypeE
0000000000507cb4 g    DO .rodata	00000000000000fc scale
00000000001cc560 g    DF .text	0000000000000008 _ZNK7android8NuPlayer9CCDecoder13getTrackCountEv
0000000000246778 g    DF .text	0000000000000020 _ZN7android11AudioSource15getMaxAmplitudeEv
00000000005a7458 g    DO .data	0000000000000008 _ZN7android33MEDIA_MIMETYPE_CONTAINER_M3U8_HLSE
00000000002a2b08  w   DF .text	000000000000005c _ZN7android10VBRISeekerD0Ev
00000000001cc2a4  w   DF .text	0000000000000010 _ZN7android8NuPlayer19ResumeDecoderAction7executeEPS0_
000000000023ee7c g    DF .text	0000000000000068 _ZN7android6ACodec11LoadedStateC2EPS0_
00000000001cc10c  w   DF .text	0000000000000040 _ZN7android8NuPlayer16SetSurfaceActionD2Ev
00000000005af0e0  w   DO .data	0000000000000058 _ZTTN7android11BnInterfaceINS_19IGraphicBufferAllocEEE
000000000001143c g    DF .text	000000000000001c NvMMQueueGetNumEntries
000000000059dd08  w   DO .data	0000000000000018 _ZTVZN7android14ReferenceMover15move_referencesINS_7ABufferEEEvPNS_2spIT_EEPKS5_mE7Renamer
0000000000279244 g    DF .text	00000000000000e4 _ZN7android11MPEG4Writer11writeFourccEPKc
00000000005d5c48 g    DO .bss	0000000000000008 _ZN7android10DataSource9gSniffersE
00000000005879e0  w   DO .data	0000000000000098 _ZTCN7android11AudioEffect12EffectClientE0_NS_10IInterfaceE
000000000019c570 g    DF .text	0000000000000004 XML_ParserCreate_MM
00000000005a05d0 g    DO .data	0000000000000018 _ZTIN7android19AnotherPacketSourceE
000000000018ab0c g    DF .text	0000000000000030 _ZN7android25IAudioPolicyServiceClientD1Ev
0000000000190138  w   DF .text	0000000000000008 _ZN7android5BpOMX16useGraphicBufferEjjRKNS_2spINS_13GraphicBufferEEEPj
0000000000193cb0  w   DF .text	0000000000000014 _ZNK7android6VectorIjE7do_copyEPvPKvm
00000000005a0de0 g    DO .data	00000000000000d8 _ZTCN7android16MPEG2PSExtractor12WrappedTrackE0_NS_11MediaSourceE
00000000005a6e50  w   DO .data	0000000000000028 _ZTIN7android6VectorINS_17CodecProfileLevelEEE
00000000000db094 g    DF .text	000000000000000c TVMRCaptureReleaseFrameRGB
00000000002d2d90 g    DF .text	00000000000003b8 _ZN5movie13NnCodecPlayer13SetDataSourceEPKc
000000000017ace0 g    DF .text	0000000000000068 _ZTv0_n24_N7android11AudioRecord17AudioRecordThreadD1Ev
0000000000589160 g    DO .data	0000000000000038 _ZTIN7android11AudioSystem18AudioFlingerClientE
0000000000196564 g    DF .text	00000000000000a0 _ZN7android11MediaPlayer7reset_lEv
000000000017a26c g    DF .text	0000000000000284 _ZN7android11AudioRecord12obtainBufferEPNS0_6BufferEPK8timespecPS3_Pm
0000000000185b60  w   DF .text	0000000000000024 _ZN7android11ClientProxyD0Ev
00000000001c3b60 g    DF .text	0000000000000144 _ZN7android8NuPlayer13GenericSource12sendTextDataEjNS_16media_track_typeEiNS_2spINS_19AnotherPacketSourceEEENS3_INS_8AMessageEEE
0000000000146cec  w   DF .text	0000000000000004 _ZNK7android12SortedVectorINS_16key_value_pair_tIixEEE12do_constructEPvm
0000000000234238 g    DF .text	0000000000000054 _ZN7android6ACodec15PortDescription9addBufferEjRKNS_2spINS_7ABufferEEE
00000000002b420c g    DF .text	0000000000000010 _ZNK9mkvparser5Track23GetContentEncodingCountEv
00000000001eb570 g    DF .text	00000000000000cc _ZN7android11LiveSession11selectTrackEmb
000000000059f2e8 g    DO .data	0000000000000058 _ZTVN7android6AStateE
00000000005a0870  w   DO .data	0000000000000028 _ZTIN7android12SortedVectorINS_16key_value_pair_tIjNS_2spINS_9ATSParser6StreamEEEEEEE
00000000002e8148 g    DF .text	0000000000000638 _ZN5movie22DecoderMessageReceiver17onMessageReceivedERKN7android2spINS1_8AMessageEEE
0000000000165e90 g    DF .text	0000000000000020 h264bsdNumSubMbPart
00000000001fbf2c g    DF .text	00000000000001e4 _ZN7android9ATSParser19signalDiscontinuityENS0_17DiscontinuityTypeERKNS_2spINS_8AMessageEEE
0000000000233044 g    DF .text	0000000000000044 _ZThn16_N7android6ACodec25initiateAllocateComponentERKNS_2spINS_8AMessageEEE
00000000001f7a70 g    DF .text	0000000000000188 _ZNK7android3ID38Iterator5getIDEPNS_7String8E
0000000000180210 g    DF .text	000000000000005c memcpy_to_i32_from_i16
00000000002538d8 g    DF .text	0000000000000070 _ZN7android10DataSource17RegisterSniffer_lEPFbRKNS_2spIS0_EEPNS_7String8EPfPNS1_INS_8AMessageEEEE
00000000002cbfc0 g    DF .text	00000000000000ec _ZN5movie15PlayerExtractor6CreateEPPS0_PNS_15ExtractorConfigE
00000000002f0294  w   DF .text	0000000000000190 _ZN2nn2sf4hipc6detail17HipcMessageReader10InitializeEPKv
00000000005005dc g    DO .rodata	0000000000000030 FDK_sbrDecoder_sbr_huffBook_NoiseBalance11T
00000000001e3320 g    DF .text	0000000000000084 _ZN7android9AWakeLockD2Ev
00000000000ead60 g    DF .text	0000000000000110 _ZN7android8SoftAAC2D1Ev
0000000000521ec0 g    DO .rodata	0000000000000017 _ZTSN7android10VBRISeekerE
000000000051bfd0 g    DO .rodata	000000000000001e _ZTSN7android17AMPEG2TSAssemblerE
00000000001cd3bc  w   DF .text	0000000000000004 _ZNK7android6VectorImE12do_constructEPvm
00000000002c6d34 g    DF .text	0000000000000578 _ZN7android26WebmFrameMediaSourceThread3runEv
000000000022c620 g    DF .text	00000000000000a4 _ZN7android28SoftVideoEncoderOMXComponentC2EPKcS2_20OMX_VIDEO_CODINGTYPEPKNS_17CodecProfileLevelEmiiPK16OMX_CALLBACKTYPEPvPP17OMX_COMPONENTTYPE
0000000000131d74 g    DF .text	0000000000000164 _Z19IIS_ProcessCmdlListPKcPFiiPPcE
00000000002edfd0  w   DF .text	0000000000000098 _ZThn8_N7android11BnInterfaceINS_19IGraphicBufferAllocEE19queryLocalInterfaceERKNS_8String16E
00000000005997b0  w   DO .data	0000000000000048 _ZTTN7android11BpInterfaceINS_13IStreamSourceEEE
00000000005a3d30 g    DO .data	0000000000000078 _ZTVN7android6ACodec14ExecutingStateE
0000000000520b60  w   DO .rodata	000000000000001c _ZTSN7android15MediaBufferBaseE
0000000000297fc0  w   DF .text	000000000000003c _ZN7android6VectorIPNS_8OMXCodec17CodecSpecificDataEED0Ev
0000000000182764 g    DF .text	00000000000000ac _ZN7android10AudioTrack23setPositionUpdatePeriodEj
0000000000592b10  w   DO .data	0000000000000018 _ZTIN7android16BpMediaCodecListE
00000000005ac348  w   DO .data	0000000000000050 _ZTVN7android6VectorIPKN9mkvparser8CuePointEEE
00000000002d5f20 g    DF .text	0000000000000140 _ZN5movie13NnCodecPlayer14SeekToInternalElPl
00000000001caee4 g    DF .text	0000000000000098 _ZN7android8NuPlayer15postScanSourcesEv
000000000059fc90 g    DO .data	0000000000000018 _ZTIN7android9AWakeLockE
00000000002b9028 g    DF .text	0000000000000070 _ZNK8mkvmuxer15ContentEncoding12EncodingSizeEyy
00000000002eac4c g    DF .text	0000000000000014 _ZN5movie7Encoder19GetInputBufferIndexEPiS1_
000000000029bf98 g    DF .text	0000000000000010 _ZTv0_n24_N7android8SfThreadD0Ev
00000000002e3270 g    DF .text	0000000000000108 _ZN5movie20NnCodecInputReceiver5PauseEb
0000000000265f48 g    DF .text	0000000000000064 _ZN7android8MetaDataD0Ev
00000000002d85e8 g    DF .text	0000000000000030 _ZNK5movie11NnMediaData14GetEntryNameAtEmPNS0_4TypeE
000000000024dcac g    DF .text	0000000000000060 _ZN7android13AwesomePlayer15setDataSource_lERKNS_2spINS_10DataSourceEEE
0000000000287de0 g    DF .text	0000000000000144 _ZN7android10SoftVorbis21onPortEnableCompletedEjb
00000000005213a0  w   DO .rodata	0000000000000031 _ZTSN7android6VectorINS_14MPEG4Extractor8PsshInfoEEE
0000000000506bac g    DO .rodata	0000000000000152 huff_ctab10
0000000000506cfe g    DO .rodata	0000000000000242 huff_ctab11
00000000002cb5d0 g    DF .text	0000000000000058 _ZN11nnAudioSinkC2Ev
00000000002e01d0 g    DF .text	000000000000004c _ZN5movie16NnCodecVideoSink5StartEv
000000000013aec4 g    DF .text	00000000000000d8 CalcWindowEnergy
0000000000268350 g    DF .text	0000000000000010 _ZTv0_n24_N7android9MP3SourceD1Ev
0000000000521330 g    DO .rodata	000000000000001b _ZTSN7android14MPEG4ExtractorE
00000000002ecc7c g    DF .text	0000000000000010 _ZN5movie11SetCoreMaskEm
000000000051cbe0 g    DO .rodata	0000000000000015 _ZTSN7android9AWakeLockE
0000000000225ca4 g    DF .text	0000000000000378 cost_i4
00000000002eeffc  w   DF .text	0000000000000094 _ZThn16_NSt3__118basic_stringstreamIcNS_11char_traitsIcEENS_9allocatorIcEEED0Ev
00000000000161ec g    DF .text	000000000000007c NvMMLiteBlockDestroyStream
0000000000232220 g    DF .text	00000000000000a0 _ZN7android9AACSourceD2Ev
0000000000180a78 g    DF .text	0000000000000080 _ZN7android10AudioTrackC1Ev
00000000002edf38  w   DF .text	0000000000000098 _ZN7android11BnInterfaceINS_19IGraphicBufferAllocEE19queryLocalInterfaceERKNS_8String16E
000000000022bfd4 g    DF .text	00000000000001a8 _ZN7android28SoftVideoDecoderOMXComponent20internalGetParameterE13OMX_INDEXTYPEPv
00000000002eba50 g    DF .text	0000000000000010 _ZN5movie9MediaData9SetBufferEPKcPNS_6BufferE
000000000018e558 g    DF .text	0000000000000008 _ZThn8_N7android19BnMediaPlayerClient10onTransactEjRKNS_6ParcelEPS1_j
00000000002e9fd8 g    DF .text	00000000000000e8 _ZN5movie11EncoderImpl31RemoveBufferIndexFromOutputListEPiPlPjS1_
00000000001763bc g    DF .text	0000000000000148 vorbis_dsp_headerin
000000000029f450  w   DF .text	0000000000000018 _ZZN7android14ReferenceMover15move_referencesINS_13GraphicBufferEEEvPNS_2spIT_EEPKS5_mENK7RenamerclEm
00000000000cdc0c g    DF .text	0000000000000114 TVMRPaletteCreate
00000000002a83e8  w   DF .text	0000000000000014 _ZNK7android6VectorIPKN9mkvparser8CuePointEE16do_move_backwardEPvPKvm
00000000001f71d0 g    DF .text	000000000000011c _ZN7android3ID3C1EPKhmb
0000000000287f80  w   DF .text	0000000000000024 _ZN7android2spINS_3OMXEED2Ev
0000000000176d88 g    DF .text	00000000000001b8 _ZN7android11AudioEffectD2Ev
00000000005d5c28 g    DO .bss	0000000000000020 _ZN7android10DataSource13gSnifferMutexE
00000000002e36e4 g    DF .text	0000000000000358 _ZN5movie20NnCodecInputReceiver22ReadAudioDataFromCacheEPNS_6BufferEPl
00000000005998c0  w   DO .data	0000000000000098 _ZTCN7android11BpInterfaceINS_13IStreamSourceEEE0_NS_10IInterfaceE
0000000000236f84 g    DF .text	0000000000001958 _ZN7android6ACodec13getPortFormatEjRNS_2spINS_8AMessageEEE
0000000000197680  w   DF .text	0000000000000004 _ZN7android16SingleStateQueueINS_14AudioTimestampEE7MutatorD1Ev
00000000002b6fb8 g    DF .text	000000000000001c _ZN9mkvparser7ClusterC2EPNS_7SegmentElx
00000000002ace98 g    DF .text	00000000000000a4 _ZN9mkvparser7Segment4LoadEv
00000000000502c0 g    DF .text	0000000000000034 NvDdk2dIsBugFixedExt
000000000016c52c g    DF .text	00000000000000fc h264bsdCheckDeltaPicOrderCnt
0000000000289740  w   DF .text	0000000000000014 _ZNK7android12SortedVectorINS_16key_value_pair_tIjbEEE7do_copyEPvPKvm
000000000029bfa8 g    DF .text	0000000000000024 _ZN7android8SfThread19SetSFThreadPriorityEh
00000000005a2e58 g    DO .data	0000000000000040 _ZTVN7android11NVOMXPluginE
00000000005a1540  w   DO .data	0000000000000028 _ZTIN7android12SortedVectorINS_16key_value_pair_tIllEEEE
00000000001db2d0 g    DF .text	00000000000000d0 _ZN7android10ABitReader13fillReservoirEv
0000000000521bc0 g    DO .rodata	0000000000000018 _ZTSN7android11SfMemDealerE
00000000005d58d8 g    DO .bss	0000000000000008 _ZN7android18IMediaPlayerClient10descriptorE
0000000000521b30 g    DO .rodata	0000000000000018 _ZTSN7android11SampleTableE
00000000001c2a00 g    DF .text	00000000000000c0 _ZN7android8NuPlayer13GenericSource14postReadBufferENS_16media_track_typeE
0000000000520170  w   DO .rodata	0000000000000021 _ZTSN7android6ACodec13DeathNotifierE
000000000024d53c g    DF .text	0000000000000158 _ZN7android13AwesomePlayer15setDataSource_lERKNS_2spINS_17IMediaHTTPServiceEEEPKcPKNS_11KeyedVectorINS_7String8ES9_EE
000000000012b120 g    DF .text	00000000000009ec _Z23slotBasedHybridAnalysisPiS_S_S_P6HYBRID
000000000051ccb8 g    DO .rodata	0000000000000008 _ZN7android11LiveSession13kMidWaterMarkE
0000000000013c60 g    DF .text	000000000000008c NvMMUtilAllocateVideoBuffer
00000000001da4cc g    DF .text	000000000000053c _ZN7android16SoftwareRenderer6renderEPKvmlPvRKNS_2spINS_8AMessageEEE
000000000025dd64 g    DF .text	00000000000000a8 _ZN7android10MediaCodec22onInputBufferAvailableEv
00000000002af238 g    DF .text	0000000000000008 _ZNK9mkvparser11SegmentInfo16GetTimeCodeScaleEv
00000000002de280 g    DF .text	00000000000001e4 _ZN5movie16NnCodecAudioSink5PauseEb
0000000000277890 g    DF .text	00000000000001ec _ZN7android11MPEG4Writer9addSourceERKNS_2spINS_11MediaSourceEEE
000000000028973c  w   DF .text	0000000000000004 _ZNK7android12SortedVectorINS_16key_value_pair_tIjbEEE10do_destroyEPvm
00000000002be924 g    DF .text	00000000000000fc _ZN8mkvmuxer7Segment15AddGenericFrameEPKNS_5FrameE
0000000000210d68 g    DF .text	00000000000000f0 _ZN7android14SoftAVCEncoder11initEncoderEv
000000000012e030 g    DF .text	00000000000000e4 _Z19sbrDecoder_drcApplyP18SBRDEC_DRC_CHANNELPPiS2_iS1_
000000000059b190 g    DO .data	0000000000000018 _ZTIN7android22MediaMetadataRetriever13DeathNotifierE
0000000000222e08 g    DF .text	0000000000000460 _Z16IntraDecisionABEP12tagEncObjectiPhi
0000000000276180  w   DF .text	000000000000003c _ZN7android6VectorINS_14MPEG4Extractor8PsshInfoEED0Ev
0000000000256b5c g    DF .text	000000000000004c _ZN7android12MediaAdapter9getFormatEv
000000000016804c g    DF .text	0000000000000320 h264bsdInterpolateHorQuarter
000000000029c5b8 g    DF .text	0000000000000038 _ZNK7android8SfThread9isRunningEv
00000000001db7f0 g    DF .text	0000000000000028 _ZN7android12NALBitReaderC2EPKhm
000000000025689c g    DF .text	00000000000000d8 _ZN7android12MediaAdapterD2Ev
00000000005a04f0 g    DO .data	00000000000000d8 _ZTCN7android19AnotherPacketSourceE0_NS_11MediaSourceE
0000000000200b58 g    DF .text	000000000000005c _ZN7android16MPEG2PSExtractor11getMetaDataEv
000000000020d3fc  w   DF .text	0000000000000014 _ZNK7android12SortedVectorIP20OMX_BUFFERHEADERTYPEE7do_copyEPvPKvm
0000000000248670 g    DF .text	00000000000002e4 _ZN7android12AVIExtractor9AVISource4readEPPNS_11MediaBufferEPKNS_11MediaSource11ReadOptionsE
000000000059db80 g    DO .data	0000000000000018 _ZTIN7android18ARawAudioAssemblerE
00000000001ec3a8  w   DF .text	0000000000000070 _ZNK7android12SortedVectorINS_16key_value_pair_tINS_7AStringENS_11LiveSession11FetcherInfoEEEE8do_splatEPvPKvm
00000000005ac740 g    DO .data	0000000000000018 _ZTIN8mkvmuxer10VideoTrackE
00000000001f4b60 g    DF .text	00000000000001a4 _ZNK7android15PlaylistFetcher19getSeqNumberForTimeEl
0000000000265dfc g    DF .text	000000000000001c _ZN7android11MediaSource11ReadOptions11clearSeekToEv
00000000002aef34 g    DF .text	00000000000002f4 _ZN9mkvparser8CuePoint13TrackPosition5ParseEPNS_10IMkvReaderExx
00000000005933e8 g    DO .data	0000000000000098 _ZTVN7android19IMediaDeathNotifier13DeathNotifierE
0000000000178628 g    DF .text	00000000000000fc _ZN7android14AudioParameter3getERKNS_7String8ERS1_
00000000005a47f0  w   DO .data	0000000000000118 _ZTCN7android13CodecObserverE8_NS_7BBinderE
00000000002e7c60 g    DF .text	00000000000000e4 _ZN5movie11DecoderImpl23AcquireInputBufferIndexEPiS1_
000000000020d1ec  w   DF .text	0000000000000004 _ZNK7android6VectorINS_15OMXNodeInstance12ActiveBufferEE12do_constructEPvm
0000000000156a5c g    DF .text	00000000000001c8 VlcDecTCOEFShortHeader_AnnexIT
000000000019be28 g    DF .text	00000000000000ac _ZN7android10JitterToolC1Ej
00000000001bfa14 g    DF .text	0000000000000024 _ZN7android8NuPlayer14HTTPLiveSourceD0Ev
0000000000192530  w   DF .text	0000000000000018 _ZNK7android6VectorINS_2spINS_7IMemoryEEEE12do_constructEPvm
000000000029338c g    DF .text	0000000000000878 _ZN7android8OMXCodec13onCmdCompleteE15OMX_COMMANDTYPEj
0000000000058618 g    DF .text	00000000000000c4 jpegTegraEncoderGetBits
00000000002cc0fc g    DF .text	0000000000000004 _ZN5movie15PlayerExtractorD1Ev
00000000001fd674  w   DF .text	000000000000003c _ZN7android12SortedVectorINS_16key_value_pair_tIjNS_2spINS_9ATSParser6StreamEEEEEED0Ev
0000000000262174 g    DF .text	0000000000000040 _ZN7android16MediaCodecSource6Puller5pauseEv
00000000002b8140 g    DF .text	0000000000000028 _ZN9mkvparser5BlockC2Exxx
0000000000218c74 g    DF .text	0000000000000584 _Z20targetBitCalculationP12tagEncObjectP12tagCommonObjP17tagAVCRateControlP12tagMultiPass
000000000015ad08  w   DF .text	0000000000000020 _ZNK7android12SortedVectorINS_16key_value_pair_tIiP20OMX_BUFFERHEADERTYPEEEE10do_compareEPKvS7_
00000000002c2c08 g    DF .text	0000000000000020 _ZN9mkvparser9MkvReaderC2Ev
00000000000db07c g    DF .text	000000000000000c TVMRCaptureGetFrameRAWEx
00000000002a16dc g    DF .text	0000000000000960 _ZN7android24convertMessageToMetaDataERKNS_2spINS_8AMessageEEERNS0_INS_8MetaDataEEE
00000000002672d8  w   DF .text	00000000000000d8 _ZNK7android12SortedVectorINS_16key_value_pair_tIjNS_8MetaData10typed_dataEEEE15do_move_forwardEPvPKvm
00000000000ed618  w   DF .text	0000000000000014 _ZNK7android6VectorIiE7do_copyEPvPKvm
00000000002edf2c  w   DF .text	0000000000000008 _ZN7android11BnInterfaceINS_19IGraphicBufferAllocEE10onAsBinderEv
0000000000159efc g    DF .text	0000000000000060 CalcVopDisplayTime
000000000024a88c g    DF .text	000000000000009c _ZN7android12AVIExtractor18IsCorrectChunkTypeElNS0_5Track4KindEj
00000000002e2f88 g    DF .text	0000000000000118 _ZN5movie20NnCodecInputReceiver10InitializeEPNS_15PlayerExtractorEiib
00000000002a2a48 g    DF .text	000000000000006c _ZN7android10VBRISeeker16getOffsetForTimeEPlS1_
00000000000db044 g    DF .text	0000000000000008 TVMRCaptureSetConfiguration
000000000016deb8 g    DF .text	00000000000001a8 h264bsdDecodeExpGolombUnsigned
00000000000ed70c  w   DF .text	0000000000000060 _ZNK7android6VectorIlE8do_splatEPvPKvm
00000000001f8504  w   DF .text	0000000000000008 _ZNK7android12MemorySource9initCheckEv
00000000005adba0 g    DO .data	0000000000000170 _ZTVN5movie13NnCodecPlayerE
00000000001792fc g    DF .text	0000000000000254 _ZN7android11AudioRecordD1Ev
00000000005a3050  w   DO .data	0000000000000050 _ZTVN7android6VectorINS_14SoftAVCEncoder15InputBufferInfoEEE
000000000027a7c8 g    DF .text	0000000000000058 _ZN7android11MPEG4Writer5Track20addOneCttsTableEntryEmi
00000000002eb7cc g    DF .text	0000000000000008 _ZNK5movie6Buffer4BaseEv
0000000000132348 g    DF .text	000000000000000c FDKcalloc_L
0000000000259a34 g    DF .text	0000000000000108 _ZNK7android10MediaCodec15getOutputFormatEPNS_2spINS_8AMessageEEE
00000000001fdab8  w   DF .text	0000000000000064 _ZNK7android6VectorINS_10StreamInfoEE16do_move_backwardEPvPKvm
0000000000201f74  w   DF .text	0000000000000034 _ZN7android12SortedVectorINS_16key_value_pair_tIjjEEED2Ev
00000000002ee834 g    DF .text	0000000000000070 _ZN5movie6detail16AudioSampleTable22calibrate_to_timestampEl
000000000017ec74  w   DF .text	0000000000000008 _ZThn8_NK7android11BnInterfaceINS_25IAudioPolicyServiceClientEE22getInterfaceDescriptorEv
00000000001cc1c8  w   DF .text	000000000000007c _ZN7android8NuPlayer10SeekAction7executeEPS0_
00000000001bc910 g    DF .text	000000000000010c _ZN7android13AAVCAssembler16addSingleNALUnitERKNS_2spINS_7ABufferEEE
0000000000142f28 g    DF .text	00000000000002ac InitTnsConfigurationShort
0000000000518100  w   DO .rodata	0000000000000020 _ZTSN7android6VectorINS_7AStringEEE
0000000000520010 g    DO .rodata	0000000000000025 _ZTSN7android6ACodec17LoadedToIdleStateE
00000000005936c0 g    DO .data	0000000000000020 _ZTTN7android18IMediaPlayerClientE
00000000001323f0 g    DF .text	000000000000000c FDKabs
000000000022e6e0 g    DF .text	00000000000000dc _ZN7android15TimedTextDriverD2Ev
000000000029561c g    DF .text	0000000000000074 _ZN7android8OMXCodec20findEmptyInputBufferEv
000000000058fae0  w   DO .data	0000000000000038 _ZTIN7android11BnInterfaceINS_7IEffectEEE
00000000001be390 g    DF .text	0000000000000144 _ZNK7android19ASessionDescription9getFormatEmPNS_7AStringE
000000000024aed4 g    DF .text	00000000000000b0 _ZN7android8SniffAVIERKNS_2spINS_10DataSourceEEEPNS_7String8EPfPNS0_INS_8AMessageEEE
00000000002b0950 g    DF .text	0000000000000028 _ZNK9mkvparser11SegmentInfo11GetDurationEv
0000000000109038 g    DF .text	00000000000000c4 _Z16fDivNormHighPreciiPi
00000000001b4080  w   DF .text	00000000000000a0 _ZN7android4ListINS_8NuPlayer22NuPlayerStreamListener10QueueEntryEED2Ev
000000000058cc40  w   DO .data	00000000000000a8 _ZTCN7android11BpInterfaceINS_13IAudioFlingerEEE8_NS_9BpRefBaseE
000000000026bfe4  w   DF .text	0000000000000044 _ZN7android17AHandlerReflectorINS_13MPEG2TSWriterEED2Ev
00000000005a7140 g    DO .data	00000000000000d8 _ZTCN7android16MediaCodecSourceE0_NS_11MediaSourceE
00000000000110a0 g    DF .text	000000000000001c NvMMSetWaitForAudio
00000000005acc18 g    DO .data	0000000000000030 _ZTVN7android9WebmFloatE
000000000058fbf0 g    DO .data	0000000000000098 _ZTCN7android8BnEffectE0_NS_10IInterfaceE
000000000025a1d8 g    DF .text	00000000000000c8 _ZN7android10MediaCodec5flushEv
00000000001fbc90 g    DF .text	0000000000000078 _ZN7android9ATSParserD1Ev
00000000002928d4 g    DF .text	0000000000000008 _ZN7android8OMXCodec19drainAnyInputBufferEv
0000000000255c98 g    DF .text	0000000000000008 _ZN7android18CurlHttpConnection20StaticSocketCallbackEPvi12curlsocktype
00000000005a7970 g    DO .data	0000000000000020 _ZTTN7android9MP3SourceE
00000000002b1998 g    DF .text	0000000000000014 _ZN9mkvparser4TagsC1EPNS_7SegmentExxxx
000000000029fbb0 g    DF .text	0000000000000018 _ZN7android15TimedEventQueue13ThreadWrapperEPv
00000000002b145c g    DF .text	0000000000000034 _ZN9mkvparser8Chapters4Atom7GetTimeEPKS0_x
00000000001b4458 g    DF .text	00000000000000a8 _ZN7android14ARTPConnection12removeStreamEii
0000000000273188 g    DF .text	0000000000000040 _ZTv0_n24_N7android11MPEG4SourceD0Ev
000000000051bba0  w   DO .rodata	0000000000000043 _ZTSN7android4ListINS_8NuPlayer22NuPlayerStreamListener10QueueEntryEEE
0000000000133860 g    DF .text	0000000000000094 _ZN7android10AACEncoderD0Ev
0000000000295188 g    DF .text	00000000000001a0 _ZN7android8OMXCodec17freeBuffersOnPortEjb
000000000051fb00 g    DO .rodata	0000000000000020 _ZTSN7android19TimedText3GPPSourceE
0000000000257314 g    DF .text	0000000000000070 _ZN7android11MediaBuffer9set_rangeEmm
0000000000189468  w   DF .text	00000000000000b8 _ZNK7android14BpAudioFlinger11queryEffectEjP19effect_descriptor_s
00000000002bcc58 g    DF .text	00000000000004d4 _ZN8mkvmuxer7Segment8FinalizeEv
00000000000db120 g    DF .text	0000000000000010 TVMRJPEGEncFeedFrame
0000000000197d40 g    DF .text	0000000000000018 _ZN7android9SoundPool11beginThreadEPv
00000000005a4bb8 g    DO .data	0000000000000058 _ZTVN7android9CodecBase15PortDescriptionE
000000000018d5b4  w   DF .text	0000000000000050 _ZTv0_n24_N7android11BpInterfaceINS_15IMediaCodecListEED0Ev
00000000002651d8 g    DF .text	0000000000000160 _ZN7android10MediaMuxerC1EPKcNS0_12OutputFormatE
00000000002bf9a0 g    DF .text	0000000000000144 _ZN8mkvmuxer21EbmlMasterElementSizeEyy
00000000005a3530  w   DO .data	0000000000000018 _ZTIN7android15TimedTextPlayer11ParcelEventE
000000000029f468 g    DF .text	00000000000000a8 _ZN7android15ThrottledSourceC2ERKNS_2spINS_10DataSourceEEEi
00000000001941c0  w   DF .text	0000000000000078 _ZNK7android12SortedVectorINS_16key_value_pair_tINS_7AStringENS_2spINS_14MediaCodecInfo12CapabilitiesEEEEEE16do_move_backwardEPvPKvm
00000000000dd254 g    DF .text	0000000000000048 TVMRVideoSurfaceCompositeBluray
00000000001f70f4 g    DF .text	00000000000000dc _ZN7android3ID37parseV1ERKNS_2spINS_10DataSourceEEE
000000000019150c  w   DF .text	0000000000000048 _ZTv0_n24_N7android14BnStreamSourceD1Ev
000000000017dc2c g    DF .text	0000000000000068 _ZN7android11AudioSystem18isOffloadSupportedERK20audio_offload_info_t
00000000001e50c0 g    DF .text	000000000000069c _ZN7android11LiveSessionC1ERKNS_2spINS_8AMessageEEEjRKNS1_INS_17IMediaHTTPServiceEEEiPN5movie14PlayerObserverEiPb
00000000005897b0 g    DO .data	00000000000000b0 _ZTCN7android11AudioSystem24AudioPolicyServiceClientE8_NS_25IAudioPolicyServiceClientE
0000000000595110 g    DO .data	0000000000000070 _ZTTN7android5BnOMXE
00000000002b1eac g    DF .text	000000000000017c _ZN9mkvparser4Tags3Tag14ParseSimpleTagEPNS_10IMkvReaderExx
0000000000183bc0 g    DF .text	000000000000003c _ZNK7android10AudioTrack11isOffloadedEv
000000000014c08c g    DF .text	000000000000043c DecodeDataPart_P_VideoPacket
000000000029cfac g    DF .text	00000000000000a8 _ZN7android11SfMemDealer10deallocateEm
0000000000057988 g    DF .text	0000000000000480 jpegTegraEncoderCompress
00000000000f202c g    DF .text	000000000000061c _Z13DecodeNonPCWsP13FDK_BITSTREAMP10CErHcrInfo
00000000002d00dc g    DF .text	00000000000000a4 _ZN5movie12HLSExtractor13GetSampleTimeEmPl
000000000058dcf0 g    DO .data	0000000000000018 _ZTIN7android20BnAudioFlingerClientE
00000000002b15d4 g    DF .text	00000000000000f8 _ZN9mkvparser8Chapters4Atom19ExpandDisplaysArrayEv
0000000000203220  w   DF .text	0000000000000064 _ZNK7android6VectorINS_2spINS_19AnotherPacketSourceEEEE15do_move_forwardEPvPKvm
000000000015073c g    DF .text	0000000000000004 idctcol0
000000000018c81c  w   DF .text	0000000000000050 _ZThn8_N7android11BpInterfaceINS_13IEffectClientEED0Ev
0000000000150838 g    DF .text	000000000000002c idctcol1
00000000001509ec g    DF .text	00000000000000a8 idctcol2
00000000002b8e58 g    DF .text	000000000000001c _ZN8mkvmuxer15ContentEncodingC2Ev
0000000000150c64 g    DF .text	00000000000000cc idctcol3
00000000005ae318  w   DO .data	0000000000000168 _ZTVN5movie22NULLGraphicBufferAllocE
0000000000150f38 g    DF .text	00000000000000ec idctcol4
00000000001ebf50  w   DF .text	000000000000003c _ZN7android12SortedVectorINS_16key_value_pair_tINS_11LiveSession10StreamTypeENS_2spINS_19AnotherPacketSourceEEEEEED0Ev
00000000000001dc g    DF .text	0000000000000008 NvAvpGlobalFdOpen
00000000001774d0 g    DF .text	0000000000000034 _ZN7android11AudioEffect15commandExecutedEjjPvjS1_
0000000000185c4c  w   DF .text	0000000000000024 _ZN7android27StaticAudioTrackServerProxyD0Ev
0000000000203a08 g    DF .text	0000000000000134 _ZN7android19GraphicBufferSourceD2Ev
0000000000174a7c g    DF .text	0000000000000134 _VDBG_malloc
000000000058a6e8  w   DO .data	0000000000000050 _ZTVN7android6VectorINS_23AttributeMatchCriterionEEE
000000000011dccc g    DF .text	00000000000003dc _Z15calcSubbandGainiaP13ENV_CALC_NRGSiiahhi
00000000002a63ec g    DF .text	00000000000005f4 _ZN7android14MatroskaSource4readEPPNS_11MediaBufferEPKNS_11MediaSource11ReadOptionsE
00000000002ca9b8 g    DF .text	00000000000001a8 _ZN5movie8nnPlayer10InitializeEv
0000000000202d80  w   DF .text	000000000000007c _ZN7android13MPEG2TSSourceD1Ev
00000000001e2484 g    DF .text	0000000000000078 _ZN7android7AString6appendEd
00000000001bfa70 g    DF .text	00000000000001c0 _ZN7android8NuPlayer14HTTPLiveSource12prepareAsyncEv
00000000001e2410 g    DF .text	0000000000000074 _ZN7android7AString6appendEf
00000000005a28c8 g    DO .data	0000000000000018 _ZN7android15OMXNodeInstance10kCallbacksE
0000000000229310 g    DF .text	0000000000000114 _Z13MemMgrCtrlOp3P12tagAVCHandleP12tagCommonObjP15tagDecPicBufferjj
00000000005a06a8 g    DO .data	0000000000000040 _ZTVN7android9ATSParser10PSISectionE
000000000024966c g    DF .text	0000000000000100 _ZN7android12AVIExtractor8getTrackEm
00000000005a73a8 g    DO .data	0000000000000008 _ZN7android27MEDIA_MIMETYPE_AUDIO_VORBISE
00000000005ae108 g    DO .data	00000000000000a8 _ZTVN5movie7DecoderE
00000000001e2110 g    DF .text	0000000000000080 _ZN7android7AString6appendEi
0000000000517a70  w   DO .rodata	000000000000002f _ZTSN7android11BpInterfaceINS_15IMediaCodecListEEE
00000000001e2190 g    DF .text	0000000000000080 _ZN7android7AString6appendEj
00000000000ed8cc g    DF .text	0000000000000008 _Z21GetRequiredMemDrcInfov
000000000017ff54 g    DF .text	0000000000000080 memcpy_to_p24_from_float
00000000002adca4 g    DF .text	0000000000000168 _ZNK9mkvparser4Cues15PreloadCuePointERlx
00000000001e2210 g    DF .text	0000000000000080 _ZN7android7AString6appendEl
000000000025996c g    DF .text	00000000000000c8 _ZN7android10MediaCodec22signalEndOfInputStreamEv
00000000001e2290 g    DF .text	0000000000000080 _ZN7android7AString6appendEm
0000000000134ae4 g    DF .text	0000000000000024 _ZN7android14SoftAACEncoderD0Ev
00000000002edee8 g    DF .text	000000000000000c _ZN5movie15NnCodecConsumer11setCurIndexEi
00000000001d21b4 g    DF .text	0000000000000094 _ZN7android14NuPlayerDriver12prepareAsyncEv
00000000002dd16c g    DF .text	000000000000005c _ZN5movie16NnCodecAudioSink16FinalizeAudioOutEv
0000000000599540  w   DO .data	0000000000000098 _ZTCN7android14BpStreamSourceE0_NS_10IInterfaceE
0000000000288984 g    DF .text	0000000000000084 _ZN7android6MuxOMX8getStateEjP13OMX_STATETYPE
00000000005a26a8  w   DO .data	0000000000000050 _ZTVN7android6VectorINS_7String8EEE
000000000020d410  w   DF .text	0000000000000060 _ZNK7android12SortedVectorIP20OMX_BUFFERHEADERTYPEE8do_splatEPvPKvm
000000000018de9c  w   DF .text	000000000000004c _ZNK7android12SortedVectorINS_2wpINS_19IMediaDeathNotifierEEEE12do_constructEPvm
000000000051ce40  w   DO .rodata	0000000000000047 _ZTSN7android4ListINS_11LiveSession18BandwidthEstimator14BandwidthEntryEEE
0000000000201a20 g    DF .text	0000000000000034 _ZN7android16MPEG2PSExtractor5TrackD0Ev
000000000017f254  w   DF .text	0000000000000004 _ZNK7android12SortedVectorINS_16key_value_pair_tIiPNS_11AudioSystem16OutputDescriptorEEEE12do_constructEPvm
000000000023bb40 g    DF .text	00000000000000e8 _ZN7android6ACodec11signalErrorE13OMX_ERRORTYPEi
0000000000505f44 g    DO .rodata	00000000000000a2 huff_ltab3_4
00000000001858e8 g    DF .text	0000000000000008 _ZN7android27StaticAudioTrackServerProxy11framesReadyEv
0000000000199620 g    DF .text	0000000000000058 _ZN7android9SoundPool6notifyENS_14SoundPoolEventE
000000000059e828  w   DO .data	0000000000000048 _ZTVN7android8NuPlayer10SeekActionE
0000000000265e94 g    DF .text	0000000000000050 _ZN7android8MetaDataC1ERKS0_
0000000000188204  w   DF .text	000000000000008c _ZN7android14BpAudioFlinger15setMasterVolumeEf
000000000058ede8  w   DO .data	00000000000000f0 _ZTVN7android26BpAudioPolicyServiceClientE
00000000001e2310 g    DF .text	0000000000000080 _ZN7android7AString6appendEx
00000000001e2390 g    DF .text	0000000000000080 _ZN7android7AString6appendEy
000000000017f4d4  w   DF .text	0000000000000094 _ZNK7android6VectorINS_8AudioMixEE8do_splatEPvPKvm
00000000001eb54c g    DF .text	0000000000000010 _ZNK7android11LiveSession13getTrackCountEv
0000000000185f38 g    DF .text	0000000000001358 _ZN7android14BnAudioFlinger10onTransactEjRKNS_6ParcelEPS1_j
00000000002df21c g    DF .text	000000000000003c _ZN5movie16NnCodecAudioSink19GetOutputBufferSizeEiPi
0000000000586b18 g    DO .data	00000000000000e0 _ZTVN7android14SoftAACEncoderE
0000000000243cf0 g    DF .text	00000000000000b0 _ZN7android11AudioPlayerC2ERKNS_2spINS_15MediaPlayerBase9AudioSinkEEEjPNS_13AwesomePlayerE
000000000029f7a0 g    DF .text	00000000000001b8 _ZN7android15TimedEventQueueD1Ev
00000000001000a4 g    DF .text	0000000000000418 _Z52BidirectionalEstimation_UseScfOfPrevFrameAsReferenceP22CAacDecoderChannelInfoP28CAacDecoderStaticChannelInfo
000000000023af78 g    DF .text	000000000000009c _ZN7android6ACodec16configureBitrateEi25OMX_VIDEO_CONTROLRATETYPE
00000000002415d0 g    DF .text	0000000000000004 _ZN7android6ACodec17IdleToLoadedState12stateEnteredEv
00000000001be69c g    DF .text	0000000000000294 _ZNK7android19ASessionDescription13getFormatTypeEmPmPNS_7AStringES3_
00000000000bde90 g    DF .text	000000000000030c video_parser_create
0000000000146db0  w   DF .text	0000000000000014 _ZNK7android12SortedVectorINS_16key_value_pair_tIixEEE16do_move_backwardEPvPKvm
000000000018493c g    DF .text	0000000000000088 _ZN7android5ProxyC2EPNS_18audio_track_cblk_tEPvmmbb
00000000002026f4 g    DF .text	00000000000000b0 _ZN7android16MPEG2TSExtractorC2ERKNS_2spINS_10DataSourceEEE
000000000025f548 g    DF .text	00000000000000dc _ZN7android14MediaCodecListC2Ev
00000000000576ec g    DF .text	000000000000029c jpegTegraEncoderRGB2YUVSurf
00000000002650c0 g    DF .text	0000000000000118 _ZN7android10MediaMuxerC1EPNS_17MPEG4WriterStreamENS0_12OutputFormatE
0000000000587770  w   DO .data	0000000000000170 _ZTCN7android11AudioEffect12EffectClientE0_NS_11BnInterfaceINS_13IEffectClientEEE
00000000002c2c28 g    DF .text	0000000000000070 _ZN9mkvparser9MkvReaderC2EP8_IO_FILE
000000000022c450 g    DF .text	0000000000000008 _ZN7android28SoftVideoDecoderOMXComponent7onResetEv
000000000058cba0  w   DO .data	0000000000000098 _ZTCN7android11BpInterfaceINS_13IAudioFlingerEEE0_NS_10IInterfaceE
000000000026bd1c  w   DF .text	0000000000000008 _ZNK7android11MediaWriter20getStartTimeOffsetMsEv
00000000005ac9c8  w   DO .data	0000000000000058 _ZTVN7android21WebmFrameSourceThreadE
0000000000012e74 g    DF .text	0000000000000028 NvmmUlpSetKpiMode
00000000001baf98  w   DF .text	0000000000000010 _ZNK7android6VectorIhE7do_copyEPvPKvm
00000000001f1be0 g    DF .text	0000000000000114 _ZN7android15PlaylistFetcherD2Ev
00000000002ecb38 g    DF .text	00000000000000a0 _ZN5movie33CreateVp8DecoderConfigurationDataEiiiPNS_9MediaDataE
000000000017711c g    DF .text	000000000000009c _ZN7android11AudioEffect12setParameterEP14effect_param_s
000000000021ffc4 g    DF .text	0000000000000304 MBInterIdct
00000000005a8190 g    DO .data	0000000000000020 _ZTTN7android11MPEG4SourceE
00000000002cc980 g    DF .text	0000000000000044 _ZNK5movie11NnExtractor17GetCachedDurationEPlPb
00000000002d3148 g    DF .text	0000000000000038 _ZN5movie13NnCodecPlayer27GetCancelSetDataSourceStateEv
000000000019a374 g    DF .text	0000000000000074 _ZN7android15SoundPoolThread4readEv
000000000019e3a4 g    DF .text	0000000000000008 XML_SetSkippedEntityHandler
00000000001ba06c g    DF .text	0000000000000024 _ZN7android14AH263AssemblerD0Ev
0000000000184a5c g    DF .text	000000000000051c _ZN7android11ClientProxy12obtainBufferEPNS_5Proxy6BufferEPK8timespecPS4_
00000000000db0e0 g    DF .text	0000000000000010 TVMRJPEGEncoderFeedFrame
000000000017065c g    DF .text	00000000000000ec vorbis_book_decodevs_add
0000000000187be4  w   DF .text	0000000000000410 _ZN7android14BpAudioFlinger10openRecordEij14audio_format_tjPmPjiPiS2_RNS_2spINS_7IMemoryEEES8_S4_
0000000000243cf0 g    DF .text	00000000000000b0 _ZN7android11AudioPlayerC1ERKNS_2spINS_15MediaPlayerBase9AudioSinkEEEjPNS_13AwesomePlayerE
0000000000288db8 g    DF .text	000000000000009c _ZN7android6MuxOMX16useGraphicBufferEjjRKNS_2spINS_13GraphicBufferEEEPj
00000000005aeed0 g    DO .data	00000000000000b0 _ZTCN5movie15NnCodecConsumerE0_N7android16ConsumerListenerE
00000000001b4940 g    DF .text	0000000000000144 _ZN7android14ARTPConnection14onRemoveStreamERKNS_2spINS_8AMessageEEE
000000000025483c g    DF .text	000000000000005c _ZN7android13DataURISource6readAtElPvm
00000000001872d8  w   DF .text	0000000000000048 _ZN7android11BnInterfaceINS_13IAudioFlingerEED0Ev
000000000023b5f0 g    DF .text	00000000000001a8 _ZN7android6ACodec26describeDefaultColorFormatERNS_25DescribeColorFormatParamsE
00000000001907e8 g    DF .text	000000000000000c _ZNK7android13IStreamSource22getInterfaceDescriptorEv
00000000001f1840  w   DF .text	0000000000000094 _ZNK7android6VectorINS_9M3UParser10MediaGroup5MediaEE16do_move_backwardEPvPKvm
000000000051e0c0  w   DO .rodata	0000000000000032 _ZTSN7android12SortedVectorIP20OMX_BUFFERHEADERTYPEEE
000000000019a9d8 g    DF .text	0000000000000074 _ZN7android11StringArrayD2Ev
000000000013893c g    DF .text	00000000000009bc codeValues
00000000001d4e40 g    DF .text	00000000000004f0 _ZN7android8NuPlayer8Renderer15onOpenAudioSinkERKNS_2spINS_8AMessageEEEbbj
00000000001d946c g    DF .text	00000000000002e4 _ZN7android14ColorConverter23convertYUV420SemiPlanarERKNS0_12BitmapParamsES3_
000000000018d35c  w   DF .text	0000000000000050 _ZThn8_N7android16BnMediaCodecListD0Ev
0000000000242848  w   DF .text	0000000000000054 _ZN7android21BufferProducerWrapperD0Ev
000000000058c2f0  w   DO .data	0000000000000238 _ZTCN7android14BpAudioFlingerE0_NS_13IAudioFlingerE
000000000059bcd8  w   DO .data	0000000000000058 _ZTVN7android12SortedVectorINS_16key_value_pair_tIiNS_2spINS_6SampleEEEEEEE
00000000000db0c0 g    DF .text	0000000000000008 TVMRVideoEncoderFeedFrameYUV
00000000001781f4 g    DF .text	0000000000000068 _ZN7android14AudioParameterD1Ev
00000000002ccb44 g    DF .text	0000000000000060 _ZN5movie14NnMSEExtractorC2EPNS_15ExtractorConfigE
000000000021a1bc g    DF .text	00000000000002cc EncodeIntraPCM
0000000000101608 g    DF .text	0000000000000008 FDK_setBitCnt
00000000002be7e4 g    DF .text	0000000000000140 _ZN8mkvmuxer7Segment11AddMetadataEPKhyyyy
00000000001fbb60 g    DF .text	0000000000000130 _ZN7android9ATSParserC1Eji
0000000000591300 g    DO .data	0000000000000118 _ZTCN7android14BnEffectClientE8_NS_7BBinderE
00000000001d1188 g    DF .text	00000000000002cc _ZN7android8NuPlayer18DecoderPassThrough20onInputBufferFetchedERKNS_2spINS_8AMessageEEE
0000000000273dbc g    DF .text	00000000000000a4 _ZNK7android11MPEG4Source12parseNALSizeEPKh
00000000002ce390  w   DF .text	00000000000000a0 _ZN7android4ListINS_2spIN5movie12HLSExtractor9HLSSampleEEEED2Ev
0000000000183020 g    DF .text	0000000000000208 _ZN7android10AudioTrack5writeEPKvmb
0000000000198d44 g    DF .text	0000000000000048 _ZN7android12SoundChannel5pauseEv
00000000005208a0  w   DO .rodata	0000000000000028 _ZTSN7android27AwesomeNativeWindowRendererE
00000000002b24a8 g    DF .text	00000000000000c8 _ZN9mkvparser15ContentEncodingD1Ev
00000000002ca3a0 g    DF .text	0000000000000004 _ZN5movie6PlayerD0Ev
000000000051e1b0 g    DO .rodata	0000000000000018 _ZTSN7android11NVOMXPluginE
00000000000f5510 g    DF .text	00000000000000b4 _Z17CAacDecoder_CloseP20AAC_DECODER_INSTANCE
00000000001fde34 g    DF .text	0000000000000400 _ZN7android21ElementaryStreamQueue10appendDataEPKvml
000000000019eb78 g    DF .text	0000000000000024 XML_GetCurrentByteCount
00000000001dd4dc  w   DF .text	000000000000005c _ZNK7android12SortedVectorINS_16key_value_pair_tIjNS_2spINS_8AMessageEEEEEE7do_copyEPvPKvm
00000000001baf90  w   DF .text	0000000000000004 _ZNK7android6VectorIhE12do_constructEPvm
0000000000585ad8 g    DO .data	0000000000000780 sfbOffsetTables
00000000001de74c  w   DF .text	0000000000000018 _ZZN7android14ReferenceMover15move_referencesINS_7ALooperEEEvPNS_2spIT_EEPKS5_mENK7RenamerclEm
00000000002b8138 g    DF .text	0000000000000008 _ZNK9mkvparser10BlockGroup19GetDurationTimeCodeEv
000000000051c470  w   DO .rodata	0000000000000026 _ZTSN7android6VectorIPNS_11MediaBufferEEE
000000000020ff08 g    DF .text	000000000000012c _ZN7android13SoftOMXPlugin19getRolesOfComponentEPKcPNS_6VectorINS_7String8EEE
00000000002305b4 g    DF .text	000000000000004c _ZN7android15TimedTextPlayer13doSeekAndReadEl
00000000002acce0 g    DF .text	00000000000001b8 _ZN9mkvparser7Segment14PreloadClusterEPNS_7ClusterEl
00000000005a41d8  w   DO .data	0000000000000168 _ZTVN7android13CodecObserverE
0000000000245b80 g    DF .text	000000000000003c _ZThn8_N7android11AudioSourceD0Ev
0000000000277654 g    DF .text	0000000000000024 _ZN7android11MPEG4WriterD0Ev
000000000019a95c  w   DF .text	0000000000000064 _ZNK7android6VectorINS_12SoundPoolMsgEE16do_move_backwardEPvPKvm
000000000022208c g    DF .text	00000000000002c8 AVCFindHalfPelMB
0000000000595f00 g    DO .data	0000000000000108 _ZTCN7android13BnOMXObserverE8_NS_7IBinderE
00000000002ba06c g    DF .text	000000000000006c _ZN8mkvmuxer6TracksD1Ev
00000000002bba9c g    DF .text	0000000000000018 _ZN8mkvmuxer8SeekHeadC2Ev
000000000015af6c g    DF .text	0000000000000960 h264bsdDecodeResidualBlockCavlc
0000000000133904 g    DF .text	0000000000000150 _ZN7android10AACEncoder5startEPNS_8MetaDataE
00000000001c3ca4 g    DF .text	00000000000003dc _ZN7android8NuPlayer13GenericSource10readBufferENS_16media_track_typeElPlb
00000000001612dc g    DF .text	0000000000000030 h264bsdInitRefPicList
0000000000517ce0 g    DO .rodata	0000000000000011 _ZTSN7android5BnOMXE
000000000059b380 g    DO .data	00000000000000a0 _ZTTN7android11MediaPlayerE
00000000001b9f3c g    DF .text	0000000000000078 _ZN7android14AH263AssemblerC1ERKNS_2spINS_8AMessageEEE
000000000051c6b0 g    DO .rodata	0000000000000008 _ZN7android8NuPlayer8Renderer25kMinPositionUpdateDelayUsE
00000000002d1260 g    DF .text	0000000000000000 _ZN5movie7NnCodec13SetInputLayerEPN2nn2vi5LayerE
00000000002ba818 g    DF .text	000000000000000c _ZN8mkvmuxer7Chapter7Display4InitEv
000000000017ba58 g    DF .text	0000000000000088 _ZN7android11AudioSystem13getStreamMuteE19audio_stream_type_tPb
00000000005a7368 g    DO .data	0000000000000008 _ZN7android25MEDIA_MIMETYPE_VIDEO_WEBME
0000000000297e14  w   DF .text	000000000000008c _ZThn8_N7android16OMXCodecObserverD0Ev
00000000001b84b4  w   DF .text	0000000000000050 _ZNK7android6VectorINS_2spINS_7ABufferEEEE8do_splatEPvPKvm
00000000002ed290 g    DF .text	0000000000000008 _ZNK5movie20NnCodecVideoConsumer7getNameEv
0000000000100f10 g    DF .text	000000000000001c FDK_InitBitBuffer
0000000000522150  w   DO .rodata	000000000000002b _ZTSN7android6VectorIPKN9mkvparser8CuePointEEE
000000000022e558 g    DF .text	0000000000000188 _ZN7android15TimedTextDriverC2ERKNS_2wpINS_15MediaPlayerBaseEEERKNS_2spINS_17IMediaHTTPServiceEEE
00000000002c7914 g    DF .text	000000000000003c _ZN7android10WebmBinaryC2EmRKNS_2spINS_7ABufferEEE
000000000019e3c0 g    DF .text	0000000000000008 XML_SetAttlistDeclHandler
0000000000265d34 g    DF .text	0000000000000014 _ZTv0_n24_N7android11MediaSourceD1Ev
000000000029c9a0 g    DF .text	000000000000007c _ZN7android12SfMemoryHeapD0Ev
00000000002ad9bc g    DF .text	0000000000000078 _ZN9mkvparser4CuesD2Ev
00000000002ea3f0 g    DF .text	0000000000000008 _ZN5movie11EncoderImpl12GetLastErrorEv
0000000000500610 g    DO .rodata	0000000000000038 aBookPsIidTimeDecode
00000000005886c0 g    DO .data	00000000000000b0 _ZTCN7android11AudioRecord17AudioRecordThreadE0_NS_6ThreadE
000000000018dfe0  w   DF .text	0000000000000064 _ZNK7android12SortedVectorINS_2wpINS_19IMediaDeathNotifierEEEE15do_move_forwardEPvPKvm
00000000001c5bb8 g    DF .text	00000000000000b8 _ZN7android8NuPlayerC1Ev
000000000029fd88 g    DF .text	000000000000001c _ZN7android15TimedEventQueue17releaseWakeLock_lEb
00000000002bb3b4 g    DF .text	0000000000000120 _ZN8mkvmuxer7Cluster22AddFrameWithAdditionalEPKhyS2_yyyyb
0000000000057450 g    DF .text	00000000000000a4 jpegTegraEncoderCompRGBA2YUVSurf
000000000017155c g    DF .text	0000000000000034 vorbis_dsp_read
0000000000148cc4 g    DF .text	0000000000000078 cal_dc_scaler
00000000001b5910  w   DF .text	000000000000006c _ZNK7android12SortedVectorINS_16key_value_pair_tIjNS_2spINS_10ARTPSourceEEEEEE16do_move_backwardEPvPKvm
000000000059e530  w   DO .data	0000000000000028 _ZTIN7android6VectorINS_2spINS_11MediaSourceEEEEE
00000000002e3ba8 g    DF .text	0000000000000270 _ZN5movie20NnCodecInputReceiver17DrainInputBuffersEv
0000000000588c40 g    DO .data	0000000000000160 _ZTCN7android11AudioSystem18AudioFlingerClientE8_NS_11BnInterfaceINS_19IAudioFlingerClientEEE
000000000019736c g    DF .text	0000000000000008 _ZN7android18MediaScannerClient9setLocaleEPKc
0000000000279328 g    DF .text	00000000000000c0 _ZN7android11MPEG4Writer18sendSessionSummaryEv
00000000001d6fc8 g    DF .text	000000000000006c _ZN7android8NuPlayer8Renderer19onSetVideoFrameRateEf
0000000000280fe0 g    DF .text	0000000000000024 _ZN7android15NuCachedSource2D0Ev
000000000026c4fc g    DF .text	0000000000000280 _ZN7android14MPEG4ExtractorD2Ev
000000000020ce40 g    DF .text	00000000000000a0 _ZN7android15OMXNodeInstance12findBufferIDEP20OMX_BUFFERHEADERTYPE
0000000000521b70  w   DO .rodata	000000000000002b _ZTSN7android11BnInterfaceINS_11IMemoryHeapEEE
00000000002d01b4  w   DF .text	0000000000000024 _ZN5movie10HLSHandlerD0Ev
000000000029cba8 g    DF .text	0000000000000008 _ZNK7android12SfMemoryHeap7getBaseEv
00000000001fd7a8  w   DF .text	0000000000000058 _ZNK7android12SortedVectorINS_16key_value_pair_tIjNS_2spINS_9ATSParser6StreamEEEEEE8do_splatEPvPKvm
00000000002edca4 g    DF .text	0000000000000144 _ZN5movie15NnCodecConsumer13acquireBufferEPmPv
000000000018e0d8  w   DF .text	0000000000000018 _ZZN7android14ReferenceMover15move_referencesINS_19IMediaDeathNotifierEEEvPNS_2wpIT_EEPKS5_mENK7RenamerclEm
0000000000595a80 g    DO .data	0000000000000070 _ZTTN7android13BnOMXObserverE
00000000005a36c8 g    DO .data	0000000000000078 _ZTVN7android12AACExtractorE
00000000005acdb0 g    DO .data	0000000000000018 _ZTIN7android9WebmFloatE
0000000000023bd0 g    DF .text	00000000000002b0 NvxSchedulerRun
00000000000eb2f0 g    DF .text	00000000000000dc _ZN7android8SoftAAC231outputDelayRingBufferPutSamplesEPsi
00000000001c9cbc g    DF .text	0000000000000088 _ZN7android8NuPlayer20schedulePollDurationEv
00000000005af530  w   DO .data	0000000000000050 _ZTTNSt3__118basic_stringstreamIcNS_11char_traitsIcEENS_9allocatorIcEEEE
0000000000587f90  w   DO .data	00000000000000b8 _ZTCN7android11BnInterfaceINS_13IEffectClientEEE0_NS_13IEffectClientE
00000000002efda4 g    DF .text	00000000000000d0 _ZN2nn4mmnv7RequestD2Ev
00000000002790dc g    DF .text	0000000000000034 _ZN7android11MPEG4Writer12writeUdtaBoxEv
0000000000254e04 g    DF .text	000000000000008c _ZN7android10FileSourceC2EPN5movie18ClientStreamReaderEPKc
00000000005174d0 g    DO .rodata	0000000000000028 _ZTSN7android27StaticAudioTrackClientProxyE
0000000000252998  w   DF .text	00000000000000d8 _ZN7android20AwesomeLocalRenderer6renderEPNS_11MediaBufferE
00000000002b1d48 g    DF .text	000000000000001c _ZNK9mkvparser4Tags3Tag11ShallowCopyERS1_
000000000019b07c g    DF .text	000000000000001c _ZN7android17StagefrightPlayer5resetEv
00000000005a9c70  w   DO .data	0000000000000108 _ZTCN7android16OMXCodecObserverE8_NS_7IBinderE
000000000058d040  w   DO .data	0000000000000238 _ZTCN7android11BnInterfaceINS_13IAudioFlingerEEE0_NS_13IAudioFlingerE
00000000001bf1f0  w   DF .text	000000000000003c _ZN7android12SortedVectorINS_16key_value_pair_tINS_7AStringES2_EEED0Ev
000000000059f828 g    DO .data	0000000000000040 _ZTVN7android8AMessageE
000000000059ba70 g    DO .data	00000000000000a8 _ZTCN7android11MediaPlayerE232_NS_19IMediaDeathNotifierE
0000000000588320 g    DO .data	0000000000000008 _ZN7android14AudioParameter15keySamplingRateE
00000000002b9c5c g    DF .text	00000000000000b0 _ZNK8mkvmuxer10VideoTrack16VideoPayloadSizeEv
00000000000ecb7c  w   DF .text	0000000000000034 _ZN7android6VectorINS_22SimpleSoftOMXComponent8PortInfoEED2Ev
000000000058c2b0  w   DO .data	0000000000000038 _ZTIN7android11BpInterfaceINS_13IAudioFlingerEEE
0000000000254328 g    DF .text	000000000000006c _ZN7android10DataSource22CreateFromInMemoryFileEPKvm
00000000001d0e08 g    DF .text	000000000000006c _ZN7android8NuPlayer18DecoderPassThrough12isStaleReplyERKNS_2spINS_8AMessageEEE
00000000001ea130 g    DF .text	000000000000016c _ZN7android11LiveSession13fetchPlaylistEPKcPhPb
0000000000285184 g    DF .text	000000000000006c _ZN7android9OggSourceC1ERKNS_2spINS_12OggExtractorEEE
0000000000522290 g    DO .rodata	0000000000000019 _ZTSN9mkvparser10BlockGroupE
00000000002d73ec  w   DF .text	0000000000000004 _ZN5movie18VideoCodecCallbackD0Ev
0000000000249560 g    DF .text	0000000000000064 _ZN7android12AVIExtractorD2Ev
00000000005225d0 g    DO .rodata	0000000000000015 _ZTSN7android9WebmFloatE
00000000002e4824 g    DF .text	0000000000000038 _ZN5movie23BrowserPlayerDataSourceC1EPNS_10DataSourceE
0000000000594d20 g    DO .data	0000000000000020 _ZTTN7android4IOMXE
0000000000194594 g    DF .text	0000000000000088 _ZN7android22MediaMetadataRetriever13setDataSourceERKNS_2spINS_17IMediaHTTPServiceEEEPKcPKNS_11KeyedVectorINS_7String8ES9_EE
0000000000202e80  w   DF .text	0000000000000084 _ZTv0_n24_N7android13MPEG2TSSourceD1Ev
0000000000253544 g    DF .text	0000000000000054 _ZN7android10DataSource9getUInt32ElPj
0000000000598c90 g    DO .data	0000000000000168 _ZTCN7android16BnStreamListenerE0_NS_11BnInterfaceINS_15IStreamListenerEEE
000000000021ae08 g    DF .text	00000000000000b0 eChromaMotionComp
0000000000201c1c g    DF .text	0000000000000068 _ZN7android16MPEG2PSExtractor12WrappedTrackD2Ev
00000000002447fc g    DF .text	0000000000000058 _ZN7android11AudioPlayer13AudioCallbackEiPv
00000000001b3e18  w   DF .text	000000000000002c _ZN7android8NuPlayer22NuPlayerStreamListenerD1Ev
00000000001e0f9c  w   DF .text	0000000000000250 _ZNSt3__112__hash_tableINS_17__hash_value_typeImPKcEENS_22__unordered_map_hasherImS4_NS_4hashImEELb1EEENS_21__unordered_map_equalImS4_NS_8equal_toImEELb1EEENS_9allocatorIS4_EEE8__rehashEm
00000000001eb134 g    DF .text	000000000000015c _ZN7android11LiveSession17getBandwidthIndexEi
000000000020aabc g    DF .text	000000000000012c _ZN7android15OMXNodeInstance24configureVideoTunnelModeEj8OMX_BOOLjPP13native_handle
000000000021802c g    DF .text	00000000000000a0 RCUpdateBuffer
00000000001822b0 g    DF .text	0000000000000008 _ZN7android10AudioTrack9setVolumeEf
00000000001c056c  w   DF .text	0000000000000004 _ZN7android8NuPlayer6Source10disconnectEv
00000000001db514 g    DF .text	00000000000000ac _ZN7android10ABitReader19getBitsWithFallbackEmj
00000000005ac5a0 g    DO .data	0000000000000018 _ZTIN9mkvparser10VideoTrackE
00000000002cc274 g    DF .text	0000000000000004 _ZN5movie11NnExtractor8FinalizeEv
000000000022ec4c g    DF .text	00000000000000b4 _ZN7android15TimedTextDriver19addInBandTextSourceEmRKNS_2spINS_11MediaSourceEEE
00000000005a52d0 g    DO .data	0000000000000078 _ZTVN7android12AVIExtractorE
00000000001c4200 g    DF .text	000000000000016c _ZNK7android8NuPlayer13GenericSource18onGetSelectedTrackENS_2spINS_8AMessageEEE
00000000002549c4 g    DF .text	000000000000002c _ZN7android4ESDSD1Ev
000000000017601c g    DF .text	00000000000003a0 _vorbis_unpack_books
00000000000db0b8 g    DF .text	0000000000000008 TVMRVideoEncoderFeedFrameRGB
00000000002394ac g    DF .text	00000000000000cc _ZN7android6ACodec14setupEAC3CodecEbii
00000000002434d8 g    DF .text	000000000000002c _ZN7android12AMRExtractor16getTrackMetaDataEmj
0000000000288c88 g    DF .text	0000000000000094 _ZN7android6MuxOMX21getGraphicBufferUsageEjjPj
0000000000521f50 g    DO .rodata	0000000000000019 _ZTSN7android12WVMExtractorE
00000000002a510c g    DF .text	000000000000002c _ZN7android14MatroskaSourceD1Ev
0000000000591ef8 g    DO .data	0000000000000180 _ZTVN7android16BnMediaCodecListE
00000000001e343c g    DF .text	0000000000000004 _ZN7android9AWakeLock17clearPowerManagerEv
00000000005859a8  w   DO .data	0000000000000020 _ZTVN7android4ListIPNS_22SimpleSoftOMXComponent10BufferInfoEEE
00000000001bdcd8 g    DF .text	0000000000000074 _ZN7android19ASessionDescriptionC2Ev
00000000000580e0 g    DF .text	00000000000000fc jpegTegraDecoderMgrCreate
0000000000188314  w   DF .text	000000000000007c _ZNK7android14BpAudioFlinger12masterVolumeEv
0000000000108bd0 g    DF .text	0000000000000004 _Z14InitInvSqrtTabv
000000000012d85c g    DF .text	00000000000007d4 _Z23sbrDecoder_drcApplySlotP18SBRDEC_DRC_CHANNELPiS1_iii
0000000000258de4 g    DF .text	00000000000000c8 _ZN7android10MediaCodec4stopEv
00000000002523dc  w   DF .text	0000000000000040 _ZNK7android6VectorINS_13AwesomePlayer9TrackStatEE12do_constructEPvm
00000000002cbc04 g    DF .text	0000000000000004 _ZN11nnAudioSink5flushEv
00000000001ca2cc g    DF .text	0000000000000008 _ZN7android8NuPlayer14closeAudioSinkEv
00000000005a25f8  w   DO .data	0000000000000058 _ZTVN7android12SortedVectorINS_16key_value_pair_tINS_2wpINS_7IBinderEEEPNS_15OMXNodeInstanceEEEEE
00000000005a7e80  w   DO .data	0000000000000018 _ZTIN7android17AHandlerReflectorINS_13MPEG2TSWriterEEE
0000000000208838  w   DF .text	0000000000000060 _ZNK7android12SortedVectorINS_16key_value_pair_tINS_2wpINS_7IBinderEEEPNS_15OMXNodeInstanceEEEE8do_splatEPvPKvm
0000000000201acc g    DF .text	000000000000001c _ZN7android16MPEG2PSExtractor5Track9getFormatEv
0000000000014584 g    DF .text	0000000000000008 NvMMReadSock
00000000000ed88c g    DF .text	0000000000000008 _Z27GetRequiredMemOverlapBufferv
000000000019746c g    DF .text	0000000000000098 _ZN7android5media8Metadata10appendBoolEib
00000000002e80c4 g    DF .text	0000000000000020 _ZN5movie11DecoderImpl9GetStrideEPiS1_S1_
00000000000ecf54  w   DF .text	000000000000003c _ZN7android6VectorINS_22SimpleSoftOMXComponent10BufferInfoEED0Ev
000000000029e468 g    DF .text	0000000000000030 _ZThn16_N7android18SurfaceMediaSourceD1Ev
00000000002ee190  w   DF .text	0000000000000048 _ZTv0_n24_N7android20BnGraphicBufferAllocD1Ev
00000000001c2dac g    DF .text	0000000000000088 _ZN7android8NuPlayer13GenericSource21schedulePollBufferingEv
00000000002029a8 g    DF .text	00000000000001bc _ZN7android16MPEG2TSExtractor8getTrackEm
0000000000242100  w   DF .text	0000000000000024 _ZN7android6ACodec11LoadedStateD0Ev
00000000002c9ddc g    DF .text	0000000000000004 _ZN7android11WebmElementD2Ev
0000000000265584 g    DF .text	0000000000000188 _ZN7android10MediaMuxer8addTrackERKNS_2spINS_8AMessageEEE
00000000002797f4 g    DF .text	000000000000003c _ZN7android11MPEG4Writer10writeInt64El
000000000017ab38 g    DF .text	0000000000000080 _ZN7android11AudioRecord13DeathNotifier10binderDiedERKNS_2wpINS_7IBinderEEE
0000000000597620  w   DO .data	0000000000000058 _ZTTN7android11BnInterfaceINS_4IOMXEEE
000000000019a7fc  w   DF .text	0000000000000064 _ZNK7android6VectorINS_12SoundPoolMsgEE7do_copyEPvPKvm
00000000005a5168  w   DO .data	0000000000000020 _ZTVN7android4ListIPNS_11MediaBufferEEE
0000000000250138 g    DF .text	0000000000000058 _ZN7android13AwesomePlayer22postAudioTearDownEventEl
0000000000592d40  w   DO .data	0000000000000098 _ZTCN7android11BpInterfaceINS_15IMediaCodecListEEE0_NS_10IInterfaceE
00000000002ba6e4 g    DF .text	0000000000000134 _ZN8mkvmuxer7Chapter19ExpandDisplaysArrayEv
000000000020cf6c  w   DF .text	0000000000000094 _ZNK7android12SortedVectorINS_16key_value_pair_tIP20OMX_BUFFERHEADERTYPEjEEE8do_splatEPvPKvm
0000000000242cc4 g    DF .text	0000000000000030 _ZN7android9CodecBase15PortDescriptionC2Ev
000000000017e700  w   DF .text	0000000000000048 _ZThn8_N7android11BnInterfaceINS_19IAudioFlingerClientEED1Ev
00000000002d1e70 g    DF .text	0000000000000024 _ZN5movie22NnCodecMessageReceiverD0Ev
00000000002548ac g    DF .text	00000000000000bc _ZN7android4ESDSC1EPKvm
00000000002ebec0 g    DF .text	0000000000000050 _ZN5movie12UtilsParseUEEPN7android10ABitReaderE
000000000019b220  w   DF .text	0000000000000058 _ZN7android20MediaPlayerInterfaceD2Ev
00000000001e4848 g    DF .text	00000000000000c8 _ZN7android14LiveDataSourceD2Ev
00000000005ac778 g    DO .data	0000000000000030 _ZTVN9mkvparser9MkvReaderE
00000000002e070c g    DF .text	0000000000000210 _ZN5movie16NnCodecVideoSink24HandleOutputBufferNativeEv
000000000020f9c4 g    DF .text	0000000000000010 _ZN7android16SoftOMXComponent16SetConfigWrapperEPv13OMX_INDEXTYPES1_
00000000005a7488 g    DO .data	0000000000000078 _ZTVN7android14MediaExtractorE
0000000000193ad8  w   DF .text	0000000000000060 _ZNK7android6VectorINS_14MediaCodecInfo12ProfileLevelEE8do_splatEPvPKvm
0000000000229684 g    DF .text	000000000000009c _Z49unmark_long_term_frame_for_reference_by_frame_idxP12tagAVCHandleP15tagDecPicBufferj
00000000000ce528 g    DF .text	00000000000000fc TVMROutputSurfaceGetBits
000000000017e410  w   DF .text	0000000000000098 _ZN7android11BnInterfaceINS_19IAudioFlingerClientEE19queryLocalInterfaceERKNS_8String16E
00000000001d1c80 g    DF .text	00000000000000b4 _ZN7android14NuPlayerDriverD1Ev
00000000000ece10  w   DF .text	00000000000000f0 _ZNK7android6VectorINS_22SimpleSoftOMXComponent8PortInfoEE8do_splatEPvPKvm
00000000002a8160  w   DF .text	00000000000000c8 _ZNK7android6VectorINS_17MatroskaExtractor9TrackInfoEE15do_move_forwardEPvPKvm
00000000002ca038 g    DF .text	0000000000000054 _Z16shutdownWebFramev
00000000000f9fc4 g    DF .text	0000000000000020 _Z30CBlock_FrequencyToTimeLowDelayP28CAacDecoderStaticChannelInfoP22CAacDecoderChannelInfoPssc
00000000002b13f0 g    DF .text	0000000000000004 _ZN9mkvparser8Chapters4AtomD2Ev
00000000000cccf8 g    DF .text	0000000000000048 TVMRDeviceSetVicClock
000000000017b174  w   DF .text	0000000000000004 _ZN7android5MutexD2Ev
000000000018eab0  w   DF .text	0000000000000048 _ZThn8_N7android11BpInterfaceINS_18IMediaPlayerClientEED1Ev
00000000002e2718 g    DF .text	0000000000000304 _ZN5movie20NnCodecInputReceiverC2Ev
0000000000517670  w   DO .rodata	000000000000002d _ZTSN7android11BnInterfaceINS_13IAudioFlingerEEE
000000000029cd2c g    DF .text	00000000000000a8 _ZN7android11SfMemDealerD1Ev
000000000027a9e8 g    DF .text	000000000000028c _ZN7android11MPEG4Writer5TrackD1Ev
000000000017daac g    DF .text	0000000000000060 _ZN7android11AudioSystem26getPrimaryOutputFrameCountEv
00000000001b5d54 g    DF .text	000000000000005c _ZN7android18ARawAudioAssembler10packetLostEv
000000000001f0c4 g    DF .text	00000000000001e4 NVOMX_InitPort
000000000018f5e4  w   DF .text	0000000000000048 _ZThn8_N7android11BnInterfaceINS_4IOMXEED1Ev
000000000059db98  w   DO .data	0000000000000040 _ZTVN7android10ARTPSourceE
000000000022d64c  w   DF .text	0000000000000084 _ZN7android28SoftVideoEncoderOMXComponentD0Ev
00000000001e4738 g    DF .text	00000000000000a0 _ZN7android13ParsedMessage17GetInt32AttributeEPKcS2_Pi
00000000005215e0  w   DO .rodata	0000000000000026 _ZTSN7android4ListIPNS_9PageCache4PageEEE
0000000000132094 g    DF .text	0000000000000048 hexChar2Dec
000000000026bdcc  w   DF .text	000000000000003c _ZN7android6VectorINS_2spINS_13MPEG2TSWriter10SourceInfoEEEED0Ev
000000000018abb0 g    DF .text	0000000000000044 _ZTv0_n24_N7android25IAudioPolicyServiceClientD0Ev
0000000000205778  w   DF .text	0000000000000094 _ZNK7android6VectorINS_19GraphicBufferSource11CodecBufferEE15do_move_forwardEPvPKvm
00000000005ab0f0  w   DO .data	0000000000000098 _ZTCN7android11BnInterfaceINS_11IMemoryHeapEEE0_NS_10IInterfaceE
00000000002eb488 g    DF .text	000000000000001c _ZN5movie9Extractor6SeekToEl
000000000050658e g    DO .rodata	00000000000000a2 huff_ctab1
00000000001c153c g    DF .text	0000000000000054 _ZN7android8NuPlayer13GenericSource13setDataSourceERKNS_2spINS_10DataSourceEEE
0000000000506630 g    DO .rodata	00000000000000a2 huff_ctab2
000000000017e2fc g    DF .text	0000000000000040 _ZN7android11AudioSystem24AudioPolicyServiceClient22onAudioPatchListUpdateEv
00000000005066d2 g    DO .rodata	00000000000000a2 huff_ctab3
0000000000053088 g    DF .text	0000000000000040 NvDdk2dSurfaceDestroy
0000000000506774 g    DO .rodata	00000000000000a2 huff_ctab4
00000000001039cc g    DF .text	0000000000000174 _Z23FDKhybridSynthesisApplyP18FDK_SYN_HYB_FILTERPKiS2_PiS3_
0000000000506816 g    DO .rodata	00000000000000a2 huff_ctab5
00000000002084e0  w   DF .text	000000000000006c _ZNK7android12SortedVectorINS_16key_value_pair_tIjNS_2spINS_3OMX18CallbackDispatcherEEEEEE16do_move_backwardEPvPKvm
00000000002a2bc8 g    DF .text	00000000000005ec _ZN7android12WAVExtractor4initEv
00000000002efb48  w   DF .text	0000000000000018 _ZN2nn2sf13SharedPointerINS_4mmnv8IRequestEED2Ev
00000000005068b8 g    DO .rodata	00000000000000a2 huff_ctab6
000000000018b424 g    DF .text	0000000000000294 _ZN7android8BnEffect10onTransactEjRKNS_6ParcelEPS1_j
000000000059a0a0  w   DO .data	0000000000000098 _ZTCN7android11BpInterfaceINS_15IStreamListenerEEE0_NS_10IInterfaceE
00000000002a37d8 g    DF .text	000000000000009c _ZN7android9WAVSourceD0Ev
000000000050695a g    DO .rodata	0000000000000080 huff_ctab7
00000000001e13b0 g    DF .text	00000000000000b0 _ZN7android7AStringC1ERKS0_
000000000029d590  w   DF .text	0000000000000084 _ZNK7android6VectorINS_11SfMemDealer7MemInfoEE16do_move_backwardEPvPKvm
00000000005069da g    DO .rodata	0000000000000080 huff_ctab8
000000000017b20c g    DF .text	00000000000003ac _ZN7android11AudioSystem17get_audio_flingerEv
0000000000199eb4 g    DF .text	00000000000000f8 _ZN7android12SoundChannelD1Ev
0000000000506a5a g    DO .rodata	0000000000000152 huff_ctab9
00000000001cd3d8  w   DF .text	0000000000000060 _ZNK7android6VectorImE8do_splatEPvPKvm
00000000002becd8 g    DF .text	00000000000004b4 _ZN8mkvmuxer7Segment18WriteSegmentHeaderEv
000000000026164c  w   DF .text	000000000000003c _ZN7android6VectorINS_17CodecProfileLevelEED0Ev
00000000001db2a8 g    DF .text	0000000000000024 _ZN7android10ABitReaderC1EPKhm
00000000005a73b0 g    DO .data	0000000000000008 _ZN7android25MEDIA_MIMETYPE_AUDIO_OPUSE
00000000002ef16c  w   DF .text	0000000000000048 _ZNSt3__115basic_stringbufIcNS_11char_traitsIcEENS_9allocatorIcEEED0Ev
0000000000255cac g    DF .text	0000000000000008 _ZN7android18CurlHttpConnection19ErrorOriginFromCURLEi
00000000002787f8 g    DF .text	0000000000000198 _ZN7android11MPEG4Writer22writeCompositionMatrixEi
0000000000209dd0 g    DF .text	0000000000000008 _ZN7android15OMXNodeInstance5ownerEv
00000000005af7f0  w   DO .data	0000000000000018 _ZTIN2nn2sf14IServiceObjectE
0000000000192594  w   DF .text	0000000000000060 _ZNK7android6VectorINS_2spINS_7IMemoryEEEE7do_copyEPvPKvm
00000000001b35dc g    DF .text	000000000000025c _ZN7android8NuPlayer22NuPlayerStreamListenerC1ERKNS_2spINS_13IStreamSourceEEEi
000000000024757c g    DF .text	0000000000000130 _ZN7android5IsIDRERKNS_2spINS_7ABufferEEE
000000000029e504 g    DF .text	000000000000003c _ZThn8_N7android18SurfaceMediaSourceD0Ev
0000000000271c88 g    DF .text	00000000000001a4 _ZN7android14MPEG4Extractor18parseID3v2MetaDataEl
00000000005a0320  w   DO .data	0000000000000028 _ZTIN7android12SortedVectorINS_16key_value_pair_tINS_7AStringENS_2spINS_7ABufferEEEEEEE
00000000001d3d88 g    DF .text	000000000000008c _ZN7android8NuPlayer8Renderer17setVideoFrameRateEf
00000000005a3ad8 g    DO .data	0000000000000078 _ZTVN7android6ACodec9BaseStateE
00000000002b80bc g    DF .text	0000000000000040 _ZN9mkvparser10BlockGroupC1EPNS_7ClusterElxxxxxx
00000000002b93d0 g    DF .text	0000000000000024 _ZN8mkvmuxer5TrackD0Ev
0000000000522370 g    DO .rodata	0000000000000017 _ZTSN9mkvparser9MkvReaderE
00000000002eb4a4 g    DF .text	000000000000001c _ZN5movie9Extractor7AdvanceEv
00000000001666b4 g    DF .text	0000000000000048 h264bsdGetNeighbourMb
000000000021740c g    DF .text	0000000000000138 dec_ref_pic_marking
0000000000251608 g    DF .text	0000000000000008 _ZNK7android13AwesomePlayer5flagsEv
00000000001ef8d0 g    DF .text	0000000000000130 _ZN7android9M3UParser21parseMetaDataDurationERKNS_7AStringEPNS_2spINS_8AMessageEEEPKcPl
000000000024222c  w   DF .text	000000000000004c _ZN7android6ACodec13DeathNotifierD1Ev
00000000005ac760 g    DO .data	0000000000000018 _ZTIN8mkvmuxer10AudioTrackE
0000000000132404 g    DF .text	0000000000000004 FDKpow
00000000001bfce4 g    DF .text	0000000000000008 _ZN7android8NuPlayer14HTTPLiveSource14feedMoreTSDataEv
000000000024b25c  w   DF .text	00000000000000b4 _ZNK7android6VectorINS_12AVIExtractor5TrackEE16do_move_backwardEPvPKvm
00000000001968a8 g    DF .text	0000000000000094 _ZN7android11MediaPlayer17setAudioSessionIdEi
00000000001dc25c g    DF .text	0000000000000004 _ZN7android6AState11stateExitedEv
00000000002061c4 g    DF .text	0000000000000030 _ZThn8_N7android3OMXD1Ev
000000000016f318 g    DF .text	0000000000000c44 vorbis_book_unpack
00000000001e6ad4 g    DF .text	0000000000000148 _ZN7android11LiveSession15getStreamFormatENS0_10StreamTypeEPNS_2spINS_8AMessageEEE
0000000000014ee4 g    DF .text	0000000000000030 _ZN2nv2mm12SetAllocatorEPFPvmmEPFvS1_mE
0000000000198e30 g    DF .text	0000000000000050 _ZN7android12SoundChannel9autoPauseEv
00000000002414e8 g    DF .text	0000000000000068 _ZN7android6ACodec17IdleToLoadedStateC1EPS0_
00000000000fafdc g    DF .text	0000000000000014 _Z22CConcealment_GetMethodP14CConcealParams
00000000001cf7b8 g    DF .text	00000000000006b4 _ZN7android8NuPlayer7Decoder20onInputBufferFetchedERKNS_2spINS_8AMessageEEE
0000000000590920  w   DO .data	00000000000000c8 _ZTCN7android11BnInterfaceINS_7IEffectEEE0_NS_7IEffectE
0000000000230e20 g    DF .text	000000000000002c _ZN7android18TimedTextSRTSource4stopEv
00000000002202c8 g    DF .text	0000000000000ebc dct_luma_16x16
0000000000114d7c g    DF .text	0000000000005a3c pcmDmx_ApplyFrame
0000000000295328 g    DF .text	0000000000000278 _ZN7android8OMXCodec14flushPortAsyncEj
00000000002a4a70 g    DF .text	00000000000002a0 _ZN7android14MatroskaSourceC2ERKNS_2spINS_17MatroskaExtractorEEEm
00000000002ca844 g    DF .text	0000000000000004 _ZN5movie13BrowserPlayerD1Ev
00000000001ecef0 g    DF .text	00000000000000bc _ZN7android9M3UParserC2EPKcPKvmi
000000000018f348 g    DF .text	000000000000003c _ZTv0_n24_N7android12IOMXObserverD1Ev
0000000000011b48 g    DF .text	00000000000008a8 NvMMSockConnectHTTP
00000000001904c0  w   DF .text	0000000000000050 _ZThn8_N7android11BpInterfaceINS_12IOMXObserverEED0Ev
000000000051bd40  w   DO .rodata	0000000000000017 _ZTSN7android10ARTPSourceE
000000000024b44c  w   DF .text	000000000000009c _ZNK7android6VectorINS_12AVIExtractor10SampleInfoEE15do_move_forwardEPvPKvm
00000000001e1e68  w   DF .text	000000000000010c _ZN7android10Compare_LEImmEENS_7AStringERKT_RKT0_
00000000002dbf10 g    DF .text	0000000000000010 _ZN5movie26NnCodecAudioOutputReceiver24ReleaseOutputBufferIndexEii
00000000001893c8  w   DF .text	00000000000000a0 _ZNK7android14BpAudioFlinger18queryNumberEffectsEPj
00000000002994cc g    DF .text	0000000000000140 _ZN7android11SampleTable20setChunkOffsetParamsEjlm
00000000001c9f0c g    DF .text	00000000000002dc _ZN7android8NuPlayer15updateVideoSizeERKNS_2spINS_8AMessageEEES5_
000000000025e2b8 g    DF .text	0000000000000140 _ZN7android10MediaCodec10extractCSDERKNS_2spINS_8AMessageEEE
00000000000ce23c g    DF .text	0000000000000004 TVMRFenceDestroy
000000000059ae50  w   DO .data	0000000000000028 _ZTIN7android6VectorINS_14MediaCodecInfo12ProfileLevelEEE
00000000002a51e4 g    DF .text	000000000000001c _ZN7android14MatroskaSource5startEPNS_8MetaDataE
000000000028e9d4 g    DF .text	000000000000015c _ZN7android8OMXCodec22isColorFormatSupportedE20OMX_COLOR_FORMATTYPEi
